                              1 ;--------------------------------------------------------
                              2 ; File Created by SDCC : free open source ANSI-C Compiler
                              3 ; Version 2.8.0 #5117 (Apr 18 2008) (UNIX)
                              4 ; This file was generated Sun Sep  4 03:25:58 2011
                              5 ;--------------------------------------------------------
                              6 	.module main
                              7 	.optsdcc -mmcs51 --model-small
                              8 	
                              9 ;--------------------------------------------------------
                             10 ; Public variables in this module
                             11 ;--------------------------------------------------------
                             12 	.globl _hash_memory_PARM_2
                             13 	.globl _xtea_keys
                             14 	.globl _stage1_5_hash_key
                             15 	.globl _stage1_5_hash
                             16 	.globl _stage2
                             17 	.globl _xtea
                             18 	.globl _main
                             19 	.globl _hash_memory
                             20 	.globl _args_addr
                             21 	.globl _hash
                             22 	.globl _dec_IV
                             23 	.globl _dec_key
                             24 	.globl _temp_buf
                             25 	.globl _xtea_cbc_decrypt
                             26 	.globl _xtea_hash
                             27 	.globl _rom_rw
                             28 	.globl _vm_saved_param4_high
                             29 	.globl _vm_saved_param3_high
                             30 	.globl _vm_saved_param2_high
                             31 	.globl _vm_saved_param1_high
                             32 	.globl _vm_saved_param4_low
                             33 	.globl _vm_saved_param3_low
                             34 	.globl _vm_saved_param2_low
                             35 	.globl _vm_saved_param1_low
                             36 	.globl _vm_terminate
                             37 	.globl _vm_reboot
                             38 	.globl _vm_tick_low
                             39 	.globl _inst_count
                             40 	.globl _cycle_count
                             41 	.globl _rom_addr
                             42 	.globl _xram_addr
                             43 	.globl _ps3_call
                             44 	.globl _ps3_ram
                             45 	.globl _ps3_result_high
                             46 	.globl _ps3_result_low
                             47 	.globl _ps3_param5_high
                             48 	.globl _ps3_param4_high
                             49 	.globl _ps3_param3_high
                             50 	.globl _ps3_param2_high
                             51 	.globl _ps3_param1_high
                             52 	.globl _ps3_param5_low
                             53 	.globl _ps3_param4_low
                             54 	.globl _ps3_param3_low
                             55 	.globl _ps3_param2_low
                             56 	.globl _ps3_param1_low
                             57 	.globl _ps3_toc
                             58 	.globl _ps3_address
                             59 ;--------------------------------------------------------
                             60 ; special function registers
                             61 ;--------------------------------------------------------
                             62 	.area RSEG    (DATA)
                             63 ;--------------------------------------------------------
                             64 ; special function bits
                             65 ;--------------------------------------------------------
                             66 	.area RSEG    (DATA)
                             67 ;--------------------------------------------------------
                             68 ; overlayable register banks
                             69 ;--------------------------------------------------------
                             70 	.area REG_BANK_0	(REL,OVR,DATA)
   0000                      71 	.ds 8
                             72 ;--------------------------------------------------------
                             73 ; internal ram data
                             74 ;--------------------------------------------------------
                             75 	.area DSEG    (DATA)
   0000                      76 _main_address_1_1:
   0000                      77 	.ds 4
   0004                      78 _main_i_1_1:
   0004                      79 	.ds 2
   0006                      80 _main_out_1_1:
   0006                      81 	.ds 2
   0008                      82 _main___00040000_4_6:
   0008                      83 	.ds 2
   000A                      84 _main_sloc0_1_0:
   000A                      85 	.ds 2
   000C                      86 _main_sloc1_1_0:
   000C                      87 	.ds 4
                             88 ;--------------------------------------------------------
                             89 ; overlayable items in internal ram 
                             90 ;--------------------------------------------------------
                             91 	.area	OSEG    (OVR,DATA)
   0000                      92 _hash_memory_PARM_2::
   0000                      93 	.ds 4
                             94 ;--------------------------------------------------------
                             95 ; Stack segment in internal ram 
                             96 ;--------------------------------------------------------
                             97 	.area	SSEG	(DATA)
   0000                      98 __start__stack:
   0000                      99 	.ds	1
                            100 
                            101 ;--------------------------------------------------------
                            102 ; indirectly addressable internal ram data
                            103 ;--------------------------------------------------------
                            104 	.area ISEG    (DATA)
                            105 ;--------------------------------------------------------
                            106 ; absolute internal ram data
                            107 ;--------------------------------------------------------
                            108 	.area IABS    (ABS,DATA)
                            109 	.area IABS    (ABS,DATA)
                            110 ;--------------------------------------------------------
                            111 ; bit data
                            112 ;--------------------------------------------------------
                            113 	.area BSEG    (BIT)
                            114 ;--------------------------------------------------------
                            115 ; paged external ram data
                            116 ;--------------------------------------------------------
                            117 	.area PSEG    (PAG,XDATA)
                            118 ;--------------------------------------------------------
                            119 ; external ram data
                            120 ;--------------------------------------------------------
                            121 	.area XSEG    (XDATA)
                    7020    122 _ps3_address	=	0x7020
                    7024    123 _ps3_toc	=	0x7024
                    7030    124 _ps3_param1_low	=	0x7030
                    7038    125 _ps3_param2_low	=	0x7038
                    7040    126 _ps3_param3_low	=	0x7040
                    7048    127 _ps3_param4_low	=	0x7048
                    7050    128 _ps3_param5_low	=	0x7050
                    7034    129 _ps3_param1_high	=	0x7034
                    703C    130 _ps3_param2_high	=	0x703c
                    7044    131 _ps3_param3_high	=	0x7044
                    704C    132 _ps3_param4_high	=	0x704c
                    7054    133 _ps3_param5_high	=	0x7054
                    7100    134 _ps3_result_low	=	0x7100
                    7104    135 _ps3_result_high	=	0x7104
                    7200    136 _ps3_ram	=	0x7200
                    7300    137 _ps3_call	=	0x7300
                    7400    138 _xram_addr	=	0x7400
                    7404    139 _rom_addr	=	0x7404
                    7500    140 _cycle_count	=	0x7500
                    7600    141 _inst_count	=	0x7600
                    7700    142 _vm_tick_low	=	0x7700
                    7800    143 _vm_reboot	=	0x7800
                    7900    144 _vm_terminate	=	0x7900
                    7A00    145 _vm_saved_param1_low	=	0x7a00
                    7B00    146 _vm_saved_param2_low	=	0x7b00
                    7C00    147 _vm_saved_param3_low	=	0x7c00
                    7D00    148 _vm_saved_param4_low	=	0x7d00
                    7A04    149 _vm_saved_param1_high	=	0x7a04
                    7B04    150 _vm_saved_param2_high	=	0x7b04
                    7C04    151 _vm_saved_param3_high	=	0x7c04
                    7D04    152 _vm_saved_param4_high	=	0x7d04
                    8000    153 _rom_rw	=	0x8000
                    1000    154 _xtea_hash	=	0x1000
                    1004    155 _xtea_cbc_decrypt	=	0x1004
                    1800    156 _temp_buf	=	0x1800
                    2000    157 _dec_key	=	0x2000
                    2010    158 _dec_IV	=	0x2010
                    2018    159 _hash	=	0x2018
                    2020    160 _args_addr	=	0x2020
                            161 ;--------------------------------------------------------
                            162 ; absolute external ram data
                            163 ;--------------------------------------------------------
                            164 	.area XABS    (ABS,XDATA)
                            165 ;--------------------------------------------------------
                            166 ; external initialized ram data
                            167 ;--------------------------------------------------------
                            168 	.area XISEG   (XDATA)
                            169 	.area HOME    (CODE)
                            170 	.area GSINIT0 (CODE)
                            171 	.area GSINIT1 (CODE)
                            172 	.area GSINIT2 (CODE)
                            173 	.area GSINIT3 (CODE)
                            174 	.area GSINIT4 (CODE)
                            175 	.area GSINIT5 (CODE)
                            176 	.area GSINIT  (CODE)
                            177 	.area GSFINAL (CODE)
                            178 	.area CSEG    (CODE)
                            179 ;--------------------------------------------------------
                            180 ; interrupt vector 
                            181 ;--------------------------------------------------------
                            182 	.area HOME    (CODE)
   0000                     183 __interrupt_vect:
   0000 02s00r00            184 	ljmp	__sdcc_gsinit_startup
                            185 ;--------------------------------------------------------
                            186 ; global & static initialisations
                            187 ;--------------------------------------------------------
                            188 	.area HOME    (CODE)
                            189 	.area GSINIT  (CODE)
                            190 	.area GSFINAL (CODE)
                            191 	.area GSINIT  (CODE)
                            192 	.globl __sdcc_gsinit_startup
                            193 	.globl __sdcc_program_startup
                            194 	.globl __start__stack
                            195 	.globl __mcs51_genXINIT
                            196 	.globl __mcs51_genXRAMCLEAR
                            197 	.globl __mcs51_genRAMCLEAR
                            198 	.area GSFINAL (CODE)
   0000 02s00r03            199 	ljmp	__sdcc_program_startup
                            200 ;--------------------------------------------------------
                            201 ; Home
                            202 ;--------------------------------------------------------
                            203 	.area HOME    (CODE)
                            204 	.area HOME    (CODE)
   0003                     205 __sdcc_program_startup:
   0003 12s00rAB            206 	lcall	_main
                            207 ;	return from main will lock up
   0006 80 FE               208 	sjmp .
                            209 ;--------------------------------------------------------
                            210 ; code
                            211 ;--------------------------------------------------------
                            212 	.area CSEG    (CODE)
                            213 ;------------------------------------------------------------
                            214 ;Allocation info for local variables in function 'hash_memory'
                            215 ;------------------------------------------------------------
                            216 ;size                      Allocated with name '_hash_memory_PARM_2'
                            217 ;address                   Allocated to registers r2 r3 r4 r5 
                            218 ;i                         Allocated to registers r6 
                            219 ;------------------------------------------------------------
                            220 ;	main.c:166: void hash_memory(uint32_t address, uint32_t size)
                            221 ;	-----------------------------------------
                            222 ;	 function hash_memory
                            223 ;	-----------------------------------------
   0000                     224 _hash_memory:
                    0002    225 	ar2 = 0x02
                    0003    226 	ar3 = 0x03
                    0004    227 	ar4 = 0x04
                    0005    228 	ar5 = 0x05
                    0006    229 	ar6 = 0x06
                    0007    230 	ar7 = 0x07
                    0000    231 	ar0 = 0x00
                    0001    232 	ar1 = 0x01
   0000 AA 82               233 	mov	r2,dpl
   0002 AB 83               234 	mov	r3,dph
   0004 AC F0               235 	mov	r4,b
   0006 FD                  236 	mov	r5,a
                            237 ;	main.c:170: for (i = 0; i < 8; i++)
   0007 7E 00               238 	mov	r6,#0x00
   0009                     239 00101$:
   0009 BE 08 00            240 	cjne	r6,#0x08,00110$
   000C                     241 00110$:
   000C 50 18               242 	jnc	00104$
                            243 ;	main.c:171: temp_buf[i] = hash[i];
   000E 8E 07               244 	mov	ar7,r6
   0010 78 18               245 	mov	r0,#(_temp_buf >> 8)
   0012 EE                  246 	mov	a,r6
   0013 24 18               247 	add	a,#_hash
   0015 F5 82               248 	mov	dpl,a
   0017 E4                  249 	clr	a
   0018 34 20               250 	addc	a,#(_hash >> 8)
   001A F5 83               251 	mov	dph,a
   001C E0                  252 	movx	a,@dptr
   001D F9                  253 	mov	r1,a
   001E 8F 82               254 	mov	dpl,r7
   0020 88 83               255 	mov	dph,r0
   0022 F0                  256 	movx	@dptr,a
                            257 ;	main.c:170: for (i = 0; i < 8; i++)
   0023 0E                  258 	inc	r6
   0024 80 E3               259 	sjmp	00101$
   0026                     260 00104$:
                            261 ;	main.c:173: ps3_param1_low = xram_addr+TEMP_BUF;
   0026 90 74 00            262 	mov	dptr,#_xram_addr
   0029 E0                  263 	movx	a,@dptr
   002A FE                  264 	mov	r6,a
   002B A3                  265 	inc	dptr
   002C E0                  266 	movx	a,@dptr
   002D FF                  267 	mov	r7,a
   002E A3                  268 	inc	dptr
   002F E0                  269 	movx	a,@dptr
   0030 F8                  270 	mov	r0,a
   0031 A3                  271 	inc	dptr
   0032 E0                  272 	movx	a,@dptr
   0033 F9                  273 	mov	r1,a
   0034 90 70 30            274 	mov	dptr,#_ps3_param1_low
   0037 EE                  275 	mov	a,r6
   0038 F0                  276 	movx	@dptr,a
   0039 74 18               277 	mov	a,#0x18
   003B 2F                  278 	add	a,r7
   003C A3                  279 	inc	dptr
   003D F0                  280 	movx	@dptr,a
   003E E4                  281 	clr	a
   003F 38                  282 	addc	a,r0
   0040 A3                  283 	inc	dptr
   0041 F0                  284 	movx	@dptr,a
   0042 E4                  285 	clr	a
   0043 39                  286 	addc	a,r1
   0044 A3                  287 	inc	dptr
   0045 F0                  288 	movx	@dptr,a
                            289 ;	main.c:174: ps3_param2_low = address;
   0046 90 70 38            290 	mov	dptr,#_ps3_param2_low
   0049 EA                  291 	mov	a,r2
   004A F0                  292 	movx	@dptr,a
   004B A3                  293 	inc	dptr
   004C EB                  294 	mov	a,r3
   004D F0                  295 	movx	@dptr,a
   004E A3                  296 	inc	dptr
   004F EC                  297 	mov	a,r4
   0050 F0                  298 	movx	@dptr,a
   0051 A3                  299 	inc	dptr
   0052 ED                  300 	mov	a,r5
   0053 F0                  301 	movx	@dptr,a
                            302 ;	main.c:175: ps3_param3_low = size;
   0054 90 70 40            303 	mov	dptr,#_ps3_param3_low
   0057 E5*00               304 	mov	a,_hash_memory_PARM_2
   0059 F0                  305 	movx	@dptr,a
   005A A3                  306 	inc	dptr
   005B E5*01               307 	mov	a,(_hash_memory_PARM_2 + 1)
   005D F0                  308 	movx	@dptr,a
   005E A3                  309 	inc	dptr
   005F E5*02               310 	mov	a,(_hash_memory_PARM_2 + 2)
   0061 F0                  311 	movx	@dptr,a
   0062 A3                  312 	inc	dptr
   0063 E5*03               313 	mov	a,(_hash_memory_PARM_2 + 3)
   0065 F0                  314 	movx	@dptr,a
                            315 ;	main.c:176: ps3_param4_low = xram_addr+HASH;
   0066 90 74 00            316 	mov	dptr,#_xram_addr
   0069 E0                  317 	movx	a,@dptr
   006A FA                  318 	mov	r2,a
   006B A3                  319 	inc	dptr
   006C E0                  320 	movx	a,@dptr
   006D FB                  321 	mov	r3,a
   006E A3                  322 	inc	dptr
   006F E0                  323 	movx	a,@dptr
   0070 FC                  324 	mov	r4,a
   0071 A3                  325 	inc	dptr
   0072 E0                  326 	movx	a,@dptr
   0073 FD                  327 	mov	r5,a
   0074 90 70 48            328 	mov	dptr,#_ps3_param4_low
   0077 74 18               329 	mov	a,#0x18
   0079 2A                  330 	add	a,r2
   007A F0                  331 	movx	@dptr,a
   007B 74 20               332 	mov	a,#0x20
   007D 3B                  333 	addc	a,r3
   007E A3                  334 	inc	dptr
   007F F0                  335 	movx	@dptr,a
   0080 E4                  336 	clr	a
   0081 3C                  337 	addc	a,r4
   0082 A3                  338 	inc	dptr
   0083 F0                  339 	movx	@dptr,a
   0084 E4                  340 	clr	a
   0085 3D                  341 	addc	a,r5
   0086 A3                  342 	inc	dptr
   0087 F0                  343 	movx	@dptr,a
                            344 ;	main.c:177: ps3_address = xtea_hash;
   0088 90 10 00            345 	mov	dptr,#_xtea_hash
   008B E0                  346 	movx	a,@dptr
   008C FA                  347 	mov	r2,a
   008D A3                  348 	inc	dptr
   008E E0                  349 	movx	a,@dptr
   008F FB                  350 	mov	r3,a
   0090 A3                  351 	inc	dptr
   0091 E0                  352 	movx	a,@dptr
   0092 FC                  353 	mov	r4,a
   0093 A3                  354 	inc	dptr
   0094 E0                  355 	movx	a,@dptr
   0095 FD                  356 	mov	r5,a
   0096 90 70 20            357 	mov	dptr,#_ps3_address
   0099 EA                  358 	mov	a,r2
   009A F0                  359 	movx	@dptr,a
   009B A3                  360 	inc	dptr
   009C EB                  361 	mov	a,r3
   009D F0                  362 	movx	@dptr,a
   009E A3                  363 	inc	dptr
   009F EC                  364 	mov	a,r4
   00A0 F0                  365 	movx	@dptr,a
   00A1 A3                  366 	inc	dptr
   00A2 ED                  367 	mov	a,r5
   00A3 F0                  368 	movx	@dptr,a
                            369 ;	main.c:178: ps3_call = 1;
   00A4 90 73 00            370 	mov	dptr,#_ps3_call
   00A7 74 01               371 	mov	a,#0x01
   00A9 F0                  372 	movx	@dptr,a
   00AA 22                  373 	ret
                            374 ;------------------------------------------------------------
                            375 ;Allocation info for local variables in function 'main'
                            376 ;------------------------------------------------------------
                            377 ;address                   Allocated with name '_main_address_1_1'
                            378 ;alignment                 Allocated to registers r2 
                            379 ;i                         Allocated with name '_main_i_1_1'
                            380 ;out                       Allocated with name '_main_out_1_1'
                            381 ;x                         Allocated to registers r4 r5 
                            382 ;__00040000                Allocated with name '_main___00040000_4_6'
                            383 ;sloc0                     Allocated with name '_main_sloc0_1_0'
                            384 ;sloc1                     Allocated with name '_main_sloc1_1_0'
                            385 ;------------------------------------------------------------
                            386 ;	main.c:181: void main()
                            387 ;	-----------------------------------------
                            388 ;	 function main
                            389 ;	-----------------------------------------
   00AB                     390 _main:
                            391 ;	main.c:188: uint16_t out = (uint16_t)xtea;
   00AB 75*06r00            392 	mov	_main_out_1_1,#_xtea
   00AE 75*07s00            393 	mov	(_main_out_1_1 + 1),#(_xtea >> 8)
                            394 ;	main.c:189: address = rom_addr+out;
   00B1 90 74 04            395 	mov	dptr,#_rom_addr
   00B4 E0                  396 	movx	a,@dptr
   00B5 FC                  397 	mov	r4,a
   00B6 A3                  398 	inc	dptr
   00B7 E0                  399 	movx	a,@dptr
   00B8 FD                  400 	mov	r5,a
   00B9 A3                  401 	inc	dptr
   00BA E0                  402 	movx	a,@dptr
   00BB FE                  403 	mov	r6,a
   00BC A3                  404 	inc	dptr
   00BD E0                  405 	movx	a,@dptr
   00BE FF                  406 	mov	r7,a
   00BF A8*06               407 	mov	r0,_main_out_1_1
   00C1 A9*07               408 	mov	r1,(_main_out_1_1 + 1)
   00C3 E4                  409 	clr	a
   00C4 FA                  410 	mov	r2,a
   00C5 FB                  411 	mov	r3,a
   00C6 E8                  412 	mov	a,r0
   00C7 2C                  413 	add	a,r4
   00C8 F5*00               414 	mov	_main_address_1_1,a
   00CA E9                  415 	mov	a,r1
   00CB 3D                  416 	addc	a,r5
   00CC F5*01               417 	mov	(_main_address_1_1 + 1),a
   00CE EA                  418 	mov	a,r2
   00CF 3E                  419 	addc	a,r6
   00D0 F5*02               420 	mov	(_main_address_1_1 + 2),a
   00D2 EB                  421 	mov	a,r3
   00D3 3F                  422 	addc	a,r7
   00D4 F5*03               423 	mov	(_main_address_1_1 + 3),a
                            424 ;	main.c:191: address = (address+3)&~3;
   00D6 74 03               425 	mov	a,#0x03
   00D8 25*00               426 	add	a,_main_address_1_1
   00DA FE                  427 	mov	r6,a
   00DB E4                  428 	clr	a
   00DC 35*01               429 	addc	a,(_main_address_1_1 + 1)
   00DE FF                  430 	mov	r7,a
   00DF E4                  431 	clr	a
   00E0 35*02               432 	addc	a,(_main_address_1_1 + 2)
   00E2 F8                  433 	mov	r0,a
   00E3 E4                  434 	clr	a
   00E4 35*03               435 	addc	a,(_main_address_1_1 + 3)
   00E6 F9                  436 	mov	r1,a
   00E7 74 FC               437 	mov	a,#0xFC
   00E9 5E                  438 	anl	a,r6
   00EA F5*00               439 	mov	_main_address_1_1,a
   00EC 8F*01               440 	mov	(_main_address_1_1 + 1),r7
   00EE 88*02               441 	mov	(_main_address_1_1 + 2),r0
   00F0 89*03               442 	mov	(_main_address_1_1 + 3),r1
                            443 ;	main.c:192: out = address-rom_addr;
   00F2 90 74 04            444 	mov	dptr,#_rom_addr
   00F5 E0                  445 	movx	a,@dptr
   00F6 FE                  446 	mov	r6,a
   00F7 A3                  447 	inc	dptr
   00F8 E0                  448 	movx	a,@dptr
   00F9 FF                  449 	mov	r7,a
   00FA A3                  450 	inc	dptr
   00FB E0                  451 	movx	a,@dptr
   00FC F8                  452 	mov	r0,a
   00FD A3                  453 	inc	dptr
   00FE E0                  454 	movx	a,@dptr
   00FF F9                  455 	mov	r1,a
   0100 E5*00               456 	mov	a,_main_address_1_1
   0102 C3                  457 	clr	c
   0103 9E                  458 	subb	a,r6
   0104 FE                  459 	mov	r6,a
   0105 E5*01               460 	mov	a,(_main_address_1_1 + 1)
   0107 9F                  461 	subb	a,r7
   0108 FF                  462 	mov	r7,a
   0109 E5*02               463 	mov	a,(_main_address_1_1 + 2)
   010B 98                  464 	subb	a,r0
   010C F8                  465 	mov	r0,a
   010D E5*03               466 	mov	a,(_main_address_1_1 + 3)
   010F 99                  467 	subb	a,r1
   0110 F9                  468 	mov	r1,a
   0111 8E*06               469 	mov	_main_out_1_1,r6
   0113 8F*07               470 	mov	(_main_out_1_1 + 1),r7
                            471 ;	main.c:194: for (i = 0; i < sizeof(xtea)-3; i++)
   0115 E4                  472 	clr	a
   0116 F5*04               473 	mov	_main_i_1_1,a
   0118 F5*05               474 	mov	(_main_i_1_1 + 1),a
   011A                     475 00109$:
   011A C3                  476 	clr	c
   011B E5*04               477 	mov	a,_main_i_1_1
   011D 94 51               478 	subb	a,#0x51
   011F E5*05               479 	mov	a,(_main_i_1_1 + 1)
   0121 64 80               480 	xrl	a,#0x80
   0123 94 82               481 	subb	a,#0x82
   0125 50 60               482 	jnc	00112$
                            483 ;	main.c:196: rom_rw[out+i] = xtea[i+3] ^ xtea_keys[i%17];
   0127 E5*04               484 	mov	a,_main_i_1_1
   0129 25*06               485 	add	a,_main_out_1_1
   012B F8                  486 	mov	r0,a
   012C E5*05               487 	mov	a,(_main_i_1_1 + 1)
   012E 35*07               488 	addc	a,(_main_out_1_1 + 1)
   0130 24 80               489 	add	a,#(_rom_rw >> 8)
   0132 F9                  490 	mov	r1,a
   0133 74 03               491 	mov	a,#0x03
   0135 25*04               492 	add	a,_main_i_1_1
   0137 FE                  493 	mov	r6,a
   0138 E4                  494 	clr	a
   0139 35*05               495 	addc	a,(_main_i_1_1 + 1)
   013B FF                  496 	mov	r7,a
   013C EE                  497 	mov	a,r6
   013D 24r00               498 	add	a,#_xtea
   013F F5 82               499 	mov	dpl,a
   0141 EF                  500 	mov	a,r7
   0142 34s00               501 	addc	a,#(_xtea >> 8)
   0144 F5 83               502 	mov	dph,a
   0146 E4                  503 	clr	a
   0147 93                  504 	movc	a,@a+dptr
   0148 FE                  505 	mov	r6,a
   0149 75*00 11            506 	mov	__modsint_PARM_2,#0x11
   014C E4                  507 	clr	a
   014D F5*01               508 	mov	(__modsint_PARM_2 + 1),a
   014F 85*04 82            509 	mov	dpl,_main_i_1_1
   0152 85*05 83            510 	mov	dph,(_main_i_1_1 + 1)
   0155 C0 06               511 	push	ar6
   0157 C0 00               512 	push	ar0
   0159 C0 01               513 	push	ar1
   015B 12s00r00            514 	lcall	__modsint
   015E AF 82               515 	mov	r7,dpl
   0160 AA 83               516 	mov	r2,dph
   0162 D0 01               517 	pop	ar1
   0164 D0 00               518 	pop	ar0
   0166 D0 06               519 	pop	ar6
   0168 EF                  520 	mov	a,r7
   0169 24r8C               521 	add	a,#_xtea_keys
   016B F5 82               522 	mov	dpl,a
   016D EA                  523 	mov	a,r2
   016E 34s2F               524 	addc	a,#(_xtea_keys >> 8)
   0170 F5 83               525 	mov	dph,a
   0172 E4                  526 	clr	a
   0173 93                  527 	movc	a,@a+dptr
   0174 FA                  528 	mov	r2,a
   0175 62 06               529 	xrl	ar6,a
   0177 88 82               530 	mov	dpl,r0
   0179 89 83               531 	mov	dph,r1
   017B EE                  532 	mov	a,r6
   017C F0                  533 	movx	@dptr,a
                            534 ;	main.c:194: for (i = 0; i < sizeof(xtea)-3; i++)
   017D 05*04               535 	inc	_main_i_1_1
   017F E4                  536 	clr	a
   0180 B5*04 97            537 	cjne	a,_main_i_1_1,00109$
   0183 05*05               538 	inc	(_main_i_1_1 + 1)
   0185 80 93               539 	sjmp	00109$
   0187                     540 00112$:
                            541 ;	main.c:199: xtea_hash = address+0x140;
   0187 90 10 00            542 	mov	dptr,#_xtea_hash
   018A 74 40               543 	mov	a,#0x40
   018C 25*00               544 	add	a,_main_address_1_1
   018E F0                  545 	movx	@dptr,a
   018F 74 01               546 	mov	a,#0x01
   0191 35*01               547 	addc	a,(_main_address_1_1 + 1)
   0193 A3                  548 	inc	dptr
   0194 F0                  549 	movx	@dptr,a
   0195 E4                  550 	clr	a
   0196 35*02               551 	addc	a,(_main_address_1_1 + 2)
   0198 A3                  552 	inc	dptr
   0199 F0                  553 	movx	@dptr,a
   019A E4                  554 	clr	a
   019B 35*03               555 	addc	a,(_main_address_1_1 + 3)
   019D A3                  556 	inc	dptr
   019E F0                  557 	movx	@dptr,a
                            558 ;	main.c:200: xtea_cbc_decrypt = address+0x94;
   019F 90 10 04            559 	mov	dptr,#_xtea_cbc_decrypt
   01A2 74 94               560 	mov	a,#0x94
   01A4 25*00               561 	add	a,_main_address_1_1
   01A6 F0                  562 	movx	@dptr,a
   01A7 E4                  563 	clr	a
   01A8 35*01               564 	addc	a,(_main_address_1_1 + 1)
   01AA A3                  565 	inc	dptr
   01AB F0                  566 	movx	@dptr,a
   01AC E4                  567 	clr	a
   01AD 35*02               568 	addc	a,(_main_address_1_1 + 2)
   01AF A3                  569 	inc	dptr
   01B0 F0                  570 	movx	@dptr,a
   01B1 E4                  571 	clr	a
   01B2 35*03               572 	addc	a,(_main_address_1_1 + 3)
   01B4 A3                  573 	inc	dptr
   01B5 F0                  574 	movx	@dptr,a
                            575 ;	main.c:202: ps3_param1_low = address;
   01B6 90 70 30            576 	mov	dptr,#_ps3_param1_low
   01B9 E5*00               577 	mov	a,_main_address_1_1
   01BB F0                  578 	movx	@dptr,a
   01BC A3                  579 	inc	dptr
   01BD E5*01               580 	mov	a,(_main_address_1_1 + 1)
   01BF F0                  581 	movx	@dptr,a
   01C0 A3                  582 	inc	dptr
   01C1 E5*02               583 	mov	a,(_main_address_1_1 + 2)
   01C3 F0                  584 	movx	@dptr,a
   01C4 A3                  585 	inc	dptr
   01C5 E5*03               586 	mov	a,(_main_address_1_1 + 3)
   01C7 F0                  587 	movx	@dptr,a
                            588 ;	main.c:203: ps3_param2_low = sizeof(xtea);
   01C8 90 70 38            589 	mov	dptr,#_ps3_param2_low
   01CB 74 54               590 	mov	a,#0x54
   01CD F0                  591 	movx	@dptr,a
   01CE A3                  592 	inc	dptr
   01CF 74 02               593 	mov	a,#0x02
   01D1 F0                  594 	movx	@dptr,a
   01D2 A3                  595 	inc	dptr
   01D3 E4                  596 	clr	a
   01D4 F0                  597 	movx	@dptr,a
   01D5 A3                  598 	inc	dptr
   01D6 F0                  599 	movx	@dptr,a
                            600 ;	main.c:204: ps3_address = clear_icache_symbol;
   01D7 90 70 20            601 	mov	dptr,#_ps3_address
   01DA 74 44               602 	mov	a,#0x44
   01DC F0                  603 	movx	@dptr,a
   01DD A3                  604 	inc	dptr
   01DE 74 CA               605 	mov	a,#0xCA
   01E0 F0                  606 	movx	@dptr,a
   01E1 A3                  607 	inc	dptr
   01E2 74 08               608 	mov	a,#0x08
   01E4 F0                  609 	movx	@dptr,a
   01E5 A3                  610 	inc	dptr
   01E6 E4                  611 	clr	a
   01E7 F0                  612 	movx	@dptr,a
                            613 ;	main.c:205: ps3_call = 1;	
   01E8 90 73 00            614 	mov	dptr,#_ps3_call
   01EB 74 01               615 	mov	a,#0x01
   01ED F0                  616 	movx	@dptr,a
                            617 ;	main.c:208: for (i = 0; i < 8; i++)
   01EE 7A 00               618 	mov	r2,#0x00
   01F0 7B 00               619 	mov	r3,#0x00
   01F2                     620 00113$:
   01F2 C3                  621 	clr	c
   01F3 EA                  622 	mov	a,r2
   01F4 94 08               623 	subb	a,#0x08
   01F6 EB                  624 	mov	a,r3
   01F7 64 80               625 	xrl	a,#0x80
   01F9 94 80               626 	subb	a,#0x80
   01FB 50 32               627 	jnc	00116$
                            628 ;	main.c:210: uint16_t x = (uint16_t)stage1_5_hash+i;
   01FD 7Cr7C               629 	mov	r4,#_stage1_5_hash
   01FF 7Ds2F               630 	mov	r5,#(_stage1_5_hash >> 8)
   0201 EA                  631 	mov	a,r2
   0202 2C                  632 	add	a,r4
   0203 FC                  633 	mov	r4,a
   0204 EB                  634 	mov	a,r3
   0205 3D                  635 	addc	a,r5
   0206 FD                  636 	mov	r5,a
                            637 ;	main.c:212: temp_buf[i+8] = rom_rw[x];
   0207 74 08               638 	mov	a,#0x08
   0209 2A                  639 	add	a,r2
   020A FE                  640 	mov	r6,a
   020B E4                  641 	clr	a
   020C 3B                  642 	addc	a,r3
   020D 24 18               643 	add	a,#(_temp_buf >> 8)
   020F FF                  644 	mov	r7,a
   0210 8C 82               645 	mov	dpl,r4
   0212 74 80               646 	mov	a,#(_rom_rw >> 8)
   0214 2D                  647 	add	a,r5
   0215 F5 83               648 	mov	dph,a
   0217 E0                  649 	movx	a,@dptr
   0218 F8                  650 	mov	r0,a
   0219 8E 82               651 	mov	dpl,r6
   021B 8F 83               652 	mov	dph,r7
   021D F0                  653 	movx	@dptr,a
                            654 ;	main.c:213: rom_rw[x] = 0x98;
   021E 8C 82               655 	mov	dpl,r4
   0220 74 80               656 	mov	a,#(_rom_rw >> 8)
   0222 2D                  657 	add	a,r5
   0223 F5 83               658 	mov	dph,a
   0225 74 98               659 	mov	a,#0x98
   0227 F0                  660 	movx	@dptr,a
                            661 ;	main.c:208: for (i = 0; i < 8; i++)
   0228 0A                  662 	inc	r2
   0229 BA 00 C6            663 	cjne	r2,#0x00,00113$
   022C 0B                  664 	inc	r3
   022D 80 C3               665 	sjmp	00113$
   022F                     666 00116$:
                            667 ;	main.c:216: hash_memory(stage1_5_addr, stage1_5_section1_size);
   022F 75*00 00            668 	mov	_hash_memory_PARM_2,#0x00
   0232 75*01 3B            669 	mov	(_hash_memory_PARM_2 + 1),#0x3B
   0235 75*02 00            670 	mov	(_hash_memory_PARM_2 + 2),#0x00
   0238 75*03 00            671 	mov	(_hash_memory_PARM_2 + 3),#0x00
   023B 90 FA E8            672 	mov	dptr,#0xFAE8
   023E 75 F0 BA            673 	mov	b,#0xBA
   0241 74 02               674 	mov	a,#0x02
   0243 12s00r00            675 	lcall	_hash_memory
                            676 ;	main.c:217: hash_memory(stage1_5_addr+stage1_5_section2_addr, stage1_5_section2_size);
   0246 75*00 28            677 	mov	_hash_memory_PARM_2,#0x28
   0249 75*01 01            678 	mov	(_hash_memory_PARM_2 + 1),#0x01
   024C 75*02 00            679 	mov	(_hash_memory_PARM_2 + 2),#0x00
   024F 75*03 00            680 	mov	(_hash_memory_PARM_2 + 3),#0x00
   0252 90 6D A0            681 	mov	dptr,#0x6DA0
   0255 75 F0 BB            682 	mov	b,#0xBB
   0258 74 02               683 	mov	a,#0x02
   025A 12s00r00            684 	lcall	_hash_memory
                            685 ;	main.c:219: for (i = 0; i < 8; i++)
   025D 7A 00               686 	mov	r2,#0x00
   025F 7B 00               687 	mov	r3,#0x00
   0261 7C 00               688 	mov	r4,#0x00
   0263 7D 00               689 	mov	r5,#0x00
   0265                     690 00117$:
   0265 C3                  691 	clr	c
   0266 EC                  692 	mov	a,r4
   0267 94 08               693 	subb	a,#0x08
   0269 ED                  694 	mov	a,r5
   026A 64 80               695 	xrl	a,#0x80
   026C 94 80               696 	subb	a,#0x80
   026E 40 03               697 	jc	00158$
   0270 02s02rF1            698 	ljmp	00143$
   0273                     699 00158$:
                            700 ;	main.c:221: if ((hash[i] ^ stage1_5_hash_key[i]) != temp_buf[i+8])
   0273 EC                  701 	mov	a,r4
   0274 24 18               702 	add	a,#_hash
   0276 F5 82               703 	mov	dpl,a
   0278 ED                  704 	mov	a,r5
   0279 34 20               705 	addc	a,#(_hash >> 8)
   027B F5 83               706 	mov	dph,a
   027D E0                  707 	movx	a,@dptr
   027E FE                  708 	mov	r6,a
   027F EC                  709 	mov	a,r4
   0280 24r84               710 	add	a,#_stage1_5_hash_key
   0282 F5 82               711 	mov	dpl,a
   0284 ED                  712 	mov	a,r5
   0285 34s2F               713 	addc	a,#(_stage1_5_hash_key >> 8)
   0287 F5 83               714 	mov	dph,a
   0289 E4                  715 	clr	a
   028A 93                  716 	movc	a,@a+dptr
   028B 62 06               717 	xrl	ar6,a
   028D 74 08               718 	mov	a,#0x08
   028F 2C                  719 	add	a,r4
   0290 FF                  720 	mov	r7,a
   0291 E4                  721 	clr	a
   0292 3D                  722 	addc	a,r5
   0293 F8                  723 	mov	r0,a
   0294 8F 82               724 	mov	dpl,r7
   0296 74 18               725 	mov	a,#(_temp_buf >> 8)
   0298 28                  726 	add	a,r0
   0299 F5 83               727 	mov	dph,a
   029B E0                  728 	movx	a,@dptr
   029C FF                  729 	mov	r7,a
   029D EE                  730 	mov	a,r6
   029E B5 07 02            731 	cjne	a,ar7,00159$
   02A1 80 42               732 	sjmp	00119$
   02A3                     733 00159$:
                            734 ;	main.c:223: while (1) 
   02A3 8A 06               735 	mov	ar6,r2
   02A5 8B 07               736 	mov	ar7,r3
   02A7                     737 00102$:
                            738 ;	main.c:225: hash[i--] ^= hash[i+1];
   02A7 8E*08               739 	mov	_main___00040000_4_6,r6
   02A9 8F*09               740 	mov	(_main___00040000_4_6 + 1),r7
   02AB 1E                  741 	dec	r6
   02AC BE FF 01            742 	cjne	r6,#0xff,00160$
   02AF 1F                  743 	dec	r7
   02B0                     744 00160$:
   02B0 E5*08               745 	mov	a,_main___00040000_4_6
   02B2 24 18               746 	add	a,#_hash
   02B4 F5*0A               747 	mov	_main_sloc0_1_0,a
   02B6 E5*09               748 	mov	a,(_main___00040000_4_6 + 1)
   02B8 34 20               749 	addc	a,#(_hash >> 8)
   02BA F5*0B               750 	mov	(_main_sloc0_1_0 + 1),a
   02BC E5*08               751 	mov	a,_main___00040000_4_6
   02BE 24 18               752 	add	a,#_hash
   02C0 F5 82               753 	mov	dpl,a
   02C2 E5*09               754 	mov	a,(_main___00040000_4_6 + 1)
   02C4 34 20               755 	addc	a,#(_hash >> 8)
   02C6 F5 83               756 	mov	dph,a
   02C8 E0                  757 	movx	a,@dptr
   02C9 F8                  758 	mov	r0,a
   02CA 8E 01               759 	mov	ar1,r6
   02CC E9                  760 	mov	a,r1
   02CD 04                  761 	inc	a
   02CE 24 18               762 	add	a,#_hash
   02D0 F5 82               763 	mov	dpl,a
   02D2 E4                  764 	clr	a
   02D3 34 20               765 	addc	a,#(_hash >> 8)
   02D5 F5 83               766 	mov	dph,a
   02D7 E0                  767 	movx	a,@dptr
   02D8 F9                  768 	mov	r1,a
   02D9 62 00               769 	xrl	ar0,a
   02DB 85*0A 82            770 	mov	dpl,_main_sloc0_1_0
   02DE 85*0B 83            771 	mov	dph,(_main_sloc0_1_0 + 1)
   02E1 E8                  772 	mov	a,r0
   02E2 F0                  773 	movx	@dptr,a
   02E3 80 C2               774 	sjmp	00102$
   02E5                     775 00119$:
                            776 ;	main.c:219: for (i = 0; i < 8; i++)
   02E5 0C                  777 	inc	r4
   02E6 BC 00 01            778 	cjne	r4,#0x00,00161$
   02E9 0D                  779 	inc	r5
   02EA                     780 00161$:
   02EA 8C 02               781 	mov	ar2,r4
   02EC 8D 03               782 	mov	ar3,r5
   02EE 02s02r65            783 	ljmp	00117$
                            784 ;	main.c:231: for (i = 0; i < 8; i++)
   02F1                     785 00143$:
   02F1 7A 00               786 	mov	r2,#0x00
   02F3 7B 00               787 	mov	r3,#0x00
   02F5                     788 00121$:
   02F5 C3                  789 	clr	c
   02F6 EA                  790 	mov	a,r2
   02F7 94 08               791 	subb	a,#0x08
   02F9 EB                  792 	mov	a,r3
   02FA 64 80               793 	xrl	a,#0x80
   02FC 94 80               794 	subb	a,#0x80
   02FE 50 13               795 	jnc	00124$
                            796 ;	main.c:232: hash[i] = 0;
   0300 EA                  797 	mov	a,r2
   0301 24 18               798 	add	a,#_hash
   0303 F5 82               799 	mov	dpl,a
   0305 EB                  800 	mov	a,r3
   0306 34 20               801 	addc	a,#(_hash >> 8)
   0308 F5 83               802 	mov	dph,a
   030A E4                  803 	clr	a
   030B F0                  804 	movx	@dptr,a
                            805 ;	main.c:231: for (i = 0; i < 8; i++)
   030C 0A                  806 	inc	r2
   030D BA 00 E5            807 	cjne	r2,#0x00,00121$
   0310 0B                  808 	inc	r3
   0311 80 E2               809 	sjmp	00121$
   0313                     810 00124$:
                            811 ;	main.c:241: hash_memory(0, 0x22c0);
   0313 75*00 C0            812 	mov	_hash_memory_PARM_2,#0xC0
   0316 75*01 22            813 	mov	(_hash_memory_PARM_2 + 1),#0x22
   0319 75*02 00            814 	mov	(_hash_memory_PARM_2 + 2),#0x00
   031C 75*03 00            815 	mov	(_hash_memory_PARM_2 + 3),#0x00
   031F 90 00 00            816 	mov	dptr,#(0x00&0x00ff)
   0322 E4                  817 	clr	a
   0323 F5 F0               818 	mov	b,a
   0325 12s00r00            819 	lcall	_hash_memory
                            820 ;	main.c:242: hash_memory(0x6780, 0x140);
   0328 75*00 40            821 	mov	_hash_memory_PARM_2,#0x40
   032B 75*01 01            822 	mov	(_hash_memory_PARM_2 + 1),#0x01
   032E 75*02 00            823 	mov	(_hash_memory_PARM_2 + 2),#0x00
   0331 75*03 00            824 	mov	(_hash_memory_PARM_2 + 3),#0x00
   0334 90 67 80            825 	mov	dptr,#0x6780
   0337 E4                  826 	clr	a
   0338 F5 F0               827 	mov	b,a
   033A 12s00r00            828 	lcall	_hash_memory
                            829 ;	main.c:243: hash_memory(0x10000, 0x2EDC8);
   033D 75*00 C8            830 	mov	_hash_memory_PARM_2,#0xC8
   0340 75*01 ED            831 	mov	(_hash_memory_PARM_2 + 1),#0xED
   0343 75*02 02            832 	mov	(_hash_memory_PARM_2 + 2),#0x02
   0346 75*03 00            833 	mov	(_hash_memory_PARM_2 + 3),#0x00
   0349 90 00 00            834 	mov	dptr,#0x0000
   034C 75 F0 01            835 	mov	b,#0x01
   034F E4                  836 	clr	a
   0350 12s00r00            837 	lcall	_hash_memory
                            838 ;	main.c:244: hash_memory(0x3ee00, 0x215384);
   0353 75*00 84            839 	mov	_hash_memory_PARM_2,#0x84
   0356 75*01 53            840 	mov	(_hash_memory_PARM_2 + 1),#0x53
   0359 75*02 21            841 	mov	(_hash_memory_PARM_2 + 2),#0x21
   035C 75*03 00            842 	mov	(_hash_memory_PARM_2 + 3),#0x00
   035F 90 EE 00            843 	mov	dptr,#0xEE00
   0362 75 F0 03            844 	mov	b,#0x03
   0365 E4                  845 	clr	a
   0366 12s00r00            846 	lcall	_hash_memory
                            847 ;	main.c:245: hash_memory(0x254200, 0x60b0); // Read only, non x
   0369 75*00 B0            848 	mov	_hash_memory_PARM_2,#0xB0
   036C 75*01 60            849 	mov	(_hash_memory_PARM_2 + 1),#0x60
   036F 75*02 00            850 	mov	(_hash_memory_PARM_2 + 2),#0x00
   0372 75*03 00            851 	mov	(_hash_memory_PARM_2 + 3),#0x00
   0375 90 42 00            852 	mov	dptr,#0x4200
   0378 75 F0 25            853 	mov	b,#0x25
   037B E4                  854 	clr	a
   037C 12s00r00            855 	lcall	_hash_memory
                            856 ;	main.c:246: hash_memory(0x25a300, 0xc7a08); // Read only, non x
   037F 75*00 08            857 	mov	_hash_memory_PARM_2,#0x08
   0382 75*01 7A            858 	mov	(_hash_memory_PARM_2 + 1),#0x7A
   0385 75*02 0C            859 	mov	(_hash_memory_PARM_2 + 2),#0x0C
   0388 75*03 00            860 	mov	(_hash_memory_PARM_2 + 3),#0x00
   038B 90 A3 00            861 	mov	dptr,#0xA300
   038E 75 F0 25            862 	mov	b,#0x25
   0391 E4                  863 	clr	a
   0392 12s00r00            864 	lcall	_hash_memory
                            865 ;	main.c:247: hash_memory(0x644430, 0x2a1c8); // opd	
   0395 75*00 C8            866 	mov	_hash_memory_PARM_2,#0xC8
   0398 75*01 A1            867 	mov	(_hash_memory_PARM_2 + 1),#0xA1
   039B 75*02 02            868 	mov	(_hash_memory_PARM_2 + 2),#0x02
   039E 75*03 00            869 	mov	(_hash_memory_PARM_2 + 3),#0x00
   03A1 90 44 30            870 	mov	dptr,#0x4430
   03A4 75 F0 64            871 	mov	b,#0x64
   03A7 E4                  872 	clr	a
   03A8 12s00r00            873 	lcall	_hash_memory
                            874 ;	main.c:264: address =  vm_saved_param1_low;	
   03AB 90 7A 00            875 	mov	dptr,#_vm_saved_param1_low
   03AE E0                  876 	movx	a,@dptr
   03AF F5*00               877 	mov	_main_address_1_1,a
   03B1 A3                  878 	inc	dptr
   03B2 E0                  879 	movx	a,@dptr
   03B3 F5*01               880 	mov	(_main_address_1_1 + 1),a
   03B5 A3                  881 	inc	dptr
   03B6 E0                  882 	movx	a,@dptr
   03B7 F5*02               883 	mov	(_main_address_1_1 + 2),a
   03B9 A3                  884 	inc	dptr
   03BA E0                  885 	movx	a,@dptr
   03BB F5*03               886 	mov	(_main_address_1_1 + 3),a
                            887 ;	main.c:266: args_addr = ((uint32_t)hash[2] << 24) | ((uint32_t)hash[5] << 16) | ((uint32_t)hash[1] << 8) | hash[4];
   03BD 90 20 1A            888 	mov	dptr,#(_hash + 0x0002)
   03C0 E0                  889 	movx	a,@dptr
   03C1 FD                  890 	mov	r5,a
   03C2 7A 00               891 	mov	r2,#0x00
   03C4 7B 00               892 	mov	r3,#0x00
   03C6 7C 00               893 	mov	r4,#0x00
   03C8 90 20 1D            894 	mov	dptr,#(_hash + 0x0005)
   03CB E0                  895 	movx	a,@dptr
   03CC FE                  896 	mov	r6,a
   03CD 7F 00               897 	mov	r7,#0x00
   03CF 8F 01               898 	mov	ar1,r7
   03D1 8E 00               899 	mov	ar0,r6
   03D3 E4                  900 	clr	a
   03D4 FF                  901 	mov	r7,a
   03D5 42 02               902 	orl	ar2,a
   03D7 EF                  903 	mov	a,r7
   03D8 42 03               904 	orl	ar3,a
   03DA E8                  905 	mov	a,r0
   03DB 42 04               906 	orl	ar4,a
   03DD E9                  907 	mov	a,r1
   03DE 42 05               908 	orl	ar5,a
   03E0 90 20 19            909 	mov	dptr,#(_hash + 0x0001)
   03E3 E0                  910 	movx	a,@dptr
   03E4 FE                  911 	mov	r6,a
   03E5 7F 00               912 	mov	r7,#0x00
   03E7 78 00               913 	mov	r0,#0x00
   03E9 88 01               914 	mov	ar1,r0
   03EB 8F 00               915 	mov	ar0,r7
   03ED 8E 07               916 	mov	ar7,r6
   03EF E4                  917 	clr	a
   03F0 42 02               918 	orl	ar2,a
   03F2 EF                  919 	mov	a,r7
   03F3 42 03               920 	orl	ar3,a
   03F5 E8                  921 	mov	a,r0
   03F6 42 04               922 	orl	ar4,a
   03F8 E9                  923 	mov	a,r1
   03F9 42 05               924 	orl	ar5,a
   03FB 90 20 1C            925 	mov	dptr,#(_hash + 0x0004)
   03FE E0                  926 	movx	a,@dptr
   03FF FE                  927 	mov	r6,a
   0400 7F 00               928 	mov	r7,#0x00
   0402 78 00               929 	mov	r0,#0x00
   0404 79 00               930 	mov	r1,#0x00
   0406 90 20 20            931 	mov	dptr,#_args_addr
   0409 EE                  932 	mov	a,r6
   040A 4A                  933 	orl	a,r2
   040B F0                  934 	movx	@dptr,a
   040C EF                  935 	mov	a,r7
   040D 4B                  936 	orl	a,r3
   040E A3                  937 	inc	dptr
   040F F0                  938 	movx	@dptr,a
   0410 E8                  939 	mov	a,r0
   0411 4C                  940 	orl	a,r4
   0412 A3                  941 	inc	dptr
   0413 F0                  942 	movx	@dptr,a
   0414 E9                  943 	mov	a,r1
   0415 4D                  944 	orl	a,r5
   0416 A3                  945 	inc	dptr
   0417 F0                  946 	movx	@dptr,a
                            947 ;	main.c:267: args_addr ^= ARGS_ADDR_KEY;
   0418 90 20 20            948 	mov	dptr,#_args_addr
   041B E0                  949 	movx	a,@dptr
   041C FA                  950 	mov	r2,a
   041D A3                  951 	inc	dptr
   041E E0                  952 	movx	a,@dptr
   041F FB                  953 	mov	r3,a
   0420 A3                  954 	inc	dptr
   0421 E0                  955 	movx	a,@dptr
   0422 FC                  956 	mov	r4,a
   0423 A3                  957 	inc	dptr
   0424 E0                  958 	movx	a,@dptr
   0425 FD                  959 	mov	r5,a
   0426 90 20 20            960 	mov	dptr,#_args_addr
   0429 74 E8               961 	mov	a,#0xE8
   042B 6A                  962 	xrl	a,r2
   042C F0                  963 	movx	@dptr,a
   042D 74 97               964 	mov	a,#0x97
   042F 6B                  965 	xrl	a,r3
   0430 A3                  966 	inc	dptr
   0431 F0                  967 	movx	@dptr,a
   0432 74 CC               968 	mov	a,#0xCC
   0434 6C                  969 	xrl	a,r4
   0435 A3                  970 	inc	dptr
   0436 F0                  971 	movx	@dptr,a
   0437 74 90               972 	mov	a,#0x90
   0439 6D                  973 	xrl	a,r5
   043A A3                  974 	inc	dptr
   043B F0                  975 	movx	@dptr,a
                            976 ;	main.c:268: dec_IV[0] = hash[3];
   043C 90 20 1B            977 	mov	dptr,#(_hash + 0x0003)
   043F E0                  978 	movx	a,@dptr
   0440 90 20 10            979 	mov	dptr,#_dec_IV
   0443 F0                  980 	movx	@dptr,a
                            981 ;	main.c:269: dec_IV[1] = (address>>8)&0xFF;
   0444 AA*01               982 	mov	r2,(_main_address_1_1 + 1)
   0446 90 20 11            983 	mov	dptr,#(_dec_IV + 0x0001)
   0449 EA                  984 	mov	a,r2
   044A F0                  985 	movx	@dptr,a
                            986 ;	main.c:270: dec_IV[2] = (address>>24)&0xFF;
   044B AA*03               987 	mov	r2,(_main_address_1_1 + 3)
   044D 90 20 12            988 	mov	dptr,#(_dec_IV + 0x0002)
   0450 EA                  989 	mov	a,r2
   0451 F0                  990 	movx	@dptr,a
                            991 ;	main.c:271: dec_IV[3] = hash[6];
   0452 90 20 1E            992 	mov	dptr,#(_hash + 0x0006)
   0455 E0                  993 	movx	a,@dptr
   0456 90 20 13            994 	mov	dptr,#(_dec_IV + 0x0003)
   0459 F0                  995 	movx	@dptr,a
                            996 ;	main.c:272: dec_IV[4] = address&0xFF;
   045A AA*00               997 	mov	r2,_main_address_1_1
   045C 7B 00               998 	mov	r3,#0x00
   045E 7C 00               999 	mov	r4,#0x00
   0460 7D 00              1000 	mov	r5,#0x00
   0462 90 20 14           1001 	mov	dptr,#(_dec_IV + 0x0004)
   0465 EA                 1002 	mov	a,r2
   0466 F0                 1003 	movx	@dptr,a
                           1004 ;	main.c:273: dec_IV[5] = hash[0];	
   0467 90 20 18           1005 	mov	dptr,#_hash
   046A E0                 1006 	movx	a,@dptr
   046B 90 20 15           1007 	mov	dptr,#(_dec_IV + 0x0005)
   046E F0                 1008 	movx	@dptr,a
                           1009 ;	main.c:274: dec_IV[6] = (address>>16)&0xFF;
   046F AA*02              1010 	mov	r2,(_main_address_1_1 + 2)
   0471 90 20 16           1011 	mov	dptr,#(_dec_IV + 0x0006)
   0474 EA                 1012 	mov	a,r2
   0475 F0                 1013 	movx	@dptr,a
                           1014 ;	main.c:275: dec_IV[7] = hash[7];	
   0476 90 20 1F           1015 	mov	dptr,#(_hash + 0x0007)
   0479 E0                 1016 	movx	a,@dptr
   047A FA                 1017 	mov	r2,a
   047B 90 20 17           1018 	mov	dptr,#(_dec_IV + 0x0007)
   047E F0                 1019 	movx	@dptr,a
                           1020 ;	main.c:293: for (i = 7; i >= 1; i--)
   047F 75*04 07           1021 	mov	_main_i_1_1,#0x07
   0482 E4                 1022 	clr	a
   0483 F5*05              1023 	mov	(_main_i_1_1 + 1),a
   0485                    1024 00125$:
   0485 C3                 1025 	clr	c
   0486 E5*04              1026 	mov	a,_main_i_1_1
   0488 94 01              1027 	subb	a,#0x01
   048A E5*05              1028 	mov	a,(_main_i_1_1 + 1)
   048C 64 80              1029 	xrl	a,#0x80
   048E 94 80              1030 	subb	a,#0x80
   0490 40 73              1031 	jc	00128$
                           1032 ;	main.c:295: READ_PS3(args_addr+(0x4d9-1)+i, &dec_key[i]);	
   0492 90 20 20           1033 	mov	dptr,#_args_addr
   0495 E0                 1034 	movx	a,@dptr
   0496 FC                 1035 	mov	r4,a
   0497 A3                 1036 	inc	dptr
   0498 E0                 1037 	movx	a,@dptr
   0499 FD                 1038 	mov	r5,a
   049A A3                 1039 	inc	dptr
   049B E0                 1040 	movx	a,@dptr
   049C FE                 1041 	mov	r6,a
   049D A3                 1042 	inc	dptr
   049E E0                 1043 	movx	a,@dptr
   049F FF                 1044 	mov	r7,a
   04A0 74 D8              1045 	mov	a,#0xD8
   04A2 2C                 1046 	add	a,r4
   04A3 FC                 1047 	mov	r4,a
   04A4 74 04              1048 	mov	a,#0x04
   04A6 3D                 1049 	addc	a,r5
   04A7 FD                 1050 	mov	r5,a
   04A8 E4                 1051 	clr	a
   04A9 3E                 1052 	addc	a,r6
   04AA FE                 1053 	mov	r6,a
   04AB E4                 1054 	clr	a
   04AC 3F                 1055 	addc	a,r7
   04AD FF                 1056 	mov	r7,a
   04AE A8*04              1057 	mov	r0,_main_i_1_1
   04B0 E5*05              1058 	mov	a,(_main_i_1_1 + 1)
   04B2 F9                 1059 	mov	r1,a
   04B3 33                 1060 	rlc	a
   04B4 95 E0              1061 	subb	a,acc
   04B6 FA                 1062 	mov	r2,a
   04B7 FB                 1063 	mov	r3,a
   04B8 90 70 20           1064 	mov	dptr,#_ps3_address
   04BB E8                 1065 	mov	a,r0
   04BC 2C                 1066 	add	a,r4
   04BD F0                 1067 	movx	@dptr,a
   04BE E9                 1068 	mov	a,r1
   04BF 3D                 1069 	addc	a,r5
   04C0 A3                 1070 	inc	dptr
   04C1 F0                 1071 	movx	@dptr,a
   04C2 EA                 1072 	mov	a,r2
   04C3 3E                 1073 	addc	a,r6
   04C4 A3                 1074 	inc	dptr
   04C5 F0                 1075 	movx	@dptr,a
   04C6 EB                 1076 	mov	a,r3
   04C7 3F                 1077 	addc	a,r7
   04C8 A3                 1078 	inc	dptr
   04C9 F0                 1079 	movx	@dptr,a
   04CA AA*04              1080 	mov	r2,_main_i_1_1
   04CC 74 20              1081 	mov	a,#(_dec_key >> 8)
   04CE 25*05              1082 	add	a,(_main_i_1_1 + 1)
   04D0 FB                 1083 	mov	r3,a
   04D1 90 72 00           1084 	mov	dptr,#_ps3_ram
   04D4 E0                 1085 	movx	a,@dptr
   04D5 8A 82              1086 	mov	dpl,r2
   04D7 8B 83              1087 	mov	dph,r3
   04D9 F0                 1088 	movx	@dptr,a
                           1089 ;	main.c:296: dec_key[i] ^= hash[0];
   04DA AA*04              1090 	mov	r2,_main_i_1_1
   04DC 74 20              1091 	mov	a,#(_dec_key >> 8)
   04DE 25*05              1092 	add	a,(_main_i_1_1 + 1)
   04E0 FB                 1093 	mov	r3,a
   04E1 85*04 82           1094 	mov	dpl,_main_i_1_1
   04E4 74 20              1095 	mov	a,#(_dec_key >> 8)
   04E6 25*05              1096 	add	a,(_main_i_1_1 + 1)
   04E8 F5 83              1097 	mov	dph,a
   04EA E0                 1098 	movx	a,@dptr
   04EB FC                 1099 	mov	r4,a
   04EC 90 20 18           1100 	mov	dptr,#_hash
   04EF E0                 1101 	movx	a,@dptr
   04F0 FD                 1102 	mov	r5,a
   04F1 62 04              1103 	xrl	ar4,a
   04F3 8A 82              1104 	mov	dpl,r2
   04F5 8B 83              1105 	mov	dph,r3
   04F7 EC                 1106 	mov	a,r4
   04F8 F0                 1107 	movx	@dptr,a
                           1108 ;	main.c:293: for (i = 7; i >= 1; i--)
   04F9 15*04              1109 	dec	_main_i_1_1
   04FB 74 FF              1110 	mov	a,#0xff
   04FD B5*04 02           1111 	cjne	a,_main_i_1_1,00164$
   0500 15*05              1112 	dec	(_main_i_1_1 + 1)
   0502                    1113 00164$:
   0502 02s04r85           1114 	ljmp	00125$
   0505                    1115 00128$:
                           1116 ;	main.c:299: for (i = 15; i >= 9; i--)
   0505 75*04 0F           1117 	mov	_main_i_1_1,#0x0F
   0508 E4                 1118 	clr	a
   0509 F5*05              1119 	mov	(_main_i_1_1 + 1),a
   050B                    1120 00129$:
   050B C3                 1121 	clr	c
   050C E5*04              1122 	mov	a,_main_i_1_1
   050E 94 09              1123 	subb	a,#0x09
   0510 E5*05              1124 	mov	a,(_main_i_1_1 + 1)
   0512 64 80              1125 	xrl	a,#0x80
   0514 94 80              1126 	subb	a,#0x80
   0516 40 73              1127 	jc	00132$
                           1128 ;	main.c:301: READ_PS3(args_addr+(0x4e9-9)+i, &dec_key[i]);
   0518 90 20 20           1129 	mov	dptr,#_args_addr
   051B E0                 1130 	movx	a,@dptr
   051C FC                 1131 	mov	r4,a
   051D A3                 1132 	inc	dptr
   051E E0                 1133 	movx	a,@dptr
   051F FD                 1134 	mov	r5,a
   0520 A3                 1135 	inc	dptr
   0521 E0                 1136 	movx	a,@dptr
   0522 FE                 1137 	mov	r6,a
   0523 A3                 1138 	inc	dptr
   0524 E0                 1139 	movx	a,@dptr
   0525 FF                 1140 	mov	r7,a
   0526 74 E0              1141 	mov	a,#0xE0
   0528 2C                 1142 	add	a,r4
   0529 FC                 1143 	mov	r4,a
   052A 74 04              1144 	mov	a,#0x04
   052C 3D                 1145 	addc	a,r5
   052D FD                 1146 	mov	r5,a
   052E E4                 1147 	clr	a
   052F 3E                 1148 	addc	a,r6
   0530 FE                 1149 	mov	r6,a
   0531 E4                 1150 	clr	a
   0532 3F                 1151 	addc	a,r7
   0533 FF                 1152 	mov	r7,a
   0534 A8*04              1153 	mov	r0,_main_i_1_1
   0536 E5*05              1154 	mov	a,(_main_i_1_1 + 1)
   0538 F9                 1155 	mov	r1,a
   0539 33                 1156 	rlc	a
   053A 95 E0              1157 	subb	a,acc
   053C FA                 1158 	mov	r2,a
   053D FB                 1159 	mov	r3,a
   053E 90 70 20           1160 	mov	dptr,#_ps3_address
   0541 E8                 1161 	mov	a,r0
   0542 2C                 1162 	add	a,r4
   0543 F0                 1163 	movx	@dptr,a
   0544 E9                 1164 	mov	a,r1
   0545 3D                 1165 	addc	a,r5
   0546 A3                 1166 	inc	dptr
   0547 F0                 1167 	movx	@dptr,a
   0548 EA                 1168 	mov	a,r2
   0549 3E                 1169 	addc	a,r6
   054A A3                 1170 	inc	dptr
   054B F0                 1171 	movx	@dptr,a
   054C EB                 1172 	mov	a,r3
   054D 3F                 1173 	addc	a,r7
   054E A3                 1174 	inc	dptr
   054F F0                 1175 	movx	@dptr,a
   0550 AA*04              1176 	mov	r2,_main_i_1_1
   0552 74 20              1177 	mov	a,#(_dec_key >> 8)
   0554 25*05              1178 	add	a,(_main_i_1_1 + 1)
   0556 FB                 1179 	mov	r3,a
   0557 90 72 00           1180 	mov	dptr,#_ps3_ram
   055A E0                 1181 	movx	a,@dptr
   055B 8A 82              1182 	mov	dpl,r2
   055D 8B 83              1183 	mov	dph,r3
   055F F0                 1184 	movx	@dptr,a
                           1185 ;	main.c:302: dec_key[i] ^= hash[3];
   0560 AA*04              1186 	mov	r2,_main_i_1_1
   0562 74 20              1187 	mov	a,#(_dec_key >> 8)
   0564 25*05              1188 	add	a,(_main_i_1_1 + 1)
   0566 FB                 1189 	mov	r3,a
   0567 85*04 82           1190 	mov	dpl,_main_i_1_1
   056A 74 20              1191 	mov	a,#(_dec_key >> 8)
   056C 25*05              1192 	add	a,(_main_i_1_1 + 1)
   056E F5 83              1193 	mov	dph,a
   0570 E0                 1194 	movx	a,@dptr
   0571 FC                 1195 	mov	r4,a
   0572 90 20 1B           1196 	mov	dptr,#(_hash + 0x0003)
   0575 E0                 1197 	movx	a,@dptr
   0576 FD                 1198 	mov	r5,a
   0577 62 04              1199 	xrl	ar4,a
   0579 8A 82              1200 	mov	dpl,r2
   057B 8B 83              1201 	mov	dph,r3
   057D EC                 1202 	mov	a,r4
   057E F0                 1203 	movx	@dptr,a
                           1204 ;	main.c:299: for (i = 15; i >= 9; i--)
   057F 15*04              1205 	dec	_main_i_1_1
   0581 74 FF              1206 	mov	a,#0xff
   0583 B5*04 02           1207 	cjne	a,_main_i_1_1,00166$
   0586 15*05              1208 	dec	(_main_i_1_1 + 1)
   0588                    1209 00166$:
   0588 02s05r0B           1210 	ljmp	00129$
   058B                    1211 00132$:
                           1212 ;	main.c:305: dec_key[0] = dec_key[4] ^ dec_key[12];	
   058B 90 20 04           1213 	mov	dptr,#(_dec_key + 0x0004)
   058E E0                 1214 	movx	a,@dptr
   058F FA                 1215 	mov	r2,a
   0590 90 20 0C           1216 	mov	dptr,#(_dec_key + 0x000c)
   0593 E0                 1217 	movx	a,@dptr
   0594 62 02              1218 	xrl	ar2,a
   0596 90 20 00           1219 	mov	dptr,#_dec_key
   0599 EA                 1220 	mov	a,r2
   059A F0                 1221 	movx	@dptr,a
                           1222 ;	main.c:309: address = rom_addr+(uint32_t)stage2;
   059B 7Ar54              1223 	mov	r2,#_stage2
   059D 7Bs02              1224 	mov	r3,#(_stage2 >> 8)
   059F 7C 00              1225 	mov	r4,#0x00
   05A1 7D 00              1226 	mov	r5,#0x00
   05A3 90 74 04           1227 	mov	dptr,#_rom_addr
   05A6 E0                 1228 	movx	a,@dptr
   05A7 FE                 1229 	mov	r6,a
   05A8 A3                 1230 	inc	dptr
   05A9 E0                 1231 	movx	a,@dptr
   05AA FF                 1232 	mov	r7,a
   05AB A3                 1233 	inc	dptr
   05AC E0                 1234 	movx	a,@dptr
   05AD F8                 1235 	mov	r0,a
   05AE A3                 1236 	inc	dptr
   05AF E0                 1237 	movx	a,@dptr
   05B0 F9                 1238 	mov	r1,a
   05B1 EA                 1239 	mov	a,r2
   05B2 2E                 1240 	add	a,r6
   05B3 F5*00              1241 	mov	_main_address_1_1,a
   05B5 EB                 1242 	mov	a,r3
   05B6 3F                 1243 	addc	a,r7
   05B7 F5*01              1244 	mov	(_main_address_1_1 + 1),a
   05B9 EC                 1245 	mov	a,r4
   05BA 38                 1246 	addc	a,r0
   05BB F5*02              1247 	mov	(_main_address_1_1 + 2),a
   05BD ED                 1248 	mov	a,r5
   05BE 39                 1249 	addc	a,r1
   05BF F5*03              1250 	mov	(_main_address_1_1 + 3),a
                           1251 ;	main.c:310: alignment = address&0xF;
   05C1 74 0F              1252 	mov	a,#0x0F
   05C3 55*00              1253 	anl	a,_main_address_1_1
   05C5 FA                 1254 	mov	r2,a
                           1255 ;	main.c:312: if (alignment > STAGE2_ALIGNMENT)
   05C6 E4                 1256 	clr	a
   05C7 FB                 1257 	mov	r3,a
   05C8 FC                 1258 	mov	r4,a
   05C9 FD                 1259 	mov	r5,a
   05CA EA                 1260 	mov	a,r2
   05CB 24 F7              1261 	add	a,#0xff - 0x08
   05CD 50 3D              1262 	jnc	00107$
                           1263 ;	main.c:314: address = (address+0x10)-(alignment-STAGE2_ALIGNMENT);
   05CF 74 10              1264 	mov	a,#0x10
   05D1 25*00              1265 	add	a,_main_address_1_1
   05D3 F5*0C              1266 	mov	_main_sloc1_1_0,a
   05D5 E4                 1267 	clr	a
   05D6 35*01              1268 	addc	a,(_main_address_1_1 + 1)
   05D8 F5*0D              1269 	mov	(_main_sloc1_1_0 + 1),a
   05DA E4                 1270 	clr	a
   05DB 35*02              1271 	addc	a,(_main_address_1_1 + 2)
   05DD F5*0E              1272 	mov	(_main_sloc1_1_0 + 2),a
   05DF E4                 1273 	clr	a
   05E0 35*03              1274 	addc	a,(_main_address_1_1 + 3)
   05E2 F5*0F              1275 	mov	(_main_sloc1_1_0 + 3),a
   05E4 8A 07              1276 	mov	ar7,r2
   05E6 78 00              1277 	mov	r0,#0x00
   05E8 EF                 1278 	mov	a,r7
   05E9 24 F8              1279 	add	a,#0xf8
   05EB FF                 1280 	mov	r7,a
   05EC E8                 1281 	mov	a,r0
   05ED 34 FF              1282 	addc	a,#0xff
   05EF F8                 1283 	mov	r0,a
   05F0 33                 1284 	rlc	a
   05F1 95 E0              1285 	subb	a,acc
   05F3 F9                 1286 	mov	r1,a
   05F4 FB                 1287 	mov	r3,a
   05F5 E5*0C              1288 	mov	a,_main_sloc1_1_0
   05F7 C3                 1289 	clr	c
   05F8 9F                 1290 	subb	a,r7
   05F9 F5*00              1291 	mov	_main_address_1_1,a
   05FB E5*0D              1292 	mov	a,(_main_sloc1_1_0 + 1)
   05FD 98                 1293 	subb	a,r0
   05FE F5*01              1294 	mov	(_main_address_1_1 + 1),a
   0600 E5*0E              1295 	mov	a,(_main_sloc1_1_0 + 2)
   0602 99                 1296 	subb	a,r1
   0603 F5*02              1297 	mov	(_main_address_1_1 + 2),a
   0605 E5*0F              1298 	mov	a,(_main_sloc1_1_0 + 3)
   0607 9B                 1299 	subb	a,r3
   0608 F5*03              1300 	mov	(_main_address_1_1 + 3),a
   060A 80 23              1301 	sjmp	00108$
   060C                    1302 00107$:
                           1303 ;	main.c:318: address = address+(STAGE2_ALIGNMENT-alignment);
   060C 7B 00              1304 	mov	r3,#0x00
   060E 74 08              1305 	mov	a,#0x08
   0610 C3                 1306 	clr	c
   0611 9A                 1307 	subb	a,r2
   0612 FA                 1308 	mov	r2,a
   0613 E4                 1309 	clr	a
   0614 9B                 1310 	subb	a,r3
   0615 FB                 1311 	mov	r3,a
   0616 33                 1312 	rlc	a
   0617 95 E0              1313 	subb	a,acc
   0619 FC                 1314 	mov	r4,a
   061A FD                 1315 	mov	r5,a
   061B EA                 1316 	mov	a,r2
   061C 25*00              1317 	add	a,_main_address_1_1
   061E F5*00              1318 	mov	_main_address_1_1,a
   0620 EB                 1319 	mov	a,r3
   0621 35*01              1320 	addc	a,(_main_address_1_1 + 1)
   0623 F5*01              1321 	mov	(_main_address_1_1 + 1),a
   0625 EC                 1322 	mov	a,r4
   0626 35*02              1323 	addc	a,(_main_address_1_1 + 2)
   0628 F5*02              1324 	mov	(_main_address_1_1 + 2),a
   062A ED                 1325 	mov	a,r5
   062B 35*03              1326 	addc	a,(_main_address_1_1 + 3)
   062D F5*03              1327 	mov	(_main_address_1_1 + 3),a
   062F                    1328 00108$:
                           1329 ;	main.c:321: ps3_param1_low = xram_addr+DEC_KEY; // key
   062F 90 74 00           1330 	mov	dptr,#_xram_addr
   0632 E0                 1331 	movx	a,@dptr
   0633 FA                 1332 	mov	r2,a
   0634 A3                 1333 	inc	dptr
   0635 E0                 1334 	movx	a,@dptr
   0636 FB                 1335 	mov	r3,a
   0637 A3                 1336 	inc	dptr
   0638 E0                 1337 	movx	a,@dptr
   0639 FC                 1338 	mov	r4,a
   063A A3                 1339 	inc	dptr
   063B E0                 1340 	movx	a,@dptr
   063C FD                 1341 	mov	r5,a
   063D 90 70 30           1342 	mov	dptr,#_ps3_param1_low
   0640 EA                 1343 	mov	a,r2
   0641 F0                 1344 	movx	@dptr,a
   0642 74 20              1345 	mov	a,#0x20
   0644 2B                 1346 	add	a,r3
   0645 A3                 1347 	inc	dptr
   0646 F0                 1348 	movx	@dptr,a
   0647 E4                 1349 	clr	a
   0648 3C                 1350 	addc	a,r4
   0649 A3                 1351 	inc	dptr
   064A F0                 1352 	movx	@dptr,a
   064B E4                 1353 	clr	a
   064C 3D                 1354 	addc	a,r5
   064D A3                 1355 	inc	dptr
   064E F0                 1356 	movx	@dptr,a
                           1357 ;	main.c:322: ps3_param2_low = xram_addr+DEC_IV; // IV
   064F 90 74 00           1358 	mov	dptr,#_xram_addr
   0652 E0                 1359 	movx	a,@dptr
   0653 FA                 1360 	mov	r2,a
   0654 A3                 1361 	inc	dptr
   0655 E0                 1362 	movx	a,@dptr
   0656 FB                 1363 	mov	r3,a
   0657 A3                 1364 	inc	dptr
   0658 E0                 1365 	movx	a,@dptr
   0659 FC                 1366 	mov	r4,a
   065A A3                 1367 	inc	dptr
   065B E0                 1368 	movx	a,@dptr
   065C FD                 1369 	mov	r5,a
   065D 90 70 38           1370 	mov	dptr,#_ps3_param2_low
   0660 74 10              1371 	mov	a,#0x10
   0662 2A                 1372 	add	a,r2
   0663 F0                 1373 	movx	@dptr,a
   0664 74 20              1374 	mov	a,#0x20
   0666 3B                 1375 	addc	a,r3
   0667 A3                 1376 	inc	dptr
   0668 F0                 1377 	movx	@dptr,a
   0669 E4                 1378 	clr	a
   066A 3C                 1379 	addc	a,r4
   066B A3                 1380 	inc	dptr
   066C F0                 1381 	movx	@dptr,a
   066D E4                 1382 	clr	a
   066E 3D                 1383 	addc	a,r5
   066F A3                 1384 	inc	dptr
   0670 F0                 1385 	movx	@dptr,a
                           1386 ;	main.c:323: ps3_param3_low = rom_addr+(uint32_t)stage2+0x20; // input
   0671 7Ar54              1387 	mov	r2,#_stage2
   0673 7Bs02              1388 	mov	r3,#(_stage2 >> 8)
   0675 7C 00              1389 	mov	r4,#0x00
   0677 7D 00              1390 	mov	r5,#0x00
   0679 90 74 04           1391 	mov	dptr,#_rom_addr
   067C E0                 1392 	movx	a,@dptr
   067D FE                 1393 	mov	r6,a
   067E A3                 1394 	inc	dptr
   067F E0                 1395 	movx	a,@dptr
   0680 FF                 1396 	mov	r7,a
   0681 A3                 1397 	inc	dptr
   0682 E0                 1398 	movx	a,@dptr
   0683 F8                 1399 	mov	r0,a
   0684 A3                 1400 	inc	dptr
   0685 E0                 1401 	movx	a,@dptr
   0686 F9                 1402 	mov	r1,a
   0687 EA                 1403 	mov	a,r2
   0688 2E                 1404 	add	a,r6
   0689 FA                 1405 	mov	r2,a
   068A EB                 1406 	mov	a,r3
   068B 3F                 1407 	addc	a,r7
   068C FB                 1408 	mov	r3,a
   068D EC                 1409 	mov	a,r4
   068E 38                 1410 	addc	a,r0
   068F FC                 1411 	mov	r4,a
   0690 ED                 1412 	mov	a,r5
   0691 39                 1413 	addc	a,r1
   0692 FD                 1414 	mov	r5,a
   0693 90 70 40           1415 	mov	dptr,#_ps3_param3_low
   0696 74 20              1416 	mov	a,#0x20
   0698 2A                 1417 	add	a,r2
   0699 F0                 1418 	movx	@dptr,a
   069A E4                 1419 	clr	a
   069B 3B                 1420 	addc	a,r3
   069C A3                 1421 	inc	dptr
   069D F0                 1422 	movx	@dptr,a
   069E E4                 1423 	clr	a
   069F 3C                 1424 	addc	a,r4
   06A0 A3                 1425 	inc	dptr
   06A1 F0                 1426 	movx	@dptr,a
   06A2 E4                 1427 	clr	a
   06A3 3D                 1428 	addc	a,r5
   06A4 A3                 1429 	inc	dptr
   06A5 F0                 1430 	movx	@dptr,a
                           1431 ;	main.c:324: ps3_param4_low = address; //output
   06A6 90 70 48           1432 	mov	dptr,#_ps3_param4_low
   06A9 E5*00              1433 	mov	a,_main_address_1_1
   06AB F0                 1434 	movx	@dptr,a
   06AC A3                 1435 	inc	dptr
   06AD E5*01              1436 	mov	a,(_main_address_1_1 + 1)
   06AF F0                 1437 	movx	@dptr,a
   06B0 A3                 1438 	inc	dptr
   06B1 E5*02              1439 	mov	a,(_main_address_1_1 + 2)
   06B3 F0                 1440 	movx	@dptr,a
   06B4 A3                 1441 	inc	dptr
   06B5 E5*03              1442 	mov	a,(_main_address_1_1 + 3)
   06B7 F0                 1443 	movx	@dptr,a
                           1444 ;	main.c:325: ps3_param5_low = sizeof(stage2)-0x20; // size
   06B8 90 70 50           1445 	mov	dptr,#_ps3_param5_low
   06BB 74 08              1446 	mov	a,#0x08
   06BD F0                 1447 	movx	@dptr,a
   06BE A3                 1448 	inc	dptr
   06BF 74 2D              1449 	mov	a,#0x2D
   06C1 F0                 1450 	movx	@dptr,a
   06C2 A3                 1451 	inc	dptr
   06C3 E4                 1452 	clr	a
   06C4 F0                 1453 	movx	@dptr,a
   06C5 A3                 1454 	inc	dptr
   06C6 F0                 1455 	movx	@dptr,a
                           1456 ;	main.c:326: ps3_address = xtea_cbc_decrypt;
   06C7 90 10 04           1457 	mov	dptr,#_xtea_cbc_decrypt
   06CA E0                 1458 	movx	a,@dptr
   06CB FA                 1459 	mov	r2,a
   06CC A3                 1460 	inc	dptr
   06CD E0                 1461 	movx	a,@dptr
   06CE FB                 1462 	mov	r3,a
   06CF A3                 1463 	inc	dptr
   06D0 E0                 1464 	movx	a,@dptr
   06D1 FC                 1465 	mov	r4,a
   06D2 A3                 1466 	inc	dptr
   06D3 E0                 1467 	movx	a,@dptr
   06D4 FD                 1468 	mov	r5,a
   06D5 90 70 20           1469 	mov	dptr,#_ps3_address
   06D8 EA                 1470 	mov	a,r2
   06D9 F0                 1471 	movx	@dptr,a
   06DA A3                 1472 	inc	dptr
   06DB EB                 1473 	mov	a,r3
   06DC F0                 1474 	movx	@dptr,a
   06DD A3                 1475 	inc	dptr
   06DE EC                 1476 	mov	a,r4
   06DF F0                 1477 	movx	@dptr,a
   06E0 A3                 1478 	inc	dptr
   06E1 ED                 1479 	mov	a,r5
   06E2 F0                 1480 	movx	@dptr,a
                           1481 ;	main.c:327: ps3_call = 1;
   06E3 90 73 00           1482 	mov	dptr,#_ps3_call
   06E6 74 01              1483 	mov	a,#0x01
   06E8 F0                 1484 	movx	@dptr,a
                           1485 ;	main.c:330: ps3_param1_low = address;
   06E9 90 70 30           1486 	mov	dptr,#_ps3_param1_low
   06EC E5*00              1487 	mov	a,_main_address_1_1
   06EE F0                 1488 	movx	@dptr,a
   06EF A3                 1489 	inc	dptr
   06F0 E5*01              1490 	mov	a,(_main_address_1_1 + 1)
   06F2 F0                 1491 	movx	@dptr,a
   06F3 A3                 1492 	inc	dptr
   06F4 E5*02              1493 	mov	a,(_main_address_1_1 + 2)
   06F6 F0                 1494 	movx	@dptr,a
   06F7 A3                 1495 	inc	dptr
   06F8 E5*03              1496 	mov	a,(_main_address_1_1 + 3)
   06FA F0                 1497 	movx	@dptr,a
                           1498 ;	main.c:331: ps3_param2_low = sizeof(stage2)-0x20;
   06FB 90 70 38           1499 	mov	dptr,#_ps3_param2_low
   06FE 74 08              1500 	mov	a,#0x08
   0700 F0                 1501 	movx	@dptr,a
   0701 A3                 1502 	inc	dptr
   0702 74 2D              1503 	mov	a,#0x2D
   0704 F0                 1504 	movx	@dptr,a
   0705 A3                 1505 	inc	dptr
   0706 E4                 1506 	clr	a
   0707 F0                 1507 	movx	@dptr,a
   0708 A3                 1508 	inc	dptr
   0709 F0                 1509 	movx	@dptr,a
                           1510 ;	main.c:332: ps3_address = clear_icache_symbol;
   070A 90 70 20           1511 	mov	dptr,#_ps3_address
   070D 74 44              1512 	mov	a,#0x44
   070F F0                 1513 	movx	@dptr,a
   0710 A3                 1514 	inc	dptr
   0711 74 CA              1515 	mov	a,#0xCA
   0713 F0                 1516 	movx	@dptr,a
   0714 A3                 1517 	inc	dptr
   0715 74 08              1518 	mov	a,#0x08
   0717 F0                 1519 	movx	@dptr,a
   0718 A3                 1520 	inc	dptr
   0719 E4                 1521 	clr	a
   071A F0                 1522 	movx	@dptr,a
                           1523 ;	main.c:333: ps3_call = 1;
   071B 90 73 00           1524 	mov	dptr,#_ps3_call
   071E 74 01              1525 	mov	a,#0x01
   0720 F0                 1526 	movx	@dptr,a
                           1527 ;	main.c:335: ps3_param1_low = vm_saved_param1_low;
   0721 90 7A 00           1528 	mov	dptr,#_vm_saved_param1_low
   0724 E0                 1529 	movx	a,@dptr
   0725 FA                 1530 	mov	r2,a
   0726 A3                 1531 	inc	dptr
   0727 E0                 1532 	movx	a,@dptr
   0728 FB                 1533 	mov	r3,a
   0729 A3                 1534 	inc	dptr
   072A E0                 1535 	movx	a,@dptr
   072B FC                 1536 	mov	r4,a
   072C A3                 1537 	inc	dptr
   072D E0                 1538 	movx	a,@dptr
   072E FD                 1539 	mov	r5,a
   072F 90 70 30           1540 	mov	dptr,#_ps3_param1_low
   0732 EA                 1541 	mov	a,r2
   0733 F0                 1542 	movx	@dptr,a
   0734 A3                 1543 	inc	dptr
   0735 EB                 1544 	mov	a,r3
   0736 F0                 1545 	movx	@dptr,a
   0737 A3                 1546 	inc	dptr
   0738 EC                 1547 	mov	a,r4
   0739 F0                 1548 	movx	@dptr,a
   073A A3                 1549 	inc	dptr
   073B ED                 1550 	mov	a,r5
   073C F0                 1551 	movx	@dptr,a
                           1552 ;	main.c:336: ps3_param1_high = vm_saved_param1_high;
   073D 90 7A 04           1553 	mov	dptr,#_vm_saved_param1_high
   0740 E0                 1554 	movx	a,@dptr
   0741 FA                 1555 	mov	r2,a
   0742 A3                 1556 	inc	dptr
   0743 E0                 1557 	movx	a,@dptr
   0744 FB                 1558 	mov	r3,a
   0745 A3                 1559 	inc	dptr
   0746 E0                 1560 	movx	a,@dptr
   0747 FC                 1561 	mov	r4,a
   0748 A3                 1562 	inc	dptr
   0749 E0                 1563 	movx	a,@dptr
   074A FD                 1564 	mov	r5,a
   074B 90 70 34           1565 	mov	dptr,#_ps3_param1_high
   074E EA                 1566 	mov	a,r2
   074F F0                 1567 	movx	@dptr,a
   0750 A3                 1568 	inc	dptr
   0751 EB                 1569 	mov	a,r3
   0752 F0                 1570 	movx	@dptr,a
   0753 A3                 1571 	inc	dptr
   0754 EC                 1572 	mov	a,r4
   0755 F0                 1573 	movx	@dptr,a
   0756 A3                 1574 	inc	dptr
   0757 ED                 1575 	mov	a,r5
   0758 F0                 1576 	movx	@dptr,a
                           1577 ;	main.c:337: ps3_param2_low = vm_saved_param2_low;
   0759 90 7B 00           1578 	mov	dptr,#_vm_saved_param2_low
   075C E0                 1579 	movx	a,@dptr
   075D FA                 1580 	mov	r2,a
   075E A3                 1581 	inc	dptr
   075F E0                 1582 	movx	a,@dptr
   0760 FB                 1583 	mov	r3,a
   0761 A3                 1584 	inc	dptr
   0762 E0                 1585 	movx	a,@dptr
   0763 FC                 1586 	mov	r4,a
   0764 A3                 1587 	inc	dptr
   0765 E0                 1588 	movx	a,@dptr
   0766 FD                 1589 	mov	r5,a
   0767 90 70 38           1590 	mov	dptr,#_ps3_param2_low
   076A EA                 1591 	mov	a,r2
   076B F0                 1592 	movx	@dptr,a
   076C A3                 1593 	inc	dptr
   076D EB                 1594 	mov	a,r3
   076E F0                 1595 	movx	@dptr,a
   076F A3                 1596 	inc	dptr
   0770 EC                 1597 	mov	a,r4
   0771 F0                 1598 	movx	@dptr,a
   0772 A3                 1599 	inc	dptr
   0773 ED                 1600 	mov	a,r5
   0774 F0                 1601 	movx	@dptr,a
                           1602 ;	main.c:338: ps3_param2_high = vm_saved_param2_high;
   0775 90 7B 04           1603 	mov	dptr,#_vm_saved_param2_high
   0778 E0                 1604 	movx	a,@dptr
   0779 FA                 1605 	mov	r2,a
   077A A3                 1606 	inc	dptr
   077B E0                 1607 	movx	a,@dptr
   077C FB                 1608 	mov	r3,a
   077D A3                 1609 	inc	dptr
   077E E0                 1610 	movx	a,@dptr
   077F FC                 1611 	mov	r4,a
   0780 A3                 1612 	inc	dptr
   0781 E0                 1613 	movx	a,@dptr
   0782 FD                 1614 	mov	r5,a
   0783 90 70 3C           1615 	mov	dptr,#_ps3_param2_high
   0786 EA                 1616 	mov	a,r2
   0787 F0                 1617 	movx	@dptr,a
   0788 A3                 1618 	inc	dptr
   0789 EB                 1619 	mov	a,r3
   078A F0                 1620 	movx	@dptr,a
   078B A3                 1621 	inc	dptr
   078C EC                 1622 	mov	a,r4
   078D F0                 1623 	movx	@dptr,a
   078E A3                 1624 	inc	dptr
   078F ED                 1625 	mov	a,r5
   0790 F0                 1626 	movx	@dptr,a
                           1627 ;	main.c:339: ps3_param3_low = vm_saved_param3_low;
   0791 90 7C 00           1628 	mov	dptr,#_vm_saved_param3_low
   0794 E0                 1629 	movx	a,@dptr
   0795 FA                 1630 	mov	r2,a
   0796 A3                 1631 	inc	dptr
   0797 E0                 1632 	movx	a,@dptr
   0798 FB                 1633 	mov	r3,a
   0799 A3                 1634 	inc	dptr
   079A E0                 1635 	movx	a,@dptr
   079B FC                 1636 	mov	r4,a
   079C A3                 1637 	inc	dptr
   079D E0                 1638 	movx	a,@dptr
   079E FD                 1639 	mov	r5,a
   079F 90 70 40           1640 	mov	dptr,#_ps3_param3_low
   07A2 EA                 1641 	mov	a,r2
   07A3 F0                 1642 	movx	@dptr,a
   07A4 A3                 1643 	inc	dptr
   07A5 EB                 1644 	mov	a,r3
   07A6 F0                 1645 	movx	@dptr,a
   07A7 A3                 1646 	inc	dptr
   07A8 EC                 1647 	mov	a,r4
   07A9 F0                 1648 	movx	@dptr,a
   07AA A3                 1649 	inc	dptr
   07AB ED                 1650 	mov	a,r5
   07AC F0                 1651 	movx	@dptr,a
                           1652 ;	main.c:340: ps3_param3_high = vm_saved_param3_high;
   07AD 90 7C 04           1653 	mov	dptr,#_vm_saved_param3_high
   07B0 E0                 1654 	movx	a,@dptr
   07B1 FA                 1655 	mov	r2,a
   07B2 A3                 1656 	inc	dptr
   07B3 E0                 1657 	movx	a,@dptr
   07B4 FB                 1658 	mov	r3,a
   07B5 A3                 1659 	inc	dptr
   07B6 E0                 1660 	movx	a,@dptr
   07B7 FC                 1661 	mov	r4,a
   07B8 A3                 1662 	inc	dptr
   07B9 E0                 1663 	movx	a,@dptr
   07BA FD                 1664 	mov	r5,a
   07BB 90 70 44           1665 	mov	dptr,#_ps3_param3_high
   07BE EA                 1666 	mov	a,r2
   07BF F0                 1667 	movx	@dptr,a
   07C0 A3                 1668 	inc	dptr
   07C1 EB                 1669 	mov	a,r3
   07C2 F0                 1670 	movx	@dptr,a
   07C3 A3                 1671 	inc	dptr
   07C4 EC                 1672 	mov	a,r4
   07C5 F0                 1673 	movx	@dptr,a
   07C6 A3                 1674 	inc	dptr
   07C7 ED                 1675 	mov	a,r5
   07C8 F0                 1676 	movx	@dptr,a
                           1677 ;	main.c:341: ps3_param4_low = vm_saved_param4_low;
   07C9 90 7D 00           1678 	mov	dptr,#_vm_saved_param4_low
   07CC E0                 1679 	movx	a,@dptr
   07CD FA                 1680 	mov	r2,a
   07CE A3                 1681 	inc	dptr
   07CF E0                 1682 	movx	a,@dptr
   07D0 FB                 1683 	mov	r3,a
   07D1 A3                 1684 	inc	dptr
   07D2 E0                 1685 	movx	a,@dptr
   07D3 FC                 1686 	mov	r4,a
   07D4 A3                 1687 	inc	dptr
   07D5 E0                 1688 	movx	a,@dptr
   07D6 FD                 1689 	mov	r5,a
   07D7 90 70 48           1690 	mov	dptr,#_ps3_param4_low
   07DA EA                 1691 	mov	a,r2
   07DB F0                 1692 	movx	@dptr,a
   07DC A3                 1693 	inc	dptr
   07DD EB                 1694 	mov	a,r3
   07DE F0                 1695 	movx	@dptr,a
   07DF A3                 1696 	inc	dptr
   07E0 EC                 1697 	mov	a,r4
   07E1 F0                 1698 	movx	@dptr,a
   07E2 A3                 1699 	inc	dptr
   07E3 ED                 1700 	mov	a,r5
   07E4 F0                 1701 	movx	@dptr,a
                           1702 ;	main.c:342: ps3_param4_high = vm_saved_param4_high;
   07E5 90 7D 04           1703 	mov	dptr,#_vm_saved_param4_high
   07E8 E0                 1704 	movx	a,@dptr
   07E9 FA                 1705 	mov	r2,a
   07EA A3                 1706 	inc	dptr
   07EB E0                 1707 	movx	a,@dptr
   07EC FB                 1708 	mov	r3,a
   07ED A3                 1709 	inc	dptr
   07EE E0                 1710 	movx	a,@dptr
   07EF FC                 1711 	mov	r4,a
   07F0 A3                 1712 	inc	dptr
   07F1 E0                 1713 	movx	a,@dptr
   07F2 FD                 1714 	mov	r5,a
   07F3 90 70 4C           1715 	mov	dptr,#_ps3_param4_high
   07F6 EA                 1716 	mov	a,r2
   07F7 F0                 1717 	movx	@dptr,a
   07F8 A3                 1718 	inc	dptr
   07F9 EB                 1719 	mov	a,r3
   07FA F0                 1720 	movx	@dptr,a
   07FB A3                 1721 	inc	dptr
   07FC EC                 1722 	mov	a,r4
   07FD F0                 1723 	movx	@dptr,a
   07FE A3                 1724 	inc	dptr
   07FF ED                 1725 	mov	a,r5
   0800 F0                 1726 	movx	@dptr,a
                           1727 ;	main.c:343: ps3_address = address;
   0801 90 70 20           1728 	mov	dptr,#_ps3_address
   0804 E5*00              1729 	mov	a,_main_address_1_1
   0806 F0                 1730 	movx	@dptr,a
   0807 A3                 1731 	inc	dptr
   0808 E5*01              1732 	mov	a,(_main_address_1_1 + 1)
   080A F0                 1733 	movx	@dptr,a
   080B A3                 1734 	inc	dptr
   080C E5*02              1735 	mov	a,(_main_address_1_1 + 2)
   080E F0                 1736 	movx	@dptr,a
   080F A3                 1737 	inc	dptr
   0810 E5*03              1738 	mov	a,(_main_address_1_1 + 3)
   0812 F0                 1739 	movx	@dptr,a
                           1740 ;	main.c:344: ps3_toc = TOC;
   0813 90 70 24           1741 	mov	dptr,#_ps3_toc
   0816 74 F8              1742 	mov	a,#0xF8
   0818 F0                 1743 	movx	@dptr,a
   0819 A3                 1744 	inc	dptr
   081A 74 65              1745 	mov	a,#0x65
   081C F0                 1746 	movx	@dptr,a
   081D A3                 1747 	inc	dptr
   081E 74 67              1748 	mov	a,#0x67
   0820 F0                 1749 	movx	@dptr,a
   0821 A3                 1750 	inc	dptr
   0822 E4                 1751 	clr	a
   0823 F0                 1752 	movx	@dptr,a
                           1753 ;	main.c:345: ps3_call = 1;
   0824 90 73 00           1754 	mov	dptr,#_ps3_call
   0827 74 01              1755 	mov	a,#0x01
   0829 F0                 1756 	movx	@dptr,a
                           1757 ;	main.c:347: vm_terminate = 1;
   082A 90 79 00           1758 	mov	dptr,#_vm_terminate
   082D 74 01              1759 	mov	a,#0x01
   082F F0                 1760 	movx	@dptr,a
   0830 22                 1761 	ret
                           1762 	.area CSEG    (CODE)
                           1763 	.area CONST   (CODE)
   0000                    1764 _xtea:
   0000 CF                 1765 	.db #0xCF
   0001 C8                 1766 	.db #0xC8
   0002 D7                 1767 	.db #0xD7
   0003 5A                 1768 	.db #0x5A
   0004 FB                 1769 	.db #0xFB
   0005 E2                 1770 	.db #0xE2
   0006 D8                 1771 	.db #0xD8
   0007 67                 1772 	.db #0x67
   0008 C8                 1773 	.db #0xC8
   0009 A4                 1774 	.db #0xA4
   000A 80                 1775 	.db #0x80
   000B 7C                 1776 	.db #0x7C
   000C A1                 1777 	.db #0xA1
   000D 76                 1778 	.db #0x76
   000E F4                 1779 	.db #0xF4
   000F 00                 1780 	.db #0x00
   0010 BE                 1781 	.db #0xBE
   0011 48                 1782 	.db #0x48
   0012 C4                 1783 	.db #0xC4
   0013 40                 1784 	.db #0x40
   0014 A4                 1785 	.db #0xA4
   0015 FD                 1786 	.db #0xFD
   0016 3A                 1787 	.db #0x3A
   0017 84                 1788 	.db #0x84
   0018 EF                 1789 	.db #0xEF
   0019 CF                 1790 	.db #0xCF
   001A 02                 1791 	.db #0x02
   001B FC                 1792 	.db #0xFC
   001C 8D                 1793 	.db #0x8D
   001D 0E                 1794 	.db #0x0E
   001E D4                 1795 	.db #0xD4
   001F 80                 1796 	.db #0x80
   0020 60                 1797 	.db #0x60
   0021 7A                 1798 	.db #0x7A
   0022 7E                 1799 	.db #0x7E
   0023 BD                 1800 	.db #0xBD
   0024 0D                 1801 	.db #0x0D
   0025 75                 1802 	.db #0x75
   0026 5F                 1803 	.db #0x5F
   0027 81                 1804 	.db #0x81
   0028 12                 1805 	.db #0x12
   0029 3F                 1806 	.db #0x3F
   002A B2                 1807 	.db #0xB2
   002B 99                 1808 	.db #0x99
   002C E2                 1809 	.db #0xE2
   002D 25                 1810 	.db #0x25
   002E 68                 1811 	.db #0x68
   002F 0A                 1812 	.db #0x0A
   0030 D4                 1813 	.db #0xD4
   0031 D2                 1814 	.db #0xD2
   0032 22                 1815 	.db #0x22
   0033 71                 1816 	.db #0x71
   0034 AF                 1817 	.db #0xAF
   0035 A2                 1818 	.db #0xA2
   0036 25                 1819 	.db #0x25
   0037 46                 1820 	.db #0x46
   0038 FC                 1821 	.db #0xFC
   0039 E0                 1822 	.db #0xE0
   003A C8                 1823 	.db #0xC8
   003B B0                 1824 	.db #0xB0
   003C A4                 1825 	.db #0xA4
   003D BE                 1826 	.db #0xBE
   003E 50                 1827 	.db #0x50
   003F DC                 1828 	.db #0xDC
   0040 5F                 1829 	.db #0x5F
   0041 E6                 1830 	.db #0xE6
   0042 94                 1831 	.db #0x94
   0043 23                 1832 	.db #0x23
   0044 2E                 1833 	.db #0x2E
   0045 C4                 1834 	.db #0xC4
   0046 04                 1835 	.db #0x04
   0047 1E                 1836 	.db #0x1E
   0048 3B                 1837 	.db #0x3B
   0049 9F                 1838 	.db #0x9F
   004A 80                 1839 	.db #0x80
   004B 9E                 1840 	.db #0x9E
   004C 05                 1841 	.db #0x05
   004D B3                 1842 	.db #0xB3
   004E AC                 1843 	.db #0xAC
   004F 38                 1844 	.db #0x38
   0050 A1                 1845 	.db #0xA1
   0051 36                 1846 	.db #0x36
   0052 84                 1847 	.db #0x84
   0053 F8                 1848 	.db #0xF8
   0054 52                 1849 	.db #0x52
   0055 48                 1850 	.db #0x48
   0056 E4                 1851 	.db #0xE4
   0057 71                 1852 	.db #0x71
   0058 62                 1853 	.db #0x62
   0059 1B                 1854 	.db #0x1B
   005A E3                 1855 	.db #0xE3
   005B 85                 1856 	.db #0x85
   005C CF                 1857 	.db #0xCF
   005D D4                 1858 	.db #0xD4
   005E 8A                 1859 	.db #0x8A
   005F D1                 1860 	.db #0xD1
   0060 4F                 1861 	.db #0x4F
   0061 78                 1862 	.db #0x78
   0062 08                 1863 	.db #0x08
   0063 A9                 1864 	.db #0xA9
   0064 A9                 1865 	.db #0xA9
   0065 68                 1866 	.db #0x68
   0066 5C                 1867 	.db #0x5C
   0067 B8                 1868 	.db #0xB8
   0068 24                 1869 	.db #0x24
   0069 38                 1870 	.db #0x38
   006A 43                 1871 	.db #0x43
   006B A9                 1872 	.db #0xA9
   006C F8                 1873 	.db #0xF8
   006D A4                 1874 	.db #0xA4
   006E D8                 1875 	.db #0xD8
   006F D8                 1876 	.db #0xD8
   0070 84                 1877 	.db #0x84
   0071 0E                 1878 	.db #0x0E
   0072 D9                 1879 	.db #0xD9
   0073 0A                 1880 	.db #0x0A
   0074 D4                 1881 	.db #0xD4
   0075 B8                 1882 	.db #0xB8
   0076 0A                 1883 	.db #0x0A
   0077 30                 1884 	.db #0x30
   0078 C3                 1885 	.db #0xC3
   0079 24                 1886 	.db #0x24
   007A 42                 1887 	.db #0x42
   007B 79                 1888 	.db #0x79
   007C D5                 1889 	.db #0xD5
   007D 07                 1890 	.db #0x07
   007E 46                 1891 	.db #0x46
   007F 5D                 1892 	.db #0x5D
   0080 A1                 1893 	.db #0xA1
   0081 84                 1894 	.db #0x84
   0082 40                 1895 	.db #0x40
   0083 31                 1896 	.db #0x31
   0084 93                 1897 	.db #0x93
   0085 D4                 1898 	.db #0xD4
   0086 80                 1899 	.db #0x80
   0087 14                 1900 	.db #0x14
   0088 C8                 1901 	.db #0xC8
   0089 C4                 1902 	.db #0xC4
   008A 04                 1903 	.db #0x04
   008B 62                 1904 	.db #0x62
   008C 3B                 1905 	.db #0x3B
   008D D5                 1906 	.db #0xD5
   008E F8                 1907 	.db #0xF8
   008F E6                 1908 	.db #0xE6
   0090 CC                 1909 	.db #0xCC
   0091 A4                 1910 	.db #0xA4
   0092 84                 1911 	.db #0x84
   0093 44                 1912 	.db #0x44
   0094 A1                 1913 	.db #0xA1
   0095 76                 1914 	.db #0x76
   0096 D4                 1915 	.db #0xD4
   0097 78                 1916 	.db #0x78
   0098 7B                 1917 	.db #0x7B
   0099 B7                 1918 	.db #0xB7
   009A A5                 1919 	.db #0xA5
   009B 58                 1920 	.db #0x58
   009C 6A                 1921 	.db #0x6A
   009D 39                 1922 	.db #0x39
   009E 73                 1923 	.db #0x73
   009F 03                 1924 	.db #0x03
   00A0 A7                 1925 	.db #0xA7
   00A1 CC                 1926 	.db #0xCC
   00A2 D4                 1927 	.db #0xD4
   00A3 F8                 1928 	.db #0xF8
   00A4 3E                 1929 	.db #0x3E
   00A5 BA                 1930 	.db #0xBA
   00A6 0E                 1931 	.db #0x0E
   00A7 2F                 1932 	.db #0x2F
   00A8 E1                 1933 	.db #0xE1
   00A9 5A                 1934 	.db #0x5A
   00AA 30                 1935 	.db #0x30
   00AB B8                 1936 	.db #0xB8
   00AC DF                 1937 	.db #0xDF
   00AD 59                 1938 	.db #0x59
   00AE 43                 1939 	.db #0x43
   00AF 2E                 1940 	.db #0x2E
   00B0 79                 1941 	.db #0x79
   00B1 E6                 1942 	.db #0xE6
   00B2 4C                 1943 	.db #0x4C
   00B3 D8                 1944 	.db #0xD8
   00B4 18                 1945 	.db #0x18
   00B5 67                 1946 	.db #0x67
   00B6 D9                 1947 	.db #0xD9
   00B7 8D                 1948 	.db #0x8D
   00B8 75                 1949 	.db #0x75
   00B9 80                 1950 	.db #0x80
   00BA D2                 1951 	.db #0xD2
   00BB 34                 1952 	.db #0x34
   00BC 79                 1953 	.db #0x79
   00BD 0F                 1954 	.db #0x0F
   00BE 1A                 1955 	.db #0x1A
   00BF C0                 1956 	.db #0xC0
   00C0 14                 1957 	.db #0x14
   00C1 F8                 1958 	.db #0xF8
   00C2 76                 1959 	.db #0x76
   00C3 B0                 1960 	.db #0xB0
   00C4 7A                 1961 	.db #0x7A
   00C5 B7                 1962 	.db #0xB7
   00C6 3C                 1963 	.db #0x3C
   00C7 5A                 1964 	.db #0x5A
   00C8 97                 1965 	.db #0x97
   00C9 D4                 1966 	.db #0xD4
   00CA 18                 1967 	.db #0x18
   00CB 61                 1968 	.db #0x61
   00CC A8                 1969 	.db #0xA8
   00CD C4                 1970 	.db #0xC4
   00CE 24                 1971 	.db #0x24
   00CF 9A                 1972 	.db #0x9A
   00D0 3A                 1973 	.db #0x3A
   00D1 D5                 1974 	.db #0xD5
   00D2 48                 1975 	.db #0x48
   00D3 AE                 1976 	.db #0xAE
   00D4 CC                 1977 	.db #0xCC
   00D5 A4                 1978 	.db #0xA4
   00D6 AC                 1979 	.db #0xAC
   00D7 0F                 1980 	.db #0x0F
   00D8 5E                 1981 	.db #0x5E
   00D9 89                 1982 	.db #0x89
   00DA F9                 1983 	.db #0xF9
   00DB FC                 1984 	.db #0xFC
   00DC 44                 1985 	.db #0x44
   00DD B0                 1986 	.db #0xB0
   00DE EE                 1987 	.db #0xEE
   00DF CD                 1988 	.db #0xCD
   00E0 5E                 1989 	.db #0x5E
   00E1 3B                 1990 	.db #0x3B
   00E2 D5                 1991 	.db #0xD5
   00E3 C1                 1992 	.db #0xC1
   00E4 99                 1993 	.db #0x99
   00E5 CC                 1994 	.db #0xCC
   00E6 AC                 1995 	.db #0xAC
   00E7 F8                 1996 	.db #0xF8
   00E8 44                 1997 	.db #0x44
   00E9 EB                 1998 	.db #0xEB
   00EA 0E                 1999 	.db #0x0E
   00EB A8                 2000 	.db #0xA8
   00EC 9E                 2001 	.db #0x9E
   00ED A3                 2002 	.db #0xA3
   00EE 62                 2003 	.db #0x62
   00EF B8                 2004 	.db #0xB8
   00F0 39                 2005 	.db #0x39
   00F1 9A                 2006 	.db #0x9A
   00F2 11                 2007 	.db #0x11
   00F3 AC                 2008 	.db #0xAC
   00F4 87                 2009 	.db #0x87
   00F5 E6                 2010 	.db #0xE6
   00F6 EC                 2011 	.db #0xEC
   00F7 5C                 2012 	.db #0x5C
   00F8 98                 2013 	.db #0x98
   00F9 44                 2014 	.db #0x44
   00FA A1                 2015 	.db #0xA1
   00FB 09                 2016 	.db #0x09
   00FC 4B                 2017 	.db #0x4B
   00FD 58                 2018 	.db #0x58
   00FE 1A                 2019 	.db #0x1A
   00FF 34                 2020 	.db #0x34
   0100 59                 2021 	.db #0x59
   0101 DE                 2022 	.db #0xDE
   0102 76                 2023 	.db #0x76
   0103 47                 2024 	.db #0x47
   0104 6B                 2025 	.db #0x6B
   0105 02                 2026 	.db #0x02
   0106 F2                 2027 	.db #0xF2
   0107 B3                 2028 	.db #0xB3
   0108 E7                 2029 	.db #0xE7
   0109 57                 2030 	.db #0x57
   010A 3C                 2031 	.db #0x3C
   010B E0                 2032 	.db #0xE0
   010C EA                 2033 	.db #0xEA
   010D 2B                 2034 	.db #0x2B
   010E 4C                 2035 	.db #0x4C
   010F B2                 2036 	.db #0xB2
   0110 49                 2037 	.db #0x49
   0111 C4                 2038 	.db #0xC4
   0112 94                 2039 	.db #0x94
   0113 89                 2040 	.db #0x89
   0114 7A                 2041 	.db #0x7A
   0115 D5                 2042 	.db #0xD5
   0116 88                 2043 	.db #0x88
   0117 0D                 2044 	.db #0x0D
   0118 AD                 2045 	.db #0xAD
   0119 A4                 2046 	.db #0xA4
   011A FC                 2047 	.db #0xFC
   011B 38                 2048 	.db #0x38
   011C A9                 2049 	.db #0xA9
   011D 75                 2050 	.db #0x75
   011E 72                 2051 	.db #0x72
   011F 6B                 2052 	.db #0x6B
   0120 DB                 2053 	.db #0xDB
   0121 48                 2054 	.db #0x48
   0122 44                 2055 	.db #0x44
   0123 CF                 2056 	.db #0xCF
   0124 C3                 2057 	.db #0xC3
   0125 3B                 2058 	.db #0x3B
   0126 5D                 2059 	.db #0x5D
   0127 13                 2060 	.db #0x13
   0128 27                 2061 	.db #0x27
   0129 CC                 2062 	.db #0xCC
   012A 34                 2063 	.db #0x34
   012B 6F                 2064 	.db #0x6F
   012C A5                 2065 	.db #0xA5
   012D A1                 2066 	.db #0xA1
   012E EE                 2067 	.db #0xEE
   012F EC                 2068 	.db #0xEC
   0130 A1                 2069 	.db #0xA1
   0131 5A                 2070 	.db #0x5A
   0132 E8                 2071 	.db #0xE8
   0133 8A                 2072 	.db #0x8A
   0134 A4                 2073 	.db #0xA4
   0135 62                 2074 	.db #0x62
   0136 1B                 2075 	.db #0x1B
   0137 D5                 2076 	.db #0xD5
   0138 F8                 2077 	.db #0xF8
   0139 E6                 2078 	.db #0xE6
   013A CC                 2079 	.db #0xCC
   013B A4                 2080 	.db #0xA4
   013C 84                 2081 	.db #0x84
   013D 44                 2082 	.db #0x44
   013E A0                 2083 	.db #0xA0
   013F F6                 2084 	.db #0xF6
   0140 D2                 2085 	.db #0xD2
   0141 80                 2086 	.db #0x80
   0142 5A                 2087 	.db #0x5A
   0143 B0                 2088 	.db #0xB0
   0144 E5                 2089 	.db #0xE5
   0145 DB                 2090 	.db #0xDB
   0146 33                 2091 	.db #0x33
   0147 47                 2092 	.db #0x47
   0148 DD                 2093 	.db #0xDD
   0149 FA                 2094 	.db #0xFA
   014A 40                 2095 	.db #0x40
   014B 37                 2096 	.db #0x37
   014C C5                 2097 	.db #0xC5
   014D 84                 2098 	.db #0x84
   014E CC                 2099 	.db #0xCC
   014F 98                 2100 	.db #0x98
   0150 36                 2101 	.db #0x36
   0151 D4                 2102 	.db #0xD4
   0152 80                 2103 	.db #0x80
   0153 A1                 2104 	.db #0xA1
   0154 E9                 2105 	.db #0xE9
   0155 C4                 2106 	.db #0xC4
   0156 BC                 2107 	.db #0xBC
   0157 1E                 2108 	.db #0x1E
   0158 A0                 2109 	.db #0xA0
   0159 F6                 2110 	.db #0xF6
   015A 80                 2111 	.db #0x80
   015B 1D                 2112 	.db #0x1D
   015C 0D                 2113 	.db #0x0D
   015D A4                 2114 	.db #0xA4
   015E 24                 2115 	.db #0x24
   015F 38                 2116 	.db #0x38
   0160 1C                 2117 	.db #0x1C
   0161 5D                 2118 	.db #0x5D
   0162 AC                 2119 	.db #0xAC
   0163 7B                 2120 	.db #0x7B
   0164 BB                 2121 	.db #0xBB
   0165 48                 2122 	.db #0x48
   0166 6C                 2123 	.db #0x6C
   0167 58                 2124 	.db #0x58
   0168 1C                 2125 	.db #0x1C
   0169 20                 2126 	.db #0x20
   016A AD                 2127 	.db #0xAD
   016B 84                 2128 	.db #0x84
   016C 39                 2129 	.db #0x39
   016D FF                 2130 	.db #0xFF
   016E DC                 2131 	.db #0xDC
   016F 7F                 2132 	.db #0x7F
   0170 C5                 2133 	.db #0xC5
   0171 A1                 2134 	.db #0xA1
   0172 E6                 2135 	.db #0xE6
   0173 2C                 2136 	.db #0x2C
   0174 81                 2137 	.db #0x81
   0175 5A                 2138 	.db #0x5A
   0176 88                 2139 	.db #0x88
   0177 8C                 2140 	.db #0x8C
   0178 24                 2141 	.db #0x24
   0179 62                 2142 	.db #0x62
   017A 9F                 2143 	.db #0x9F
   017B ED                 2144 	.db #0xED
   017C F2                 2145 	.db #0xF2
   017D E6                 2146 	.db #0xE6
   017E DC                 2147 	.db #0xDC
   017F DC                 2148 	.db #0xDC
   0180 98                 2149 	.db #0x98
   0181 44                 2150 	.db #0x44
   0182 81                 2151 	.db #0x81
   0183 09                 2152 	.db #0x09
   0184 48                 2153 	.db #0x48
   0185 68                 2154 	.db #0x68
   0186 1A                 2155 	.db #0x1A
   0187 08                 2156 	.db #0x08
   0188 59                 2157 	.db #0x59
   0189 24                 2158 	.db #0x24
   018A 0E                 2159 	.db #0x0E
   018B 03                 2160 	.db #0x03
   018C D5                 2161 	.db #0xD5
   018D F8                 2162 	.db #0xF8
   018E F6                 2163 	.db #0xF6
   018F B7                 2164 	.db #0xB7
   0190 0C                 2165 	.db #0x0C
   0191 83                 2166 	.db #0x83
   0192 64                 2167 	.db #0x64
   0193 98                 2168 	.db #0x98
   0194 16                 2169 	.db #0x16
   0195 D4                 2170 	.db #0xD4
   0196 80                 2171 	.db #0x80
   0197 26                 2172 	.db #0x26
   0198 41                 2173 	.db #0x41
   0199 C7                 2174 	.db #0xC7
   019A 82                 2175 	.db #0x82
   019B 5A                 2176 	.db #0x5A
   019C DA                 2177 	.db #0xDA
   019D D5                 2178 	.db #0xD5
   019E 88                 2179 	.db #0x88
   019F DE                 2180 	.db #0xDE
   01A0 0C                 2181 	.db #0x0C
   01A1 A4                 2182 	.db #0xA4
   01A2 84                 2183 	.db #0x84
   01A3 3D                 2184 	.db #0x3D
   01A4 C1                 2185 	.db #0xC1
   01A5 76                 2186 	.db #0x76
   01A6 F4                 2187 	.db #0xF4
   01A7 FF                 2188 	.db #0xFF
   01A8 DA                 2189 	.db #0xDA
   01A9 08                 2190 	.db #0x08
   01AA 84                 2191 	.db #0x84
   01AB 59                 2192 	.db #0x59
   01AC 48                 2193 	.db #0x48
   01AD 39                 2194 	.db #0x39
   01AE C1                 2195 	.db #0xC1
   01AF 81                 2196 	.db #0x81
   01B0 CF                 2197 	.db #0xCF
   01B1 CC                 2198 	.db #0xCC
   01B2 84                 2199 	.db #0x84
   01B3 C4                 2200 	.db #0xC4
   01B4 D8                 2201 	.db #0xD8
   01B5 A1                 2202 	.db #0xA1
   01B6 66                 2203 	.db #0x66
   01B7 A8                 2204 	.db #0xA8
   01B8 9B                 2205 	.db #0x9B
   01B9 12                 2206 	.db #0x12
   01BA E6                 2207 	.db #0xE6
   01BB B8                 2208 	.db #0xB8
   01BC 2F                 2209 	.db #0x2F
   01BD 5B                 2210 	.db #0x5B
   01BE 95                 2211 	.db #0x95
   01BF 9D                 2212 	.db #0x9D
   01C0 F8                 2213 	.db #0xF8
   01C1 E6                 2214 	.db #0xE6
   01C2 C4                 2215 	.db #0xC4
   01C3 D8                 2216 	.db #0xD8
   01C4 4F                 2217 	.db #0x4F
   01C5 7D                 2218 	.db #0x7D
   01C6 0F                 2219 	.db #0x0F
   01C7 4F                 2220 	.db #0x4F
   01C8 BF                 2221 	.db #0xBF
   01C9 80                 2222 	.db #0x80
   01CA 5B                 2223 	.db #0x5B
   01CB 0A                 2224 	.db #0x0A
   01CC C4                 2225 	.db #0xC4
   01CD DB                 2226 	.db #0xDB
   01CE BA                 2227 	.db #0xBA
   01CF 03                 2228 	.db #0x03
   01D0 B4                 2229 	.db #0xB4
   01D1 F8                 2230 	.db #0xF8
   01D2 96                 2231 	.db #0x96
   01D3 B3                 2232 	.db #0xB3
   01D4 60                 2233 	.db #0x60
   01D5 77                 2234 	.db #0x77
   01D6 3C                 2235 	.db #0x3C
   01D7 DE                 2236 	.db #0xDE
   01D8 93                 2237 	.db #0x93
   01D9 2F                 2238 	.db #0x2F
   01DA F8                 2239 	.db #0xF8
   01DB 11                 2240 	.db #0x11
   01DC B7                 2241 	.db #0xB7
   01DD 3A                 2242 	.db #0x3A
   01DE 0D                 2243 	.db #0x0D
   01DF 8A                 2244 	.db #0x8A
   01E0 24                 2245 	.db #0x24
   01E1 D5                 2246 	.db #0xD5
   01E2 F8                 2247 	.db #0xF8
   01E3 0F                 2248 	.db #0x0F
   01E4 F2                 2249 	.db #0xF2
   01E5 A4                 2250 	.db #0xA4
   01E6 84                 2251 	.db #0x84
   01E7 38                 2252 	.db #0x38
   01E8 A1                 2253 	.db #0xA1
   01E9 3C                 2254 	.db #0x3C
   01EA AC                 2255 	.db #0xAC
   01EB 78                 2256 	.db #0x78
   01EC 45                 2257 	.db #0x45
   01ED 48                 2258 	.db #0x48
   01EE C4                 2259 	.db #0xC4
   01EF 6C                 2260 	.db #0x6C
   01F0 62                 2261 	.db #0x62
   01F1 3B                 2262 	.db #0x3B
   01F2 FD                 2263 	.db #0xFD
   01F3 84                 2264 	.db #0x84
   01F4 9D                 2265 	.db #0x9D
   01F5 9E                 2266 	.db #0x9E
   01F6 B0                 2267 	.db #0xB0
   01F7 FB                 2268 	.db #0xFB
   01F8 80                 2269 	.db #0x80
   01F9 52                 2270 	.db #0x52
   01FA 0E                 2271 	.db #0x0E
   01FB AB                 2272 	.db #0xAB
   01FC 65                 2273 	.db #0x65
   01FD A1                 2274 	.db #0xA1
   01FE 30                 2275 	.db #0x30
   01FF 8F                 2276 	.db #0x8F
   0200 DB                 2277 	.db #0xDB
   0201 9C                 2278 	.db #0x9C
   0202 3E                 2279 	.db #0x3E
   0203 3D                 2280 	.db #0x3D
   0204 E7                 2281 	.db #0xE7
   0205 E6                 2282 	.db #0xE6
   0206 CC                 2283 	.db #0xCC
   0207 4D                 2284 	.db #0x4D
   0208 BA                 2285 	.db #0xBA
   0209 44                 2286 	.db #0x44
   020A A1                 2287 	.db #0xA1
   020B 0A                 2288 	.db #0x0A
   020C D4                 2289 	.db #0xD4
   020D CA                 2290 	.db #0xCA
   020E 22                 2291 	.db #0x22
   020F B0                 2292 	.db #0xB0
   0210 DB                 2293 	.db #0xDB
   0211 24                 2294 	.db #0x24
   0212 62                 2295 	.db #0x62
   0213 C3                 2296 	.db #0xC3
   0214 CB                 2297 	.db #0xCB
   0215 F8                 2298 	.db #0xF8
   0216 E6                 2299 	.db #0xE6
   0217 B3                 2300 	.db #0xB3
   0218 2E                 2301 	.db #0x2E
   0219 67                 2302 	.db #0x67
   021A 3C                 2303 	.db #0x3C
   021B DE                 2304 	.db #0xDE
   021C FC                 2305 	.db #0xFC
   021D 3C                 2306 	.db #0x3C
   021E C0                 2307 	.db #0xC0
   021F 1B                 2308 	.db #0x1B
   0220 D4                 2309 	.db #0xD4
   0221 3B                 2310 	.db #0x3B
   0222 78                 2311 	.db #0x78
   0223 8A                 2312 	.db #0x8A
   0224 3A                 2313 	.db #0x3A
   0225 D5                 2314 	.db #0xD5
   0226 38                 2315 	.db #0x38
   0227 0D                 2316 	.db #0x0D
   0228 AD                 2317 	.db #0xAD
   0229 A4                 2318 	.db #0xA4
   022A 0C                 2319 	.db #0x0C
   022B AF                 2320 	.db #0xAF
   022C 20                 2321 	.db #0x20
   022D 76                 2322 	.db #0x76
   022E 44                 2323 	.db #0x44
   022F FC                 2324 	.db #0xFC
   0230 52                 2325 	.db #0x52
   0231 4B                 2326 	.db #0x4B
   0232 62                 2327 	.db #0x62
   0233 CF                 2328 	.db #0xCF
   0234 C3                 2329 	.db #0xC3
   0235 3B                 2330 	.db #0x3B
   0236 4D                 2331 	.db #0x4D
   0237 13                 2332 	.db #0x13
   0238 27                 2333 	.db #0x27
   0239 CC                 2334 	.db #0xCC
   023A 04                 2335 	.db #0x04
   023B 6F                 2336 	.db #0x6F
   023C A5                 2337 	.db #0xA5
   023D A1                 2338 	.db #0xA1
   023E DE                 2339 	.db #0xDE
   023F EC                 2340 	.db #0xEC
   0240 A1                 2341 	.db #0xA1
   0241 5A                 2342 	.db #0x5A
   0242 F8                 2343 	.db #0xF8
   0243 8A                 2344 	.db #0x8A
   0244 A4                 2345 	.db #0xA4
   0245 62                 2346 	.db #0x62
   0246 1B                 2347 	.db #0x1B
   0247 D5                 2348 	.db #0xD5
   0248 F8                 2349 	.db #0xF8
   0249 E6                 2350 	.db #0xE6
   024A CC                 2351 	.db #0xCC
   024B A4                 2352 	.db #0xA4
   024C 84                 2353 	.db #0x84
   024D 44                 2354 	.db #0x44
   024E A0                 2355 	.db #0xA0
   024F F6                 2356 	.db #0xF6
   0250 D1                 2357 	.db #0xD1
   0251 80                 2358 	.db #0x80
   0252 5A                 2359 	.db #0x5A
   0253 00                 2360 	.db 0x00
   0254                    2361 _stage2:
   0254 74                 2362 	.db #0x74
   0255 07                 2363 	.db #0x07
   0256 6D                 2364 	.db #0x6D
   0257 EB                 2365 	.db #0xEB
   0258 BC                 2366 	.db #0xBC
   0259 3B                 2367 	.db #0x3B
   025A 18                 2368 	.db #0x18
   025B 5A                 2369 	.db #0x5A
   025C 89                 2370 	.db #0x89
   025D 02                 2371 	.db #0x02
   025E C4                 2372 	.db #0xC4
   025F AB                 2373 	.db #0xAB
   0260 C3                 2374 	.db #0xC3
   0261 03                 2375 	.db #0x03
   0262 1A                 2376 	.db #0x1A
   0263 01                 2377 	.db #0x01
   0264 84                 2378 	.db #0x84
   0265 08                 2379 	.db #0x08
   0266 B9                 2380 	.db #0xB9
   0267 4C                 2381 	.db #0x4C
   0268 93                 2382 	.db #0x93
   0269 F2                 2383 	.db #0xF2
   026A 9D                 2384 	.db #0x9D
   026B 77                 2385 	.db #0x77
   026C EA                 2386 	.db #0xEA
   026D 5D                 2387 	.db #0x5D
   026E 4F                 2388 	.db #0x4F
   026F 7B                 2389 	.db #0x7B
   0270 41                 2390 	.db #0x41
   0271 CB                 2391 	.db #0xCB
   0272 E2                 2392 	.db #0xE2
   0273 B5                 2393 	.db #0xB5
   0274 CF                 2394 	.db #0xCF
   0275 EE                 2395 	.db #0xEE
   0276 D5                 2396 	.db #0xD5
   0277 C9                 2397 	.db #0xC9
   0278 53                 2398 	.db #0x53
   0279 15                 2399 	.db #0x15
   027A 74                 2400 	.db #0x74
   027B 31                 2401 	.db #0x31
   027C 82                 2402 	.db #0x82
   027D 54                 2403 	.db #0x54
   027E E8                 2404 	.db #0xE8
   027F 59                 2405 	.db #0x59
   0280 36                 2406 	.db #0x36
   0281 E2                 2407 	.db #0xE2
   0282 6D                 2408 	.db #0x6D
   0283 2A                 2409 	.db #0x2A
   0284 52                 2410 	.db #0x52
   0285 F6                 2411 	.db #0xF6
   0286 22                 2412 	.db #0x22
   0287 32                 2413 	.db #0x32
   0288 72                 2414 	.db #0x72
   0289 FF                 2415 	.db #0xFF
   028A 69                 2416 	.db #0x69
   028B 29                 2417 	.db #0x29
   028C CF                 2418 	.db #0xCF
   028D 61                 2419 	.db #0x61
   028E 55                 2420 	.db #0x55
   028F 44                 2421 	.db #0x44
   0290 82                 2422 	.db #0x82
   0291 90                 2423 	.db #0x90
   0292 29                 2424 	.db #0x29
   0293 46                 2425 	.db #0x46
   0294 E1                 2426 	.db #0xE1
   0295 56                 2427 	.db #0x56
   0296 12                 2428 	.db #0x12
   0297 BA                 2429 	.db #0xBA
   0298 F6                 2430 	.db #0xF6
   0299 53                 2431 	.db #0x53
   029A AB                 2432 	.db #0xAB
   029B FD                 2433 	.db #0xFD
   029C D8                 2434 	.db #0xD8
   029D B7                 2435 	.db #0xB7
   029E CF                 2436 	.db #0xCF
   029F D6                 2437 	.db #0xD6
   02A0 EF                 2438 	.db #0xEF
   02A1 AC                 2439 	.db #0xAC
   02A2 1F                 2440 	.db #0x1F
   02A3 BA                 2441 	.db #0xBA
   02A4 6E                 2442 	.db #0x6E
   02A5 5D                 2443 	.db #0x5D
   02A6 C8                 2444 	.db #0xC8
   02A7 BF                 2445 	.db #0xBF
   02A8 D0                 2446 	.db #0xD0
   02A9 31                 2447 	.db #0x31
   02AA BB                 2448 	.db #0xBB
   02AB 21                 2449 	.db #0x21
   02AC 5F                 2450 	.db #0x5F
   02AD 3C                 2451 	.db #0x3C
   02AE 54                 2452 	.db #0x54
   02AF CE                 2453 	.db #0xCE
   02B0 70                 2454 	.db #0x70
   02B1 50                 2455 	.db #0x50
   02B2 79                 2456 	.db #0x79
   02B3 C7                 2457 	.db #0xC7
   02B4 CF                 2458 	.db #0xCF
   02B5 A4                 2459 	.db #0xA4
   02B6 26                 2460 	.db #0x26
   02B7 7E                 2461 	.db #0x7E
   02B8 5F                 2462 	.db #0x5F
   02B9 00                 2463 	.db #0x00
   02BA 00                 2464 	.db #0x00
   02BB 2C                 2465 	.db #0x2C
   02BC 90                 2466 	.db #0x90
   02BD AC                 2467 	.db #0xAC
   02BE AE                 2468 	.db #0xAE
   02BF 95                 2469 	.db #0x95
   02C0 6A                 2470 	.db #0x6A
   02C1 41                 2471 	.db #0x41
   02C2 C5                 2472 	.db #0xC5
   02C3 2B                 2473 	.db #0x2B
   02C4 AC                 2474 	.db #0xAC
   02C5 AD                 2475 	.db #0xAD
   02C6 BC                 2476 	.db #0xBC
   02C7 48                 2477 	.db #0x48
   02C8 84                 2478 	.db #0x84
   02C9 1D                 2479 	.db #0x1D
   02CA 92                 2480 	.db #0x92
   02CB 57                 2481 	.db #0x57
   02CC E2                 2482 	.db #0xE2
   02CD 02                 2483 	.db #0x02
   02CE AD                 2484 	.db #0xAD
   02CF 1C                 2485 	.db #0x1C
   02D0 94                 2486 	.db #0x94
   02D1 57                 2487 	.db #0x57
   02D2 94                 2488 	.db #0x94
   02D3 5C                 2489 	.db #0x5C
   02D4 75                 2490 	.db #0x75
   02D5 BE                 2491 	.db #0xBE
   02D6 62                 2492 	.db #0x62
   02D7 68                 2493 	.db #0x68
   02D8 8E                 2494 	.db #0x8E
   02D9 A5                 2495 	.db #0xA5
   02DA CF                 2496 	.db #0xCF
   02DB B8                 2497 	.db #0xB8
   02DC 2D                 2498 	.db #0x2D
   02DD F9                 2499 	.db #0xF9
   02DE 8C                 2500 	.db #0x8C
   02DF 39                 2501 	.db #0x39
   02E0 6F                 2502 	.db #0x6F
   02E1 EC                 2503 	.db #0xEC
   02E2 2B                 2504 	.db #0x2B
   02E3 2F                 2505 	.db #0x2F
   02E4 5D                 2506 	.db #0x5D
   02E5 06                 2507 	.db #0x06
   02E6 1A                 2508 	.db #0x1A
   02E7 42                 2509 	.db #0x42
   02E8 F3                 2510 	.db #0xF3
   02E9 AA                 2511 	.db #0xAA
   02EA 8E                 2512 	.db #0x8E
   02EB B8                 2513 	.db #0xB8
   02EC A8                 2514 	.db #0xA8
   02ED 57                 2515 	.db #0x57
   02EE 9C                 2516 	.db #0x9C
   02EF 2F                 2517 	.db #0x2F
   02F0 5F                 2518 	.db #0x5F
   02F1 CD                 2519 	.db #0xCD
   02F2 7E                 2520 	.db #0x7E
   02F3 BB                 2521 	.db #0xBB
   02F4 72                 2522 	.db #0x72
   02F5 DB                 2523 	.db #0xDB
   02F6 91                 2524 	.db #0x91
   02F7 0B                 2525 	.db #0x0B
   02F8 A4                 2526 	.db #0xA4
   02F9 75                 2527 	.db #0x75
   02FA 07                 2528 	.db #0x07
   02FB CB                 2529 	.db #0xCB
   02FC 59                 2530 	.db #0x59
   02FD 68                 2531 	.db #0x68
   02FE DC                 2532 	.db #0xDC
   02FF 5C                 2533 	.db #0x5C
   0300 FA                 2534 	.db #0xFA
   0301 10                 2535 	.db #0x10
   0302 91                 2536 	.db #0x91
   0303 DD                 2537 	.db #0xDD
   0304 ED                 2538 	.db #0xED
   0305 2C                 2539 	.db #0x2C
   0306 3A                 2540 	.db #0x3A
   0307 BE                 2541 	.db #0xBE
   0308 11                 2542 	.db #0x11
   0309 A9                 2543 	.db #0xA9
   030A A6                 2544 	.db #0xA6
   030B C6                 2545 	.db #0xC6
   030C 5E                 2546 	.db #0x5E
   030D 95                 2547 	.db #0x95
   030E DF                 2548 	.db #0xDF
   030F B2                 2549 	.db #0xB2
   0310 E2                 2550 	.db #0xE2
   0311 F1                 2551 	.db #0xF1
   0312 C1                 2552 	.db #0xC1
   0313 B3                 2553 	.db #0xB3
   0314 69                 2554 	.db #0x69
   0315 50                 2555 	.db #0x50
   0316 B7                 2556 	.db #0xB7
   0317 1C                 2557 	.db #0x1C
   0318 20                 2558 	.db #0x20
   0319 29                 2559 	.db #0x29
   031A 8A                 2560 	.db #0x8A
   031B 5C                 2561 	.db #0x5C
   031C 93                 2562 	.db #0x93
   031D B8                 2563 	.db #0xB8
   031E BC                 2564 	.db #0xBC
   031F 32                 2565 	.db #0x32
   0320 95                 2566 	.db #0x95
   0321 90                 2567 	.db #0x90
   0322 FE                 2568 	.db #0xFE
   0323 9B                 2569 	.db #0x9B
   0324 48                 2570 	.db #0x48
   0325 81                 2571 	.db #0x81
   0326 13                 2572 	.db #0x13
   0327 25                 2573 	.db #0x25
   0328 21                 2574 	.db #0x21
   0329 BA                 2575 	.db #0xBA
   032A 14                 2576 	.db #0x14
   032B 5B                 2577 	.db #0x5B
   032C 2F                 2578 	.db #0x2F
   032D 88                 2579 	.db #0x88
   032E D1                 2580 	.db #0xD1
   032F EA                 2581 	.db #0xEA
   0330 2A                 2582 	.db #0x2A
   0331 03                 2583 	.db #0x03
   0332 B6                 2584 	.db #0xB6
   0333 F4                 2585 	.db #0xF4
   0334 C3                 2586 	.db #0xC3
   0335 3C                 2587 	.db #0x3C
   0336 79                 2588 	.db #0x79
   0337 A0                 2589 	.db #0xA0
   0338 43                 2590 	.db #0x43
   0339 30                 2591 	.db #0x30
   033A 31                 2592 	.db #0x31
   033B 1E                 2593 	.db #0x1E
   033C F0                 2594 	.db #0xF0
   033D BF                 2595 	.db #0xBF
   033E 69                 2596 	.db #0x69
   033F DB                 2597 	.db #0xDB
   0340 64                 2598 	.db #0x64
   0341 21                 2599 	.db #0x21
   0342 AC                 2600 	.db #0xAC
   0343 68                 2601 	.db #0x68
   0344 F0                 2602 	.db #0xF0
   0345 0A                 2603 	.db #0x0A
   0346 8D                 2604 	.db #0x8D
   0347 28                 2605 	.db #0x28
   0348 CD                 2606 	.db #0xCD
   0349 CF                 2607 	.db #0xCF
   034A 14                 2608 	.db #0x14
   034B 76                 2609 	.db #0x76
   034C 4A                 2610 	.db #0x4A
   034D BD                 2611 	.db #0xBD
   034E A4                 2612 	.db #0xA4
   034F C3                 2613 	.db #0xC3
   0350 52                 2614 	.db #0x52
   0351 DD                 2615 	.db #0xDD
   0352 B6                 2616 	.db #0xB6
   0353 E3                 2617 	.db #0xE3
   0354 32                 2618 	.db #0x32
   0355 F9                 2619 	.db #0xF9
   0356 73                 2620 	.db #0x73
   0357 C1                 2621 	.db #0xC1
   0358 DF                 2622 	.db #0xDF
   0359 0E                 2623 	.db #0x0E
   035A 9D                 2624 	.db #0x9D
   035B 51                 2625 	.db #0x51
   035C 2C                 2626 	.db #0x2C
   035D 0B                 2627 	.db #0x0B
   035E 62                 2628 	.db #0x62
   035F F9                 2629 	.db #0xF9
   0360 4A                 2630 	.db #0x4A
   0361 00                 2631 	.db #0x00
   0362 EF                 2632 	.db #0xEF
   0363 57                 2633 	.db #0x57
   0364 C2                 2634 	.db #0xC2
   0365 BF                 2635 	.db #0xBF
   0366 02                 2636 	.db #0x02
   0367 7C                 2637 	.db #0x7C
   0368 68                 2638 	.db #0x68
   0369 A1                 2639 	.db #0xA1
   036A D6                 2640 	.db #0xD6
   036B 0F                 2641 	.db #0x0F
   036C A4                 2642 	.db #0xA4
   036D 98                 2643 	.db #0x98
   036E 28                 2644 	.db #0x28
   036F D1                 2645 	.db #0xD1
   0370 E2                 2646 	.db #0xE2
   0371 44                 2647 	.db #0x44
   0372 77                 2648 	.db #0x77
   0373 DD                 2649 	.db #0xDD
   0374 AA                 2650 	.db #0xAA
   0375 7E                 2651 	.db #0x7E
   0376 37                 2652 	.db #0x37
   0377 4A                 2653 	.db #0x4A
   0378 A8                 2654 	.db #0xA8
   0379 3B                 2655 	.db #0x3B
   037A 89                 2656 	.db #0x89
   037B 41                 2657 	.db #0x41
   037C 91                 2658 	.db #0x91
   037D 94                 2659 	.db #0x94
   037E 8F                 2660 	.db #0x8F
   037F DF                 2661 	.db #0xDF
   0380 0E                 2662 	.db #0x0E
   0381 A9                 2663 	.db #0xA9
   0382 B4                 2664 	.db #0xB4
   0383 EA                 2665 	.db #0xEA
   0384 08                 2666 	.db #0x08
   0385 8D                 2667 	.db #0x8D
   0386 29                 2668 	.db #0x29
   0387 03                 2669 	.db #0x03
   0388 09                 2670 	.db #0x09
   0389 A7                 2671 	.db #0xA7
   038A 53                 2672 	.db #0x53
   038B A0                 2673 	.db #0xA0
   038C B8                 2674 	.db #0xB8
   038D 6D                 2675 	.db #0x6D
   038E 96                 2676 	.db #0x96
   038F 83                 2677 	.db #0x83
   0390 77                 2678 	.db #0x77
   0391 DF                 2679 	.db #0xDF
   0392 40                 2680 	.db #0x40
   0393 EC                 2681 	.db #0xEC
   0394 A4                 2682 	.db #0xA4
   0395 D2                 2683 	.db #0xD2
   0396 9F                 2684 	.db #0x9F
   0397 46                 2685 	.db #0x46
   0398 D7                 2686 	.db #0xD7
   0399 9A                 2687 	.db #0x9A
   039A 0F                 2688 	.db #0x0F
   039B 39                 2689 	.db #0x39
   039C D3                 2690 	.db #0xD3
   039D 36                 2691 	.db #0x36
   039E 68                 2692 	.db #0x68
   039F 61                 2693 	.db #0x61
   03A0 7C                 2694 	.db #0x7C
   03A1 3B                 2695 	.db #0x3B
   03A2 D3                 2696 	.db #0xD3
   03A3 0E                 2697 	.db #0x0E
   03A4 5B                 2698 	.db #0x5B
   03A5 B7                 2699 	.db #0xB7
   03A6 03                 2700 	.db #0x03
   03A7 7B                 2701 	.db #0x7B
   03A8 06                 2702 	.db #0x06
   03A9 D1                 2703 	.db #0xD1
   03AA A1                 2704 	.db #0xA1
   03AB B5                 2705 	.db #0xB5
   03AC 86                 2706 	.db #0x86
   03AD 56                 2707 	.db #0x56
   03AE 8A                 2708 	.db #0x8A
   03AF 98                 2709 	.db #0x98
   03B0 E2                 2710 	.db #0xE2
   03B1 36                 2711 	.db #0x36
   03B2 69                 2712 	.db #0x69
   03B3 2F                 2713 	.db #0x2F
   03B4 BF                 2714 	.db #0xBF
   03B5 25                 2715 	.db #0x25
   03B6 06                 2716 	.db #0x06
   03B7 CB                 2717 	.db #0xCB
   03B8 C9                 2718 	.db #0xC9
   03B9 C3                 2719 	.db #0xC3
   03BA F3                 2720 	.db #0xF3
   03BB F1                 2721 	.db #0xF1
   03BC 42                 2722 	.db #0x42
   03BD CD                 2723 	.db #0xCD
   03BE 4A                 2724 	.db #0x4A
   03BF 11                 2725 	.db #0x11
   03C0 E2                 2726 	.db #0xE2
   03C1 F8                 2727 	.db #0xF8
   03C2 30                 2728 	.db #0x30
   03C3 49                 2729 	.db #0x49
   03C4 EB                 2730 	.db #0xEB
   03C5 1C                 2731 	.db #0x1C
   03C6 CD                 2732 	.db #0xCD
   03C7 B9                 2733 	.db #0xB9
   03C8 EC                 2734 	.db #0xEC
   03C9 BC                 2735 	.db #0xBC
   03CA A7                 2736 	.db #0xA7
   03CB 15                 2737 	.db #0x15
   03CC A8                 2738 	.db #0xA8
   03CD 83                 2739 	.db #0x83
   03CE 88                 2740 	.db #0x88
   03CF 09                 2741 	.db #0x09
   03D0 A4                 2742 	.db #0xA4
   03D1 80                 2743 	.db #0x80
   03D2 F2                 2744 	.db #0xF2
   03D3 5C                 2745 	.db #0x5C
   03D4 FA                 2746 	.db #0xFA
   03D5 51                 2747 	.db #0x51
   03D6 66                 2748 	.db #0x66
   03D7 8B                 2749 	.db #0x8B
   03D8 E4                 2750 	.db #0xE4
   03D9 57                 2751 	.db #0x57
   03DA 12                 2752 	.db #0x12
   03DB 3B                 2753 	.db #0x3B
   03DC 9C                 2754 	.db #0x9C
   03DD 0E                 2755 	.db #0x0E
   03DE 18                 2756 	.db #0x18
   03DF 69                 2757 	.db #0x69
   03E0 1F                 2758 	.db #0x1F
   03E1 7A                 2759 	.db #0x7A
   03E2 CD                 2760 	.db #0xCD
   03E3 AF                 2761 	.db #0xAF
   03E4 8E                 2762 	.db #0x8E
   03E5 71                 2763 	.db #0x71
   03E6 BF                 2764 	.db #0xBF
   03E7 A1                 2765 	.db #0xA1
   03E8 D2                 2766 	.db #0xD2
   03E9 B6                 2767 	.db #0xB6
   03EA E2                 2768 	.db #0xE2
   03EB 42                 2769 	.db #0x42
   03EC 9F                 2770 	.db #0x9F
   03ED F5                 2771 	.db #0xF5
   03EE DD                 2772 	.db #0xDD
   03EF 83                 2773 	.db #0x83
   03F0 9F                 2774 	.db #0x9F
   03F1 3A                 2775 	.db #0x3A
   03F2 F6                 2776 	.db #0xF6
   03F3 BC                 2777 	.db #0xBC
   03F4 05                 2778 	.db #0x05
   03F5 D9                 2779 	.db #0xD9
   03F6 0C                 2780 	.db #0x0C
   03F7 55                 2781 	.db #0x55
   03F8 49                 2782 	.db #0x49
   03F9 C9                 2783 	.db #0xC9
   03FA 28                 2784 	.db #0x28
   03FB 30                 2785 	.db #0x30
   03FC FF                 2786 	.db #0xFF
   03FD A7                 2787 	.db #0xA7
   03FE 1B                 2788 	.db #0x1B
   03FF 35                 2789 	.db #0x35
   0400 40                 2790 	.db #0x40
   0401 68                 2791 	.db #0x68
   0402 B7                 2792 	.db #0xB7
   0403 24                 2793 	.db #0x24
   0404 3B                 2794 	.db #0x3B
   0405 54                 2795 	.db #0x54
   0406 2A                 2796 	.db #0x2A
   0407 A1                 2797 	.db #0xA1
   0408 F3                 2798 	.db #0xF3
   0409 62                 2799 	.db #0x62
   040A 3D                 2800 	.db #0x3D
   040B 7A                 2801 	.db #0x7A
   040C 4E                 2802 	.db #0x4E
   040D 12                 2803 	.db #0x12
   040E 9C                 2804 	.db #0x9C
   040F E0                 2805 	.db #0xE0
   0410 0C                 2806 	.db #0x0C
   0411 58                 2807 	.db #0x58
   0412 E1                 2808 	.db #0xE1
   0413 29                 2809 	.db #0x29
   0414 F0                 2810 	.db #0xF0
   0415 8E                 2811 	.db #0x8E
   0416 67                 2812 	.db #0x67
   0417 4B                 2813 	.db #0x4B
   0418 F6                 2814 	.db #0xF6
   0419 D6                 2815 	.db #0xD6
   041A ED                 2816 	.db #0xED
   041B CF                 2817 	.db #0xCF
   041C F4                 2818 	.db #0xF4
   041D 2F                 2819 	.db #0x2F
   041E B3                 2820 	.db #0xB3
   041F DA                 2821 	.db #0xDA
   0420 0C                 2822 	.db #0x0C
   0421 13                 2823 	.db #0x13
   0422 D6                 2824 	.db #0xD6
   0423 36                 2825 	.db #0x36
   0424 E3                 2826 	.db #0xE3
   0425 C3                 2827 	.db #0xC3
   0426 19                 2828 	.db #0x19
   0427 F6                 2829 	.db #0xF6
   0428 DB                 2830 	.db #0xDB
   0429 3C                 2831 	.db #0x3C
   042A 2B                 2832 	.db #0x2B
   042B B8                 2833 	.db #0xB8
   042C 5F                 2834 	.db #0x5F
   042D 9E                 2835 	.db #0x9E
   042E 60                 2836 	.db #0x60
   042F 90                 2837 	.db #0x90
   0430 65                 2838 	.db #0x65
   0431 62                 2839 	.db #0x62
   0432 B0                 2840 	.db #0xB0
   0433 A6                 2841 	.db #0xA6
   0434 C9                 2842 	.db #0xC9
   0435 AF                 2843 	.db #0xAF
   0436 BD                 2844 	.db #0xBD
   0437 B5                 2845 	.db #0xB5
   0438 B3                 2846 	.db #0xB3
   0439 78                 2847 	.db #0x78
   043A 04                 2848 	.db #0x04
   043B 3C                 2849 	.db #0x3C
   043C FE                 2850 	.db #0xFE
   043D B0                 2851 	.db #0xB0
   043E 7C                 2852 	.db #0x7C
   043F B8                 2853 	.db #0xB8
   0440 D4                 2854 	.db #0xD4
   0441 F5                 2855 	.db #0xF5
   0442 3B                 2856 	.db #0x3B
   0443 8E                 2857 	.db #0x8E
   0444 B2                 2858 	.db #0xB2
   0445 4E                 2859 	.db #0x4E
   0446 F2                 2860 	.db #0xF2
   0447 67                 2861 	.db #0x67
   0448 D1                 2862 	.db #0xD1
   0449 49                 2863 	.db #0x49
   044A 3A                 2864 	.db #0x3A
   044B C6                 2865 	.db #0xC6
   044C 10                 2866 	.db #0x10
   044D A3                 2867 	.db #0xA3
   044E 04                 2868 	.db #0x04
   044F 09                 2869 	.db #0x09
   0450 CA                 2870 	.db #0xCA
   0451 DD                 2871 	.db #0xDD
   0452 BE                 2872 	.db #0xBE
   0453 A4                 2873 	.db #0xA4
   0454 E8                 2874 	.db #0xE8
   0455 2D                 2875 	.db #0x2D
   0456 BE                 2876 	.db #0xBE
   0457 72                 2877 	.db #0x72
   0458 64                 2878 	.db #0x64
   0459 98                 2879 	.db #0x98
   045A 15                 2880 	.db #0x15
   045B 56                 2881 	.db #0x56
   045C 32                 2882 	.db #0x32
   045D FF                 2883 	.db #0xFF
   045E F0                 2884 	.db #0xF0
   045F 8A                 2885 	.db #0x8A
   0460 8F                 2886 	.db #0x8F
   0461 0F                 2887 	.db #0x0F
   0462 36                 2888 	.db #0x36
   0463 77                 2889 	.db #0x77
   0464 68                 2890 	.db #0x68
   0465 8D                 2891 	.db #0x8D
   0466 FC                 2892 	.db #0xFC
   0467 36                 2893 	.db #0x36
   0468 AD                 2894 	.db #0xAD
   0469 CE                 2895 	.db #0xCE
   046A C8                 2896 	.db #0xC8
   046B A8                 2897 	.db #0xA8
   046C D8                 2898 	.db #0xD8
   046D 6A                 2899 	.db #0x6A
   046E AF                 2900 	.db #0xAF
   046F 92                 2901 	.db #0x92
   0470 86                 2902 	.db #0x86
   0471 D6                 2903 	.db #0xD6
   0472 21                 2904 	.db #0x21
   0473 CC                 2905 	.db #0xCC
   0474 04                 2906 	.db #0x04
   0475 0D                 2907 	.db #0x0D
   0476 E3                 2908 	.db #0xE3
   0477 85                 2909 	.db #0x85
   0478 3A                 2910 	.db #0x3A
   0479 50                 2911 	.db #0x50
   047A 79                 2912 	.db #0x79
   047B CA                 2913 	.db #0xCA
   047C 39                 2914 	.db #0x39
   047D 87                 2915 	.db #0x87
   047E 13                 2916 	.db #0x13
   047F F7                 2917 	.db #0xF7
   0480 B6                 2918 	.db #0xB6
   0481 1E                 2919 	.db #0x1E
   0482 05                 2920 	.db #0x05
   0483 9D                 2921 	.db #0x9D
   0484 0B                 2922 	.db #0x0B
   0485 3D                 2923 	.db #0x3D
   0486 1B                 2924 	.db #0x1B
   0487 A0                 2925 	.db #0xA0
   0488 0C                 2926 	.db #0x0C
   0489 E6                 2927 	.db #0xE6
   048A ED                 2928 	.db #0xED
   048B B5                 2929 	.db #0xB5
   048C 95                 2930 	.db #0x95
   048D 6B                 2931 	.db #0x6B
   048E B2                 2932 	.db #0xB2
   048F FE                 2933 	.db #0xFE
   0490 32                 2934 	.db #0x32
   0491 31                 2935 	.db #0x31
   0492 FF                 2936 	.db #0xFF
   0493 E3                 2937 	.db #0xE3
   0494 AF                 2938 	.db #0xAF
   0495 9D                 2939 	.db #0x9D
   0496 BC                 2940 	.db #0xBC
   0497 93                 2941 	.db #0x93
   0498 50                 2942 	.db #0x50
   0499 0E                 2943 	.db #0x0E
   049A 06                 2944 	.db #0x06
   049B 4D                 2945 	.db #0x4D
   049C C3                 2946 	.db #0xC3
   049D B9                 2947 	.db #0xB9
   049E F2                 2948 	.db #0xF2
   049F 24                 2949 	.db #0x24
   04A0 0E                 2950 	.db #0x0E
   04A1 4F                 2951 	.db #0x4F
   04A2 DF                 2952 	.db #0xDF
   04A3 18                 2953 	.db #0x18
   04A4 80                 2954 	.db #0x80
   04A5 E4                 2955 	.db #0xE4
   04A6 58                 2956 	.db #0x58
   04A7 21                 2957 	.db #0x21
   04A8 3B                 2958 	.db #0x3B
   04A9 76                 2959 	.db #0x76
   04AA CB                 2960 	.db #0xCB
   04AB 0C                 2961 	.db #0x0C
   04AC 4C                 2962 	.db #0x4C
   04AD DA                 2963 	.db #0xDA
   04AE 0D                 2964 	.db #0x0D
   04AF 2D                 2965 	.db #0x2D
   04B0 CB                 2966 	.db #0xCB
   04B1 BA                 2967 	.db #0xBA
   04B2 28                 2968 	.db #0x28
   04B3 60                 2969 	.db #0x60
   04B4 4F                 2970 	.db #0x4F
   04B5 C6                 2971 	.db #0xC6
   04B6 78                 2972 	.db #0x78
   04B7 4C                 2973 	.db #0x4C
   04B8 64                 2974 	.db #0x64
   04B9 EE                 2975 	.db #0xEE
   04BA 38                 2976 	.db #0x38
   04BB 8A                 2977 	.db #0x8A
   04BC 59                 2978 	.db #0x59
   04BD 49                 2979 	.db #0x49
   04BE 06                 2980 	.db #0x06
   04BF E1                 2981 	.db #0xE1
   04C0 D1                 2982 	.db #0xD1
   04C1 DE                 2983 	.db #0xDE
   04C2 A8                 2984 	.db #0xA8
   04C3 38                 2985 	.db #0x38
   04C4 3D                 2986 	.db #0x3D
   04C5 21                 2987 	.db #0x21
   04C6 B3                 2988 	.db #0xB3
   04C7 67                 2989 	.db #0x67
   04C8 18                 2990 	.db #0x18
   04C9 EE                 2991 	.db #0xEE
   04CA DA                 2992 	.db #0xDA
   04CB 45                 2993 	.db #0x45
   04CC 46                 2994 	.db #0x46
   04CD A5                 2995 	.db #0xA5
   04CE 6B                 2996 	.db #0x6B
   04CF 93                 2997 	.db #0x93
   04D0 FF                 2998 	.db #0xFF
   04D1 46                 2999 	.db #0x46
   04D2 46                 3000 	.db #0x46
   04D3 12                 3001 	.db #0x12
   04D4 D0                 3002 	.db #0xD0
   04D5 1D                 3003 	.db #0x1D
   04D6 68                 3004 	.db #0x68
   04D7 1F                 3005 	.db #0x1F
   04D8 99                 3006 	.db #0x99
   04D9 4A                 3007 	.db #0x4A
   04DA 6A                 3008 	.db #0x6A
   04DB 6F                 3009 	.db #0x6F
   04DC 78                 3010 	.db #0x78
   04DD 2D                 3011 	.db #0x2D
   04DE 54                 3012 	.db #0x54
   04DF 2F                 3013 	.db #0x2F
   04E0 C5                 3014 	.db #0xC5
   04E1 2F                 3015 	.db #0x2F
   04E2 42                 3016 	.db #0x42
   04E3 00                 3017 	.db #0x00
   04E4 88                 3018 	.db #0x88
   04E5 FB                 3019 	.db #0xFB
   04E6 FF                 3020 	.db #0xFF
   04E7 18                 3021 	.db #0x18
   04E8 EA                 3022 	.db #0xEA
   04E9 F5                 3023 	.db #0xF5
   04EA 22                 3024 	.db #0x22
   04EB D7                 3025 	.db #0xD7
   04EC 25                 3026 	.db #0x25
   04ED AF                 3027 	.db #0xAF
   04EE 49                 3028 	.db #0x49
   04EF 83                 3029 	.db #0x83
   04F0 CE                 3030 	.db #0xCE
   04F1 FE                 3031 	.db #0xFE
   04F2 0B                 3032 	.db #0x0B
   04F3 66                 3033 	.db #0x66
   04F4 F4                 3034 	.db #0xF4
   04F5 0B                 3035 	.db #0x0B
   04F6 CE                 3036 	.db #0xCE
   04F7 B8                 3037 	.db #0xB8
   04F8 42                 3038 	.db #0x42
   04F9 E9                 3039 	.db #0xE9
   04FA 98                 3040 	.db #0x98
   04FB 86                 3041 	.db #0x86
   04FC 26                 3042 	.db #0x26
   04FD 75                 3043 	.db #0x75
   04FE B4                 3044 	.db #0xB4
   04FF DB                 3045 	.db #0xDB
   0500 4B                 3046 	.db #0x4B
   0501 6E                 3047 	.db #0x6E
   0502 C9                 3048 	.db #0xC9
   0503 CA                 3049 	.db #0xCA
   0504 E6                 3050 	.db #0xE6
   0505 9E                 3051 	.db #0x9E
   0506 CC                 3052 	.db #0xCC
   0507 5D                 3053 	.db #0x5D
   0508 B6                 3054 	.db #0xB6
   0509 D5                 3055 	.db #0xD5
   050A A5                 3056 	.db #0xA5
   050B FC                 3057 	.db #0xFC
   050C 31                 3058 	.db #0x31
   050D 84                 3059 	.db #0x84
   050E 92                 3060 	.db #0x92
   050F F2                 3061 	.db #0xF2
   0510 00                 3062 	.db #0x00
   0511 BA                 3063 	.db #0xBA
   0512 92                 3064 	.db #0x92
   0513 B3                 3065 	.db #0xB3
   0514 13                 3066 	.db #0x13
   0515 7A                 3067 	.db #0x7A
   0516 C9                 3068 	.db #0xC9
   0517 49                 3069 	.db #0x49
   0518 55                 3070 	.db #0x55
   0519 3B                 3071 	.db #0x3B
   051A 0C                 3072 	.db #0x0C
   051B 46                 3073 	.db #0x46
   051C 19                 3074 	.db #0x19
   051D 15                 3075 	.db #0x15
   051E FE                 3076 	.db #0xFE
   051F 04                 3077 	.db #0x04
   0520 8C                 3078 	.db #0x8C
   0521 DF                 3079 	.db #0xDF
   0522 E4                 3080 	.db #0xE4
   0523 45                 3081 	.db #0x45
   0524 99                 3082 	.db #0x99
   0525 98                 3083 	.db #0x98
   0526 3D                 3084 	.db #0x3D
   0527 65                 3085 	.db #0x65
   0528 5C                 3086 	.db #0x5C
   0529 8E                 3087 	.db #0x8E
   052A 10                 3088 	.db #0x10
   052B FA                 3089 	.db #0xFA
   052C A6                 3090 	.db #0xA6
   052D F8                 3091 	.db #0xF8
   052E 78                 3092 	.db #0x78
   052F 99                 3093 	.db #0x99
   0530 0D                 3094 	.db #0x0D
   0531 3B                 3095 	.db #0x3B
   0532 1E                 3096 	.db #0x1E
   0533 2C                 3097 	.db #0x2C
   0534 1D                 3098 	.db #0x1D
   0535 E1                 3099 	.db #0xE1
   0536 83                 3100 	.db #0x83
   0537 12                 3101 	.db #0x12
   0538 37                 3102 	.db #0x37
   0539 85                 3103 	.db #0x85
   053A 5F                 3104 	.db #0x5F
   053B BD                 3105 	.db #0xBD
   053C 97                 3106 	.db #0x97
   053D 85                 3107 	.db #0x85
   053E 49                 3108 	.db #0x49
   053F BB                 3109 	.db #0xBB
   0540 A2                 3110 	.db #0xA2
   0541 B5                 3111 	.db #0xB5
   0542 79                 3112 	.db #0x79
   0543 62                 3113 	.db #0x62
   0544 04                 3114 	.db #0x04
   0545 E8                 3115 	.db #0xE8
   0546 98                 3116 	.db #0x98
   0547 FA                 3117 	.db #0xFA
   0548 B0                 3118 	.db #0xB0
   0549 16                 3119 	.db #0x16
   054A D4                 3120 	.db #0xD4
   054B 9C                 3121 	.db #0x9C
   054C 15                 3122 	.db #0x15
   054D 21                 3123 	.db #0x21
   054E 20                 3124 	.db #0x20
   054F 34                 3125 	.db #0x34
   0550 12                 3126 	.db #0x12
   0551 9F                 3127 	.db #0x9F
   0552 4D                 3128 	.db #0x4D
   0553 E8                 3129 	.db #0xE8
   0554 40                 3130 	.db #0x40
   0555 94                 3131 	.db #0x94
   0556 2D                 3132 	.db #0x2D
   0557 87                 3133 	.db #0x87
   0558 CF                 3134 	.db #0xCF
   0559 E1                 3135 	.db #0xE1
   055A 51                 3136 	.db #0x51
   055B FE                 3137 	.db #0xFE
   055C 52                 3138 	.db #0x52
   055D 66                 3139 	.db #0x66
   055E 3E                 3140 	.db #0x3E
   055F BC                 3141 	.db #0xBC
   0560 BB                 3142 	.db #0xBB
   0561 20                 3143 	.db #0x20
   0562 C9                 3144 	.db #0xC9
   0563 A2                 3145 	.db #0xA2
   0564 3E                 3146 	.db #0x3E
   0565 53                 3147 	.db #0x53
   0566 61                 3148 	.db #0x61
   0567 E7                 3149 	.db #0xE7
   0568 CE                 3150 	.db #0xCE
   0569 4C                 3151 	.db #0x4C
   056A 53                 3152 	.db #0x53
   056B 6B                 3153 	.db #0x6B
   056C 79                 3154 	.db #0x79
   056D 84                 3155 	.db #0x84
   056E 0F                 3156 	.db #0x0F
   056F 19                 3157 	.db #0x19
   0570 27                 3158 	.db #0x27
   0571 6A                 3159 	.db #0x6A
   0572 30                 3160 	.db #0x30
   0573 4C                 3161 	.db #0x4C
   0574 2D                 3162 	.db #0x2D
   0575 62                 3163 	.db #0x62
   0576 A8                 3164 	.db #0xA8
   0577 E0                 3165 	.db #0xE0
   0578 6A                 3166 	.db #0x6A
   0579 F0                 3167 	.db #0xF0
   057A C9                 3168 	.db #0xC9
   057B 8C                 3169 	.db #0x8C
   057C 25                 3170 	.db #0x25
   057D 60                 3171 	.db #0x60
   057E 27                 3172 	.db #0x27
   057F D2                 3173 	.db #0xD2
   0580 D3                 3174 	.db #0xD3
   0581 8A                 3175 	.db #0x8A
   0582 6A                 3176 	.db #0x6A
   0583 DF                 3177 	.db #0xDF
   0584 6E                 3178 	.db #0x6E
   0585 7E                 3179 	.db #0x7E
   0586 30                 3180 	.db #0x30
   0587 DC                 3181 	.db #0xDC
   0588 C8                 3182 	.db #0xC8
   0589 71                 3183 	.db #0x71
   058A 44                 3184 	.db #0x44
   058B E0                 3185 	.db #0xE0
   058C AE                 3186 	.db #0xAE
   058D 41                 3187 	.db #0x41
   058E 28                 3188 	.db #0x28
   058F F0                 3189 	.db #0xF0
   0590 91                 3190 	.db #0x91
   0591 FC                 3191 	.db #0xFC
   0592 68                 3192 	.db #0x68
   0593 99                 3193 	.db #0x99
   0594 A3                 3194 	.db #0xA3
   0595 06                 3195 	.db #0x06
   0596 9C                 3196 	.db #0x9C
   0597 9A                 3197 	.db #0x9A
   0598 D1                 3198 	.db #0xD1
   0599 62                 3199 	.db #0x62
   059A 8F                 3200 	.db #0x8F
   059B 7A                 3201 	.db #0x7A
   059C E5                 3202 	.db #0xE5
   059D 12                 3203 	.db #0x12
   059E 0B                 3204 	.db #0x0B
   059F 75                 3205 	.db #0x75
   05A0 23                 3206 	.db #0x23
   05A1 DA                 3207 	.db #0xDA
   05A2 7D                 3208 	.db #0x7D
   05A3 EE                 3209 	.db #0xEE
   05A4 90                 3210 	.db #0x90
   05A5 31                 3211 	.db #0x31
   05A6 5E                 3212 	.db #0x5E
   05A7 A4                 3213 	.db #0xA4
   05A8 D3                 3214 	.db #0xD3
   05A9 12                 3215 	.db #0x12
   05AA 4E                 3216 	.db #0x4E
   05AB 81                 3217 	.db #0x81
   05AC 27                 3218 	.db #0x27
   05AD A1                 3219 	.db #0xA1
   05AE 2B                 3220 	.db #0x2B
   05AF 1F                 3221 	.db #0x1F
   05B0 B3                 3222 	.db #0xB3
   05B1 77                 3223 	.db #0x77
   05B2 95                 3224 	.db #0x95
   05B3 7A                 3225 	.db #0x7A
   05B4 C7                 3226 	.db #0xC7
   05B5 C2                 3227 	.db #0xC2
   05B6 FC                 3228 	.db #0xFC
   05B7 4B                 3229 	.db #0x4B
   05B8 B8                 3230 	.db #0xB8
   05B9 1C                 3231 	.db #0x1C
   05BA 50                 3232 	.db #0x50
   05BB CC                 3233 	.db #0xCC
   05BC 71                 3234 	.db #0x71
   05BD F7                 3235 	.db #0xF7
   05BE C7                 3236 	.db #0xC7
   05BF 34                 3237 	.db #0x34
   05C0 89                 3238 	.db #0x89
   05C1 21                 3239 	.db #0x21
   05C2 54                 3240 	.db #0x54
   05C3 0A                 3241 	.db #0x0A
   05C4 91                 3242 	.db #0x91
   05C5 0C                 3243 	.db #0x0C
   05C6 59                 3244 	.db #0x59
   05C7 90                 3245 	.db #0x90
   05C8 46                 3246 	.db #0x46
   05C9 44                 3247 	.db #0x44
   05CA B2                 3248 	.db #0xB2
   05CB 5B                 3249 	.db #0x5B
   05CC 27                 3250 	.db #0x27
   05CD A6                 3251 	.db #0xA6
   05CE 77                 3252 	.db #0x77
   05CF 60                 3253 	.db #0x60
   05D0 D2                 3254 	.db #0xD2
   05D1 05                 3255 	.db #0x05
   05D2 46                 3256 	.db #0x46
   05D3 8B                 3257 	.db #0x8B
   05D4 40                 3258 	.db #0x40
   05D5 46                 3259 	.db #0x46
   05D6 B6                 3260 	.db #0xB6
   05D7 2D                 3261 	.db #0x2D
   05D8 BC                 3262 	.db #0xBC
   05D9 D9                 3263 	.db #0xD9
   05DA D9                 3264 	.db #0xD9
   05DB AE                 3265 	.db #0xAE
   05DC 3B                 3266 	.db #0x3B
   05DD 28                 3267 	.db #0x28
   05DE BF                 3268 	.db #0xBF
   05DF 0E                 3269 	.db #0x0E
   05E0 EB                 3270 	.db #0xEB
   05E1 2F                 3271 	.db #0x2F
   05E2 D0                 3272 	.db #0xD0
   05E3 87                 3273 	.db #0x87
   05E4 E3                 3274 	.db #0xE3
   05E5 D5                 3275 	.db #0xD5
   05E6 6C                 3276 	.db #0x6C
   05E7 E8                 3277 	.db #0xE8
   05E8 61                 3278 	.db #0x61
   05E9 82                 3279 	.db #0x82
   05EA EF                 3280 	.db #0xEF
   05EB 97                 3281 	.db #0x97
   05EC 69                 3282 	.db #0x69
   05ED BE                 3283 	.db #0xBE
   05EE 75                 3284 	.db #0x75
   05EF 6E                 3285 	.db #0x6E
   05F0 8A                 3286 	.db #0x8A
   05F1 60                 3287 	.db #0x60
   05F2 D9                 3288 	.db #0xD9
   05F3 37                 3289 	.db #0x37
   05F4 35                 3290 	.db #0x35
   05F5 30                 3291 	.db #0x30
   05F6 1F                 3292 	.db #0x1F
   05F7 DC                 3293 	.db #0xDC
   05F8 59                 3294 	.db #0x59
   05F9 C1                 3295 	.db #0xC1
   05FA 93                 3296 	.db #0x93
   05FB E0                 3297 	.db #0xE0
   05FC 3A                 3298 	.db #0x3A
   05FD 33                 3299 	.db #0x33
   05FE BD                 3300 	.db #0xBD
   05FF DA                 3301 	.db #0xDA
   0600 0D                 3302 	.db #0x0D
   0601 4F                 3303 	.db #0x4F
   0602 45                 3304 	.db #0x45
   0603 E2                 3305 	.db #0xE2
   0604 22                 3306 	.db #0x22
   0605 E5                 3307 	.db #0xE5
   0606 08                 3308 	.db #0x08
   0607 EB                 3309 	.db #0xEB
   0608 23                 3310 	.db #0x23
   0609 9D                 3311 	.db #0x9D
   060A 56                 3312 	.db #0x56
   060B C0                 3313 	.db #0xC0
   060C 46                 3314 	.db #0x46
   060D 0B                 3315 	.db #0x0B
   060E DB                 3316 	.db #0xDB
   060F AE                 3317 	.db #0xAE
   0610 10                 3318 	.db #0x10
   0611 6F                 3319 	.db #0x6F
   0612 98                 3320 	.db #0x98
   0613 40                 3321 	.db #0x40
   0614 32                 3322 	.db #0x32
   0615 80                 3323 	.db #0x80
   0616 13                 3324 	.db #0x13
   0617 AE                 3325 	.db #0xAE
   0618 20                 3326 	.db #0x20
   0619 1A                 3327 	.db #0x1A
   061A D3                 3328 	.db #0xD3
   061B 04                 3329 	.db #0x04
   061C 60                 3330 	.db #0x60
   061D 0F                 3331 	.db #0x0F
   061E F8                 3332 	.db #0xF8
   061F BE                 3333 	.db #0xBE
   0620 1E                 3334 	.db #0x1E
   0621 47                 3335 	.db #0x47
   0622 55                 3336 	.db #0x55
   0623 9C                 3337 	.db #0x9C
   0624 CD                 3338 	.db #0xCD
   0625 B7                 3339 	.db #0xB7
   0626 21                 3340 	.db #0x21
   0627 25                 3341 	.db #0x25
   0628 12                 3342 	.db #0x12
   0629 E3                 3343 	.db #0xE3
   062A 27                 3344 	.db #0x27
   062B 06                 3345 	.db #0x06
   062C E6                 3346 	.db #0xE6
   062D D6                 3347 	.db #0xD6
   062E 5F                 3348 	.db #0x5F
   062F A6                 3349 	.db #0xA6
   0630 E7                 3350 	.db #0xE7
   0631 30                 3351 	.db #0x30
   0632 61                 3352 	.db #0x61
   0633 E4                 3353 	.db #0xE4
   0634 5A                 3354 	.db #0x5A
   0635 84                 3355 	.db #0x84
   0636 38                 3356 	.db #0x38
   0637 BC                 3357 	.db #0xBC
   0638 E9                 3358 	.db #0xE9
   0639 0C                 3359 	.db #0x0C
   063A 91                 3360 	.db #0x91
   063B DF                 3361 	.db #0xDF
   063C C6                 3362 	.db #0xC6
   063D B1                 3363 	.db #0xB1
   063E AF                 3364 	.db #0xAF
   063F CF                 3365 	.db #0xCF
   0640 33                 3366 	.db #0x33
   0641 A8                 3367 	.db #0xA8
   0642 74                 3368 	.db #0x74
   0643 83                 3369 	.db #0x83
   0644 E6                 3370 	.db #0xE6
   0645 E8                 3371 	.db #0xE8
   0646 48                 3372 	.db #0x48
   0647 2C                 3373 	.db #0x2C
   0648 19                 3374 	.db #0x19
   0649 4D                 3375 	.db #0x4D
   064A 0A                 3376 	.db #0x0A
   064B 4B                 3377 	.db #0x4B
   064C F1                 3378 	.db #0xF1
   064D A6                 3379 	.db #0xA6
   064E DE                 3380 	.db #0xDE
   064F A8                 3381 	.db #0xA8
   0650 A6                 3382 	.db #0xA6
   0651 F4                 3383 	.db #0xF4
   0652 BA                 3384 	.db #0xBA
   0653 C9                 3385 	.db #0xC9
   0654 B5                 3386 	.db #0xB5
   0655 27                 3387 	.db #0x27
   0656 D4                 3388 	.db #0xD4
   0657 2F                 3389 	.db #0x2F
   0658 F5                 3390 	.db #0xF5
   0659 A7                 3391 	.db #0xA7
   065A 48                 3392 	.db #0x48
   065B B1                 3393 	.db #0xB1
   065C 9A                 3394 	.db #0x9A
   065D D7                 3395 	.db #0xD7
   065E 37                 3396 	.db #0x37
   065F 22                 3397 	.db #0x22
   0660 4B                 3398 	.db #0x4B
   0661 5E                 3399 	.db #0x5E
   0662 8D                 3400 	.db #0x8D
   0663 E0                 3401 	.db #0xE0
   0664 52                 3402 	.db #0x52
   0665 C8                 3403 	.db #0xC8
   0666 97                 3404 	.db #0x97
   0667 00                 3405 	.db #0x00
   0668 FC                 3406 	.db #0xFC
   0669 8D                 3407 	.db #0x8D
   066A F1                 3408 	.db #0xF1
   066B 4F                 3409 	.db #0x4F
   066C 7A                 3410 	.db #0x7A
   066D 5B                 3411 	.db #0x5B
   066E AD                 3412 	.db #0xAD
   066F 82                 3413 	.db #0x82
   0670 19                 3414 	.db #0x19
   0671 3A                 3415 	.db #0x3A
   0672 E5                 3416 	.db #0xE5
   0673 3F                 3417 	.db #0x3F
   0674 E3                 3418 	.db #0xE3
   0675 17                 3419 	.db #0x17
   0676 3C                 3420 	.db #0x3C
   0677 BE                 3421 	.db #0xBE
   0678 9C                 3422 	.db #0x9C
   0679 8A                 3423 	.db #0x8A
   067A EF                 3424 	.db #0xEF
   067B 5A                 3425 	.db #0x5A
   067C 55                 3426 	.db #0x55
   067D 42                 3427 	.db #0x42
   067E 3C                 3428 	.db #0x3C
   067F 39                 3429 	.db #0x39
   0680 AF                 3430 	.db #0xAF
   0681 57                 3431 	.db #0x57
   0682 88                 3432 	.db #0x88
   0683 19                 3433 	.db #0x19
   0684 5D                 3434 	.db #0x5D
   0685 D7                 3435 	.db #0xD7
   0686 14                 3436 	.db #0x14
   0687 CA                 3437 	.db #0xCA
   0688 2E                 3438 	.db #0x2E
   0689 37                 3439 	.db #0x37
   068A 36                 3440 	.db #0x36
   068B 96                 3441 	.db #0x96
   068C 1F                 3442 	.db #0x1F
   068D 0C                 3443 	.db #0x0C
   068E 50                 3444 	.db #0x50
   068F D7                 3445 	.db #0xD7
   0690 57                 3446 	.db #0x57
   0691 0C                 3447 	.db #0x0C
   0692 00                 3448 	.db #0x00
   0693 46                 3449 	.db #0x46
   0694 CC                 3450 	.db #0xCC
   0695 7D                 3451 	.db #0x7D
   0696 F6                 3452 	.db #0xF6
   0697 11                 3453 	.db #0x11
   0698 AA                 3454 	.db #0xAA
   0699 97                 3455 	.db #0x97
   069A 93                 3456 	.db #0x93
   069B 8A                 3457 	.db #0x8A
   069C 3C                 3458 	.db #0x3C
   069D 10                 3459 	.db #0x10
   069E 9C                 3460 	.db #0x9C
   069F 3C                 3461 	.db #0x3C
   06A0 4C                 3462 	.db #0x4C
   06A1 60                 3463 	.db #0x60
   06A2 B1                 3464 	.db #0xB1
   06A3 DF                 3465 	.db #0xDF
   06A4 D0                 3466 	.db #0xD0
   06A5 C2                 3467 	.db #0xC2
   06A6 01                 3468 	.db #0x01
   06A7 BD                 3469 	.db #0xBD
   06A8 B4                 3470 	.db #0xB4
   06A9 46                 3471 	.db #0x46
   06AA 86                 3472 	.db #0x86
   06AB 3F                 3473 	.db #0x3F
   06AC B9                 3474 	.db #0xB9
   06AD BC                 3475 	.db #0xBC
   06AE 3B                 3476 	.db #0x3B
   06AF 88                 3477 	.db #0x88
   06B0 4B                 3478 	.db #0x4B
   06B1 C2                 3479 	.db #0xC2
   06B2 34                 3480 	.db #0x34
   06B3 09                 3481 	.db #0x09
   06B4 89                 3482 	.db #0x89
   06B5 7C                 3483 	.db #0x7C
   06B6 31                 3484 	.db #0x31
   06B7 68                 3485 	.db #0x68
   06B8 AD                 3486 	.db #0xAD
   06B9 C2                 3487 	.db #0xC2
   06BA 4A                 3488 	.db #0x4A
   06BB 3E                 3489 	.db #0x3E
   06BC 44                 3490 	.db #0x44
   06BD FF                 3491 	.db #0xFF
   06BE 51                 3492 	.db #0x51
   06BF DB                 3493 	.db #0xDB
   06C0 5A                 3494 	.db #0x5A
   06C1 A3                 3495 	.db #0xA3
   06C2 1F                 3496 	.db #0x1F
   06C3 DD                 3497 	.db #0xDD
   06C4 2E                 3498 	.db #0x2E
   06C5 31                 3499 	.db #0x31
   06C6 5B                 3500 	.db #0x5B
   06C7 A9                 3501 	.db #0xA9
   06C8 8B                 3502 	.db #0x8B
   06C9 A0                 3503 	.db #0xA0
   06CA A6                 3504 	.db #0xA6
   06CB F1                 3505 	.db #0xF1
   06CC 4B                 3506 	.db #0x4B
   06CD 93                 3507 	.db #0x93
   06CE BA                 3508 	.db #0xBA
   06CF F1                 3509 	.db #0xF1
   06D0 E5                 3510 	.db #0xE5
   06D1 F4                 3511 	.db #0xF4
   06D2 06                 3512 	.db #0x06
   06D3 18                 3513 	.db #0x18
   06D4 63                 3514 	.db #0x63
   06D5 00                 3515 	.db #0x00
   06D6 39                 3516 	.db #0x39
   06D7 A7                 3517 	.db #0xA7
   06D8 76                 3518 	.db #0x76
   06D9 81                 3519 	.db #0x81
   06DA 24                 3520 	.db #0x24
   06DB 97                 3521 	.db #0x97
   06DC 16                 3522 	.db #0x16
   06DD 5E                 3523 	.db #0x5E
   06DE 33                 3524 	.db #0x33
   06DF 66                 3525 	.db #0x66
   06E0 66                 3526 	.db #0x66
   06E1 E8                 3527 	.db #0xE8
   06E2 15                 3528 	.db #0x15
   06E3 A7                 3529 	.db #0xA7
   06E4 EB                 3530 	.db #0xEB
   06E5 28                 3531 	.db #0x28
   06E6 0F                 3532 	.db #0x0F
   06E7 2B                 3533 	.db #0x2B
   06E8 7F                 3534 	.db #0x7F
   06E9 A3                 3535 	.db #0xA3
   06EA 83                 3536 	.db #0x83
   06EB D7                 3537 	.db #0xD7
   06EC 0F                 3538 	.db #0x0F
   06ED 35                 3539 	.db #0x35
   06EE E9                 3540 	.db #0xE9
   06EF 4B                 3541 	.db #0x4B
   06F0 C6                 3542 	.db #0xC6
   06F1 D4                 3543 	.db #0xD4
   06F2 F4                 3544 	.db #0xF4
   06F3 B6                 3545 	.db #0xB6
   06F4 87                 3546 	.db #0x87
   06F5 38                 3547 	.db #0x38
   06F6 F0                 3548 	.db #0xF0
   06F7 3A                 3549 	.db #0x3A
   06F8 84                 3550 	.db #0x84
   06F9 7B                 3551 	.db #0x7B
   06FA 7E                 3552 	.db #0x7E
   06FB B2                 3553 	.db #0xB2
   06FC 85                 3554 	.db #0x85
   06FD 29                 3555 	.db #0x29
   06FE 8D                 3556 	.db #0x8D
   06FF 76                 3557 	.db #0x76
   0700 5F                 3558 	.db #0x5F
   0701 CB                 3559 	.db #0xCB
   0702 62                 3560 	.db #0x62
   0703 D2                 3561 	.db #0xD2
   0704 38                 3562 	.db #0x38
   0705 60                 3563 	.db #0x60
   0706 73                 3564 	.db #0x73
   0707 44                 3565 	.db #0x44
   0708 0B                 3566 	.db #0x0B
   0709 04                 3567 	.db #0x04
   070A DF                 3568 	.db #0xDF
   070B 96                 3569 	.db #0x96
   070C FD                 3570 	.db #0xFD
   070D 38                 3571 	.db #0x38
   070E F8                 3572 	.db #0xF8
   070F D6                 3573 	.db #0xD6
   0710 55                 3574 	.db #0x55
   0711 FF                 3575 	.db #0xFF
   0712 B8                 3576 	.db #0xB8
   0713 F9                 3577 	.db #0xF9
   0714 24                 3578 	.db #0x24
   0715 39                 3579 	.db #0x39
   0716 54                 3580 	.db #0x54
   0717 CD                 3581 	.db #0xCD
   0718 44                 3582 	.db #0x44
   0719 95                 3583 	.db #0x95
   071A E7                 3584 	.db #0xE7
   071B 60                 3585 	.db #0x60
   071C FA                 3586 	.db #0xFA
   071D 04                 3587 	.db #0x04
   071E 6D                 3588 	.db #0x6D
   071F 31                 3589 	.db #0x31
   0720 66                 3590 	.db #0x66
   0721 1C                 3591 	.db #0x1C
   0722 6D                 3592 	.db #0x6D
   0723 CE                 3593 	.db #0xCE
   0724 64                 3594 	.db #0x64
   0725 20                 3595 	.db #0x20
   0726 A6                 3596 	.db #0xA6
   0727 11                 3597 	.db #0x11
   0728 6E                 3598 	.db #0x6E
   0729 EA                 3599 	.db #0xEA
   072A 1B                 3600 	.db #0x1B
   072B 91                 3601 	.db #0x91
   072C B3                 3602 	.db #0xB3
   072D F2                 3603 	.db #0xF2
   072E 14                 3604 	.db #0x14
   072F 80                 3605 	.db #0x80
   0730 B4                 3606 	.db #0xB4
   0731 83                 3607 	.db #0x83
   0732 B3                 3608 	.db #0xB3
   0733 44                 3609 	.db #0x44
   0734 18                 3610 	.db #0x18
   0735 5B                 3611 	.db #0x5B
   0736 FF                 3612 	.db #0xFF
   0737 31                 3613 	.db #0x31
   0738 3A                 3614 	.db #0x3A
   0739 E0                 3615 	.db #0xE0
   073A 23                 3616 	.db #0x23
   073B 00                 3617 	.db #0x00
   073C EC                 3618 	.db #0xEC
   073D D8                 3619 	.db #0xD8
   073E C5                 3620 	.db #0xC5
   073F 24                 3621 	.db #0x24
   0740 C1                 3622 	.db #0xC1
   0741 95                 3623 	.db #0x95
   0742 EC                 3624 	.db #0xEC
   0743 D0                 3625 	.db #0xD0
   0744 FE                 3626 	.db #0xFE
   0745 9F                 3627 	.db #0x9F
   0746 3B                 3628 	.db #0x3B
   0747 16                 3629 	.db #0x16
   0748 D8                 3630 	.db #0xD8
   0749 65                 3631 	.db #0x65
   074A 36                 3632 	.db #0x36
   074B B7                 3633 	.db #0xB7
   074C 41                 3634 	.db #0x41
   074D F7                 3635 	.db #0xF7
   074E 56                 3636 	.db #0x56
   074F 43                 3637 	.db #0x43
   0750 06                 3638 	.db #0x06
   0751 4C                 3639 	.db #0x4C
   0752 10                 3640 	.db #0x10
   0753 32                 3641 	.db #0x32
   0754 A2                 3642 	.db #0xA2
   0755 D5                 3643 	.db #0xD5
   0756 B7                 3644 	.db #0xB7
   0757 B0                 3645 	.db #0xB0
   0758 F4                 3646 	.db #0xF4
   0759 C5                 3647 	.db #0xC5
   075A 49                 3648 	.db #0x49
   075B 17                 3649 	.db #0x17
   075C AA                 3650 	.db #0xAA
   075D 9A                 3651 	.db #0x9A
   075E 28                 3652 	.db #0x28
   075F 9C                 3653 	.db #0x9C
   0760 FD                 3654 	.db #0xFD
   0761 6B                 3655 	.db #0x6B
   0762 54                 3656 	.db #0x54
   0763 AF                 3657 	.db #0xAF
   0764 C9                 3658 	.db #0xC9
   0765 75                 3659 	.db #0x75
   0766 11                 3660 	.db #0x11
   0767 D9                 3661 	.db #0xD9
   0768 F4                 3662 	.db #0xF4
   0769 D2                 3663 	.db #0xD2
   076A 3E                 3664 	.db #0x3E
   076B 92                 3665 	.db #0x92
   076C 8A                 3666 	.db #0x8A
   076D A4                 3667 	.db #0xA4
   076E 0F                 3668 	.db #0x0F
   076F D0                 3669 	.db #0xD0
   0770 21                 3670 	.db #0x21
   0771 4A                 3671 	.db #0x4A
   0772 F4                 3672 	.db #0xF4
   0773 B5                 3673 	.db #0xB5
   0774 4B                 3674 	.db #0x4B
   0775 04                 3675 	.db #0x04
   0776 10                 3676 	.db #0x10
   0777 5D                 3677 	.db #0x5D
   0778 7C                 3678 	.db #0x7C
   0779 30                 3679 	.db #0x30
   077A 14                 3680 	.db #0x14
   077B FE                 3681 	.db #0xFE
   077C E0                 3682 	.db #0xE0
   077D 7B                 3683 	.db #0x7B
   077E 39                 3684 	.db #0x39
   077F 02                 3685 	.db #0x02
   0780 45                 3686 	.db #0x45
   0781 38                 3687 	.db #0x38
   0782 A8                 3688 	.db #0xA8
   0783 19                 3689 	.db #0x19
   0784 BB                 3690 	.db #0xBB
   0785 B2                 3691 	.db #0xB2
   0786 C6                 3692 	.db #0xC6
   0787 C7                 3693 	.db #0xC7
   0788 37                 3694 	.db #0x37
   0789 56                 3695 	.db #0x56
   078A 0C                 3696 	.db #0x0C
   078B D9                 3697 	.db #0xD9
   078C 2B                 3698 	.db #0x2B
   078D 06                 3699 	.db #0x06
   078E F9                 3700 	.db #0xF9
   078F 8E                 3701 	.db #0x8E
   0790 F5                 3702 	.db #0xF5
   0791 73                 3703 	.db #0x73
   0792 CC                 3704 	.db #0xCC
   0793 90                 3705 	.db #0x90
   0794 2B                 3706 	.db #0x2B
   0795 94                 3707 	.db #0x94
   0796 2A                 3708 	.db #0x2A
   0797 58                 3709 	.db #0x58
   0798 38                 3710 	.db #0x38
   0799 92                 3711 	.db #0x92
   079A 8C                 3712 	.db #0x8C
   079B 39                 3713 	.db #0x39
   079C 20                 3714 	.db #0x20
   079D AF                 3715 	.db #0xAF
   079E 40                 3716 	.db #0x40
   079F 37                 3717 	.db #0x37
   07A0 B0                 3718 	.db #0xB0
   07A1 A4                 3719 	.db #0xA4
   07A2 9B                 3720 	.db #0x9B
   07A3 31                 3721 	.db #0x31
   07A4 44                 3722 	.db #0x44
   07A5 A9                 3723 	.db #0xA9
   07A6 CC                 3724 	.db #0xCC
   07A7 D5                 3725 	.db #0xD5
   07A8 24                 3726 	.db #0x24
   07A9 5A                 3727 	.db #0x5A
   07AA 02                 3728 	.db #0x02
   07AB 68                 3729 	.db #0x68
   07AC 7A                 3730 	.db #0x7A
   07AD F1                 3731 	.db #0xF1
   07AE 6A                 3732 	.db #0x6A
   07AF 02                 3733 	.db #0x02
   07B0 1E                 3734 	.db #0x1E
   07B1 28                 3735 	.db #0x28
   07B2 39                 3736 	.db #0x39
   07B3 FD                 3737 	.db #0xFD
   07B4 7A                 3738 	.db #0x7A
   07B5 75                 3739 	.db #0x75
   07B6 3B                 3740 	.db #0x3B
   07B7 C5                 3741 	.db #0xC5
   07B8 2E                 3742 	.db #0x2E
   07B9 8C                 3743 	.db #0x8C
   07BA 88                 3744 	.db #0x88
   07BB DD                 3745 	.db #0xDD
   07BC 84                 3746 	.db #0x84
   07BD CD                 3747 	.db #0xCD
   07BE A7                 3748 	.db #0xA7
   07BF FC                 3749 	.db #0xFC
   07C0 94                 3750 	.db #0x94
   07C1 15                 3751 	.db #0x15
   07C2 22                 3752 	.db #0x22
   07C3 77                 3753 	.db #0x77
   07C4 EA                 3754 	.db #0xEA
   07C5 D1                 3755 	.db #0xD1
   07C6 DF                 3756 	.db #0xDF
   07C7 B2                 3757 	.db #0xB2
   07C8 3D                 3758 	.db #0x3D
   07C9 D6                 3759 	.db #0xD6
   07CA BC                 3760 	.db #0xBC
   07CB 33                 3761 	.db #0x33
   07CC C1                 3762 	.db #0xC1
   07CD 20                 3763 	.db #0x20
   07CE 61                 3764 	.db #0x61
   07CF A1                 3765 	.db #0xA1
   07D0 8A                 3766 	.db #0x8A
   07D1 7B                 3767 	.db #0x7B
   07D2 91                 3768 	.db #0x91
   07D3 82                 3769 	.db #0x82
   07D4 A5                 3770 	.db #0xA5
   07D5 76                 3771 	.db #0x76
   07D6 A9                 3772 	.db #0xA9
   07D7 1D                 3773 	.db #0x1D
   07D8 EB                 3774 	.db #0xEB
   07D9 D3                 3775 	.db #0xD3
   07DA EB                 3776 	.db #0xEB
   07DB 82                 3777 	.db #0x82
   07DC 85                 3778 	.db #0x85
   07DD 0D                 3779 	.db #0x0D
   07DE 96                 3780 	.db #0x96
   07DF 1C                 3781 	.db #0x1C
   07E0 63                 3782 	.db #0x63
   07E1 1C                 3783 	.db #0x1C
   07E2 3B                 3784 	.db #0x3B
   07E3 2D                 3785 	.db #0x2D
   07E4 CC                 3786 	.db #0xCC
   07E5 29                 3787 	.db #0x29
   07E6 F2                 3788 	.db #0xF2
   07E7 09                 3789 	.db #0x09
   07E8 C7                 3790 	.db #0xC7
   07E9 FB                 3791 	.db #0xFB
   07EA 35                 3792 	.db #0x35
   07EB E8                 3793 	.db #0xE8
   07EC FC                 3794 	.db #0xFC
   07ED 0D                 3795 	.db #0x0D
   07EE 67                 3796 	.db #0x67
   07EF 17                 3797 	.db #0x17
   07F0 15                 3798 	.db #0x15
   07F1 9E                 3799 	.db #0x9E
   07F2 14                 3800 	.db #0x14
   07F3 F9                 3801 	.db #0xF9
   07F4 7D                 3802 	.db #0x7D
   07F5 2E                 3803 	.db #0x2E
   07F6 3C                 3804 	.db #0x3C
   07F7 A5                 3805 	.db #0xA5
   07F8 19                 3806 	.db #0x19
   07F9 9B                 3807 	.db #0x9B
   07FA A0                 3808 	.db #0xA0
   07FB CA                 3809 	.db #0xCA
   07FC AD                 3810 	.db #0xAD
   07FD EF                 3811 	.db #0xEF
   07FE 01                 3812 	.db #0x01
   07FF EA                 3813 	.db #0xEA
   0800 74                 3814 	.db #0x74
   0801 B5                 3815 	.db #0xB5
   0802 E2                 3816 	.db #0xE2
   0803 73                 3817 	.db #0x73
   0804 02                 3818 	.db #0x02
   0805 21                 3819 	.db #0x21
   0806 77                 3820 	.db #0x77
   0807 38                 3821 	.db #0x38
   0808 E9                 3822 	.db #0xE9
   0809 32                 3823 	.db #0x32
   080A FA                 3824 	.db #0xFA
   080B F9                 3825 	.db #0xF9
   080C 4C                 3826 	.db #0x4C
   080D ED                 3827 	.db #0xED
   080E 0B                 3828 	.db #0x0B
   080F 7A                 3829 	.db #0x7A
   0810 39                 3830 	.db #0x39
   0811 37                 3831 	.db #0x37
   0812 48                 3832 	.db #0x48
   0813 78                 3833 	.db #0x78
   0814 E4                 3834 	.db #0xE4
   0815 E0                 3835 	.db #0xE0
   0816 5B                 3836 	.db #0x5B
   0817 5D                 3837 	.db #0x5D
   0818 BD                 3838 	.db #0xBD
   0819 AC                 3839 	.db #0xAC
   081A 84                 3840 	.db #0x84
   081B 87                 3841 	.db #0x87
   081C EA                 3842 	.db #0xEA
   081D E0                 3843 	.db #0xE0
   081E BF                 3844 	.db #0xBF
   081F C4                 3845 	.db #0xC4
   0820 3A                 3846 	.db #0x3A
   0821 77                 3847 	.db #0x77
   0822 21                 3848 	.db #0x21
   0823 6C                 3849 	.db #0x6C
   0824 47                 3850 	.db #0x47
   0825 88                 3851 	.db #0x88
   0826 C0                 3852 	.db #0xC0
   0827 77                 3853 	.db #0x77
   0828 34                 3854 	.db #0x34
   0829 62                 3855 	.db #0x62
   082A BB                 3856 	.db #0xBB
   082B C0                 3857 	.db #0xC0
   082C 25                 3858 	.db #0x25
   082D 03                 3859 	.db #0x03
   082E BB                 3860 	.db #0xBB
   082F 41                 3861 	.db #0x41
   0830 FD                 3862 	.db #0xFD
   0831 32                 3863 	.db #0x32
   0832 50                 3864 	.db #0x50
   0833 74                 3865 	.db #0x74
   0834 1F                 3866 	.db #0x1F
   0835 E2                 3867 	.db #0xE2
   0836 39                 3868 	.db #0x39
   0837 59                 3869 	.db #0x59
   0838 DE                 3870 	.db #0xDE
   0839 30                 3871 	.db #0x30
   083A FC                 3872 	.db #0xFC
   083B 04                 3873 	.db #0x04
   083C 6C                 3874 	.db #0x6C
   083D FE                 3875 	.db #0xFE
   083E B9                 3876 	.db #0xB9
   083F 59                 3877 	.db #0x59
   0840 3E                 3878 	.db #0x3E
   0841 2B                 3879 	.db #0x2B
   0842 4E                 3880 	.db #0x4E
   0843 58                 3881 	.db #0x58
   0844 73                 3882 	.db #0x73
   0845 3F                 3883 	.db #0x3F
   0846 9C                 3884 	.db #0x9C
   0847 FA                 3885 	.db #0xFA
   0848 A3                 3886 	.db #0xA3
   0849 3B                 3887 	.db #0x3B
   084A 06                 3888 	.db #0x06
   084B 7E                 3889 	.db #0x7E
   084C B3                 3890 	.db #0xB3
   084D 49                 3891 	.db #0x49
   084E 8D                 3892 	.db #0x8D
   084F C1                 3893 	.db #0xC1
   0850 07                 3894 	.db #0x07
   0851 6F                 3895 	.db #0x6F
   0852 32                 3896 	.db #0x32
   0853 BD                 3897 	.db #0xBD
   0854 F9                 3898 	.db #0xF9
   0855 9C                 3899 	.db #0x9C
   0856 FB                 3900 	.db #0xFB
   0857 EA                 3901 	.db #0xEA
   0858 5A                 3902 	.db #0x5A
   0859 D0                 3903 	.db #0xD0
   085A 03                 3904 	.db #0x03
   085B B7                 3905 	.db #0xB7
   085C 84                 3906 	.db #0x84
   085D A3                 3907 	.db #0xA3
   085E 36                 3908 	.db #0x36
   085F AB                 3909 	.db #0xAB
   0860 DB                 3910 	.db #0xDB
   0861 9D                 3911 	.db #0x9D
   0862 53                 3912 	.db #0x53
   0863 71                 3913 	.db #0x71
   0864 B0                 3914 	.db #0xB0
   0865 93                 3915 	.db #0x93
   0866 0F                 3916 	.db #0x0F
   0867 1F                 3917 	.db #0x1F
   0868 68                 3918 	.db #0x68
   0869 47                 3919 	.db #0x47
   086A D0                 3920 	.db #0xD0
   086B B6                 3921 	.db #0xB6
   086C B3                 3922 	.db #0xB3
   086D BA                 3923 	.db #0xBA
   086E 7A                 3924 	.db #0x7A
   086F C2                 3925 	.db #0xC2
   0870 60                 3926 	.db #0x60
   0871 AD                 3927 	.db #0xAD
   0872 6E                 3928 	.db #0x6E
   0873 82                 3929 	.db #0x82
   0874 6A                 3930 	.db #0x6A
   0875 5A                 3931 	.db #0x5A
   0876 0F                 3932 	.db #0x0F
   0877 8E                 3933 	.db #0x8E
   0878 FF                 3934 	.db #0xFF
   0879 D2                 3935 	.db #0xD2
   087A 99                 3936 	.db #0x99
   087B C7                 3937 	.db #0xC7
   087C B9                 3938 	.db #0xB9
   087D 1A                 3939 	.db #0x1A
   087E 49                 3940 	.db #0x49
   087F 1F                 3941 	.db #0x1F
   0880 84                 3942 	.db #0x84
   0881 8F                 3943 	.db #0x8F
   0882 41                 3944 	.db #0x41
   0883 52                 3945 	.db #0x52
   0884 22                 3946 	.db #0x22
   0885 7B                 3947 	.db #0x7B
   0886 AD                 3948 	.db #0xAD
   0887 61                 3949 	.db #0x61
   0888 09                 3950 	.db #0x09
   0889 8E                 3951 	.db #0x8E
   088A 9E                 3952 	.db #0x9E
   088B AF                 3953 	.db #0xAF
   088C 9B                 3954 	.db #0x9B
   088D ED                 3955 	.db #0xED
   088E DD                 3956 	.db #0xDD
   088F 9F                 3957 	.db #0x9F
   0890 EB                 3958 	.db #0xEB
   0891 5F                 3959 	.db #0x5F
   0892 F7                 3960 	.db #0xF7
   0893 EF                 3961 	.db #0xEF
   0894 7E                 3962 	.db #0x7E
   0895 E9                 3963 	.db #0xE9
   0896 AA                 3964 	.db #0xAA
   0897 08                 3965 	.db #0x08
   0898 B0                 3966 	.db #0xB0
   0899 AB                 3967 	.db #0xAB
   089A 41                 3968 	.db #0x41
   089B C9                 3969 	.db #0xC9
   089C B5                 3970 	.db #0xB5
   089D 86                 3971 	.db #0x86
   089E 63                 3972 	.db #0x63
   089F 1C                 3973 	.db #0x1C
   08A0 C2                 3974 	.db #0xC2
   08A1 BE                 3975 	.db #0xBE
   08A2 AF                 3976 	.db #0xAF
   08A3 71                 3977 	.db #0x71
   08A4 14                 3978 	.db #0x14
   08A5 92                 3979 	.db #0x92
   08A6 90                 3980 	.db #0x90
   08A7 66                 3981 	.db #0x66
   08A8 73                 3982 	.db #0x73
   08A9 16                 3983 	.db #0x16
   08AA 0C                 3984 	.db #0x0C
   08AB 70                 3985 	.db #0x70
   08AC 88                 3986 	.db #0x88
   08AD 9C                 3987 	.db #0x9C
   08AE 7B                 3988 	.db #0x7B
   08AF 03                 3989 	.db #0x03
   08B0 2C                 3990 	.db #0x2C
   08B1 16                 3991 	.db #0x16
   08B2 7D                 3992 	.db #0x7D
   08B3 89                 3993 	.db #0x89
   08B4 DC                 3994 	.db #0xDC
   08B5 BC                 3995 	.db #0xBC
   08B6 A0                 3996 	.db #0xA0
   08B7 58                 3997 	.db #0x58
   08B8 43                 3998 	.db #0x43
   08B9 F6                 3999 	.db #0xF6
   08BA DD                 4000 	.db #0xDD
   08BB 83                 4001 	.db #0x83
   08BC 91                 4002 	.db #0x91
   08BD 5B                 4003 	.db #0x5B
   08BE 9D                 4004 	.db #0x9D
   08BF 8B                 4005 	.db #0x8B
   08C0 CD                 4006 	.db #0xCD
   08C1 47                 4007 	.db #0x47
   08C2 00                 4008 	.db #0x00
   08C3 67                 4009 	.db #0x67
   08C4 5F                 4010 	.db #0x5F
   08C5 E3                 4011 	.db #0xE3
   08C6 43                 4012 	.db #0x43
   08C7 90                 4013 	.db #0x90
   08C8 00                 4014 	.db #0x00
   08C9 3D                 4015 	.db #0x3D
   08CA D8                 4016 	.db #0xD8
   08CB A3                 4017 	.db #0xA3
   08CC 85                 4018 	.db #0x85
   08CD 8B                 4019 	.db #0x8B
   08CE 22                 4020 	.db #0x22
   08CF D5                 4021 	.db #0xD5
   08D0 3B                 4022 	.db #0x3B
   08D1 52                 4023 	.db #0x52
   08D2 00                 4024 	.db #0x00
   08D3 E8                 4025 	.db #0xE8
   08D4 78                 4026 	.db #0x78
   08D5 22                 4027 	.db #0x22
   08D6 4E                 4028 	.db #0x4E
   08D7 AD                 4029 	.db #0xAD
   08D8 5E                 4030 	.db #0x5E
   08D9 F1                 4031 	.db #0xF1
   08DA 34                 4032 	.db #0x34
   08DB EE                 4033 	.db #0xEE
   08DC A6                 4034 	.db #0xA6
   08DD B7                 4035 	.db #0xB7
   08DE D1                 4036 	.db #0xD1
   08DF 7E                 4037 	.db #0x7E
   08E0 38                 4038 	.db #0x38
   08E1 C1                 4039 	.db #0xC1
   08E2 C1                 4040 	.db #0xC1
   08E3 1B                 4041 	.db #0x1B
   08E4 61                 4042 	.db #0x61
   08E5 EE                 4043 	.db #0xEE
   08E6 01                 4044 	.db #0x01
   08E7 1C                 4045 	.db #0x1C
   08E8 87                 4046 	.db #0x87
   08E9 23                 4047 	.db #0x23
   08EA 59                 4048 	.db #0x59
   08EB 45                 4049 	.db #0x45
   08EC BF                 4050 	.db #0xBF
   08ED DE                 4051 	.db #0xDE
   08EE B5                 4052 	.db #0xB5
   08EF C5                 4053 	.db #0xC5
   08F0 56                 4054 	.db #0x56
   08F1 83                 4055 	.db #0x83
   08F2 E9                 4056 	.db #0xE9
   08F3 00                 4057 	.db #0x00
   08F4 13                 4058 	.db #0x13
   08F5 A4                 4059 	.db #0xA4
   08F6 77                 4060 	.db #0x77
   08F7 5B                 4061 	.db #0x5B
   08F8 97                 4062 	.db #0x97
   08F9 5A                 4063 	.db #0x5A
   08FA 07                 4064 	.db #0x07
   08FB E4                 4065 	.db #0xE4
   08FC 8F                 4066 	.db #0x8F
   08FD E4                 4067 	.db #0xE4
   08FE 7A                 4068 	.db #0x7A
   08FF 72                 4069 	.db #0x72
   0900 72                 4070 	.db #0x72
   0901 E8                 4071 	.db #0xE8
   0902 60                 4072 	.db #0x60
   0903 F7                 4073 	.db #0xF7
   0904 49                 4074 	.db #0x49
   0905 B5                 4075 	.db #0xB5
   0906 58                 4076 	.db #0x58
   0907 AD                 4077 	.db #0xAD
   0908 18                 4078 	.db #0x18
   0909 19                 4079 	.db #0x19
   090A 25                 4080 	.db #0x25
   090B DB                 4081 	.db #0xDB
   090C 56                 4082 	.db #0x56
   090D 6E                 4083 	.db #0x6E
   090E 1A                 4084 	.db #0x1A
   090F 9A                 4085 	.db #0x9A
   0910 55                 4086 	.db #0x55
   0911 C9                 4087 	.db #0xC9
   0912 73                 4088 	.db #0x73
   0913 2A                 4089 	.db #0x2A
   0914 CE                 4090 	.db #0xCE
   0915 10                 4091 	.db #0x10
   0916 00                 4092 	.db #0x00
   0917 3B                 4093 	.db #0x3B
   0918 B5                 4094 	.db #0xB5
   0919 51                 4095 	.db #0x51
   091A B8                 4096 	.db #0xB8
   091B 17                 4097 	.db #0x17
   091C 86                 4098 	.db #0x86
   091D 38                 4099 	.db #0x38
   091E D3                 4100 	.db #0xD3
   091F B2                 4101 	.db #0xB2
   0920 33                 4102 	.db #0x33
   0921 C1                 4103 	.db #0xC1
   0922 A3                 4104 	.db #0xA3
   0923 BA                 4105 	.db #0xBA
   0924 CD                 4106 	.db #0xCD
   0925 D0                 4107 	.db #0xD0
   0926 45                 4108 	.db #0x45
   0927 90                 4109 	.db #0x90
   0928 68                 4110 	.db #0x68
   0929 3E                 4111 	.db #0x3E
   092A 9A                 4112 	.db #0x9A
   092B F7                 4113 	.db #0xF7
   092C 41                 4114 	.db #0x41
   092D 13                 4115 	.db #0x13
   092E 13                 4116 	.db #0x13
   092F 86                 4117 	.db #0x86
   0930 6F                 4118 	.db #0x6F
   0931 5F                 4119 	.db #0x5F
   0932 46                 4120 	.db #0x46
   0933 08                 4121 	.db #0x08
   0934 EF                 4122 	.db #0xEF
   0935 1B                 4123 	.db #0x1B
   0936 B8                 4124 	.db #0xB8
   0937 46                 4125 	.db #0x46
   0938 09                 4126 	.db #0x09
   0939 C6                 4127 	.db #0xC6
   093A 35                 4128 	.db #0x35
   093B 51                 4129 	.db #0x51
   093C 4B                 4130 	.db #0x4B
   093D 09                 4131 	.db #0x09
   093E 52                 4132 	.db #0x52
   093F 90                 4133 	.db #0x90
   0940 5D                 4134 	.db #0x5D
   0941 A1                 4135 	.db #0xA1
   0942 1C                 4136 	.db #0x1C
   0943 49                 4137 	.db #0x49
   0944 F6                 4138 	.db #0xF6
   0945 8A                 4139 	.db #0x8A
   0946 58                 4140 	.db #0x58
   0947 4D                 4141 	.db #0x4D
   0948 F1                 4142 	.db #0xF1
   0949 F5                 4143 	.db #0xF5
   094A 54                 4144 	.db #0x54
   094B 65                 4145 	.db #0x65
   094C 25                 4146 	.db #0x25
   094D 73                 4147 	.db #0x73
   094E 22                 4148 	.db #0x22
   094F 41                 4149 	.db #0x41
   0950 61                 4150 	.db #0x61
   0951 FE                 4151 	.db #0xFE
   0952 B8                 4152 	.db #0xB8
   0953 2F                 4153 	.db #0x2F
   0954 7B                 4154 	.db #0x7B
   0955 1A                 4155 	.db #0x1A
   0956 21                 4156 	.db #0x21
   0957 0F                 4157 	.db #0x0F
   0958 D6                 4158 	.db #0xD6
   0959 75                 4159 	.db #0x75
   095A 81                 4160 	.db #0x81
   095B 58                 4161 	.db #0x58
   095C AA                 4162 	.db #0xAA
   095D 03                 4163 	.db #0x03
   095E CE                 4164 	.db #0xCE
   095F 5D                 4165 	.db #0x5D
   0960 D0                 4166 	.db #0xD0
   0961 A3                 4167 	.db #0xA3
   0962 E4                 4168 	.db #0xE4
   0963 1F                 4169 	.db #0x1F
   0964 5E                 4170 	.db #0x5E
   0965 8E                 4171 	.db #0x8E
   0966 FD                 4172 	.db #0xFD
   0967 36                 4173 	.db #0x36
   0968 DF                 4174 	.db #0xDF
   0969 13                 4175 	.db #0x13
   096A DF                 4176 	.db #0xDF
   096B F0                 4177 	.db #0xF0
   096C 38                 4178 	.db #0x38
   096D 39                 4179 	.db #0x39
   096E A3                 4180 	.db #0xA3
   096F 7E                 4181 	.db #0x7E
   0970 4C                 4182 	.db #0x4C
   0971 D8                 4183 	.db #0xD8
   0972 CE                 4184 	.db #0xCE
   0973 26                 4185 	.db #0x26
   0974 C7                 4186 	.db #0xC7
   0975 1E                 4187 	.db #0x1E
   0976 7B                 4188 	.db #0x7B
   0977 FE                 4189 	.db #0xFE
   0978 55                 4190 	.db #0x55
   0979 51                 4191 	.db #0x51
   097A 50                 4192 	.db #0x50
   097B 52                 4193 	.db #0x52
   097C 0F                 4194 	.db #0x0F
   097D D3                 4195 	.db #0xD3
   097E 9D                 4196 	.db #0x9D
   097F E2                 4197 	.db #0xE2
   0980 77                 4198 	.db #0x77
   0981 21                 4199 	.db #0x21
   0982 61                 4200 	.db #0x61
   0983 BA                 4201 	.db #0xBA
   0984 CD                 4202 	.db #0xCD
   0985 27                 4203 	.db #0x27
   0986 38                 4204 	.db #0x38
   0987 26                 4205 	.db #0x26
   0988 01                 4206 	.db #0x01
   0989 4B                 4207 	.db #0x4B
   098A 34                 4208 	.db #0x34
   098B C9                 4209 	.db #0xC9
   098C FC                 4210 	.db #0xFC
   098D 97                 4211 	.db #0x97
   098E 42                 4212 	.db #0x42
   098F A1                 4213 	.db #0xA1
   0990 DC                 4214 	.db #0xDC
   0991 41                 4215 	.db #0x41
   0992 43                 4216 	.db #0x43
   0993 9B                 4217 	.db #0x9B
   0994 53                 4218 	.db #0x53
   0995 7C                 4219 	.db #0x7C
   0996 1C                 4220 	.db #0x1C
   0997 53                 4221 	.db #0x53
   0998 7F                 4222 	.db #0x7F
   0999 73                 4223 	.db #0x73
   099A 4C                 4224 	.db #0x4C
   099B 52                 4225 	.db #0x52
   099C 76                 4226 	.db #0x76
   099D 9F                 4227 	.db #0x9F
   099E 9A                 4228 	.db #0x9A
   099F 83                 4229 	.db #0x83
   09A0 EC                 4230 	.db #0xEC
   09A1 AC                 4231 	.db #0xAC
   09A2 F0                 4232 	.db #0xF0
   09A3 80                 4233 	.db #0x80
   09A4 2D                 4234 	.db #0x2D
   09A5 FF                 4235 	.db #0xFF
   09A6 18                 4236 	.db #0x18
   09A7 C2                 4237 	.db #0xC2
   09A8 90                 4238 	.db #0x90
   09A9 72                 4239 	.db #0x72
   09AA 43                 4240 	.db #0x43
   09AB A6                 4241 	.db #0xA6
   09AC 2F                 4242 	.db #0x2F
   09AD A2                 4243 	.db #0xA2
   09AE 52                 4244 	.db #0x52
   09AF 44                 4245 	.db #0x44
   09B0 BC                 4246 	.db #0xBC
   09B1 AA                 4247 	.db #0xAA
   09B2 7F                 4248 	.db #0x7F
   09B3 5F                 4249 	.db #0x5F
   09B4 73                 4250 	.db #0x73
   09B5 56                 4251 	.db #0x56
   09B6 8C                 4252 	.db #0x8C
   09B7 CD                 4253 	.db #0xCD
   09B8 0D                 4254 	.db #0x0D
   09B9 C2                 4255 	.db #0xC2
   09BA 79                 4256 	.db #0x79
   09BB 84                 4257 	.db #0x84
   09BC 0D                 4258 	.db #0x0D
   09BD EA                 4259 	.db #0xEA
   09BE 32                 4260 	.db #0x32
   09BF D2                 4261 	.db #0xD2
   09C0 DC                 4262 	.db #0xDC
   09C1 16                 4263 	.db #0x16
   09C2 56                 4264 	.db #0x56
   09C3 EB                 4265 	.db #0xEB
   09C4 2C                 4266 	.db #0x2C
   09C5 E2                 4267 	.db #0xE2
   09C6 6F                 4268 	.db #0x6F
   09C7 A4                 4269 	.db #0xA4
   09C8 EE                 4270 	.db #0xEE
   09C9 AC                 4271 	.db #0xAC
   09CA D8                 4272 	.db #0xD8
   09CB 96                 4273 	.db #0x96
   09CC 07                 4274 	.db #0x07
   09CD F7                 4275 	.db #0xF7
   09CE 1D                 4276 	.db #0x1D
   09CF 8E                 4277 	.db #0x8E
   09D0 2D                 4278 	.db #0x2D
   09D1 EC                 4279 	.db #0xEC
   09D2 74                 4280 	.db #0x74
   09D3 0E                 4281 	.db #0x0E
   09D4 60                 4282 	.db #0x60
   09D5 BA                 4283 	.db #0xBA
   09D6 A1                 4284 	.db #0xA1
   09D7 88                 4285 	.db #0x88
   09D8 23                 4286 	.db #0x23
   09D9 7A                 4287 	.db #0x7A
   09DA 8E                 4288 	.db #0x8E
   09DB 84                 4289 	.db #0x84
   09DC 39                 4290 	.db #0x39
   09DD 91                 4291 	.db #0x91
   09DE FA                 4292 	.db #0xFA
   09DF 1D                 4293 	.db #0x1D
   09E0 03                 4294 	.db #0x03
   09E1 1D                 4295 	.db #0x1D
   09E2 BA                 4296 	.db #0xBA
   09E3 C6                 4297 	.db #0xC6
   09E4 CD                 4298 	.db #0xCD
   09E5 56                 4299 	.db #0x56
   09E6 C7                 4300 	.db #0xC7
   09E7 9C                 4301 	.db #0x9C
   09E8 AE                 4302 	.db #0xAE
   09E9 5F                 4303 	.db #0x5F
   09EA 30                 4304 	.db #0x30
   09EB 57                 4305 	.db #0x57
   09EC 22                 4306 	.db #0x22
   09ED B3                 4307 	.db #0xB3
   09EE 93                 4308 	.db #0x93
   09EF 24                 4309 	.db #0x24
   09F0 02                 4310 	.db #0x02
   09F1 52                 4311 	.db #0x52
   09F2 51                 4312 	.db #0x51
   09F3 EE                 4313 	.db #0xEE
   09F4 97                 4314 	.db #0x97
   09F5 67                 4315 	.db #0x67
   09F6 4A                 4316 	.db #0x4A
   09F7 7C                 4317 	.db #0x7C
   09F8 FE                 4318 	.db #0xFE
   09F9 16                 4319 	.db #0x16
   09FA 50                 4320 	.db #0x50
   09FB 8E                 4321 	.db #0x8E
   09FC D7                 4322 	.db #0xD7
   09FD DF                 4323 	.db #0xDF
   09FE 67                 4324 	.db #0x67
   09FF 15                 4325 	.db #0x15
   0A00 1F                 4326 	.db #0x1F
   0A01 DF                 4327 	.db #0xDF
   0A02 A7                 4328 	.db #0xA7
   0A03 D4                 4329 	.db #0xD4
   0A04 B4                 4330 	.db #0xB4
   0A05 E1                 4331 	.db #0xE1
   0A06 20                 4332 	.db #0x20
   0A07 DC                 4333 	.db #0xDC
   0A08 87                 4334 	.db #0x87
   0A09 EE                 4335 	.db #0xEE
   0A0A 3E                 4336 	.db #0x3E
   0A0B 45                 4337 	.db #0x45
   0A0C 54                 4338 	.db #0x54
   0A0D 08                 4339 	.db #0x08
   0A0E 37                 4340 	.db #0x37
   0A0F 7D                 4341 	.db #0x7D
   0A10 C3                 4342 	.db #0xC3
   0A11 03                 4343 	.db #0x03
   0A12 F9                 4344 	.db #0xF9
   0A13 28                 4345 	.db #0x28
   0A14 7D                 4346 	.db #0x7D
   0A15 6C                 4347 	.db #0x6C
   0A16 27                 4348 	.db #0x27
   0A17 15                 4349 	.db #0x15
   0A18 DB                 4350 	.db #0xDB
   0A19 9D                 4351 	.db #0x9D
   0A1A B3                 4352 	.db #0xB3
   0A1B F7                 4353 	.db #0xF7
   0A1C 4A                 4354 	.db #0x4A
   0A1D 28                 4355 	.db #0x28
   0A1E 6A                 4356 	.db #0x6A
   0A1F 85                 4357 	.db #0x85
   0A20 E7                 4358 	.db #0xE7
   0A21 3D                 4359 	.db #0x3D
   0A22 7F                 4360 	.db #0x7F
   0A23 9C                 4361 	.db #0x9C
   0A24 AD                 4362 	.db #0xAD
   0A25 25                 4363 	.db #0x25
   0A26 CF                 4364 	.db #0xCF
   0A27 B1                 4365 	.db #0xB1
   0A28 FB                 4366 	.db #0xFB
   0A29 28                 4367 	.db #0x28
   0A2A 2B                 4368 	.db #0x2B
   0A2B 8F                 4369 	.db #0x8F
   0A2C 9F                 4370 	.db #0x9F
   0A2D 7D                 4371 	.db #0x7D
   0A2E E5                 4372 	.db #0xE5
   0A2F 90                 4373 	.db #0x90
   0A30 17                 4374 	.db #0x17
   0A31 32                 4375 	.db #0x32
   0A32 A2                 4376 	.db #0xA2
   0A33 4A                 4377 	.db #0x4A
   0A34 78                 4378 	.db #0x78
   0A35 7C                 4379 	.db #0x7C
   0A36 A7                 4380 	.db #0xA7
   0A37 CB                 4381 	.db #0xCB
   0A38 89                 4382 	.db #0x89
   0A39 5D                 4383 	.db #0x5D
   0A3A 26                 4384 	.db #0x26
   0A3B 8D                 4385 	.db #0x8D
   0A3C F1                 4386 	.db #0xF1
   0A3D 91                 4387 	.db #0x91
   0A3E DB                 4388 	.db #0xDB
   0A3F C6                 4389 	.db #0xC6
   0A40 AC                 4390 	.db #0xAC
   0A41 2E                 4391 	.db #0x2E
   0A42 2B                 4392 	.db #0x2B
   0A43 81                 4393 	.db #0x81
   0A44 77                 4394 	.db #0x77
   0A45 AC                 4395 	.db #0xAC
   0A46 C2                 4396 	.db #0xC2
   0A47 EE                 4397 	.db #0xEE
   0A48 20                 4398 	.db #0x20
   0A49 65                 4399 	.db #0x65
   0A4A 0E                 4400 	.db #0x0E
   0A4B 83                 4401 	.db #0x83
   0A4C 8B                 4402 	.db #0x8B
   0A4D 56                 4403 	.db #0x56
   0A4E 81                 4404 	.db #0x81
   0A4F D8                 4405 	.db #0xD8
   0A50 87                 4406 	.db #0x87
   0A51 05                 4407 	.db #0x05
   0A52 44                 4408 	.db #0x44
   0A53 D8                 4409 	.db #0xD8
   0A54 95                 4410 	.db #0x95
   0A55 23                 4411 	.db #0x23
   0A56 FE                 4412 	.db #0xFE
   0A57 3E                 4413 	.db #0x3E
   0A58 FA                 4414 	.db #0xFA
   0A59 DF                 4415 	.db #0xDF
   0A5A 2D                 4416 	.db #0x2D
   0A5B 8B                 4417 	.db #0x8B
   0A5C 72                 4418 	.db #0x72
   0A5D 0D                 4419 	.db #0x0D
   0A5E E8                 4420 	.db #0xE8
   0A5F B2                 4421 	.db #0xB2
   0A60 1F                 4422 	.db #0x1F
   0A61 90                 4423 	.db #0x90
   0A62 9D                 4424 	.db #0x9D
   0A63 80                 4425 	.db #0x80
   0A64 2C                 4426 	.db #0x2C
   0A65 55                 4427 	.db #0x55
   0A66 FB                 4428 	.db #0xFB
   0A67 36                 4429 	.db #0x36
   0A68 C2                 4430 	.db #0xC2
   0A69 AB                 4431 	.db #0xAB
   0A6A 14                 4432 	.db #0x14
   0A6B C1                 4433 	.db #0xC1
   0A6C F7                 4434 	.db #0xF7
   0A6D 36                 4435 	.db #0x36
   0A6E 90                 4436 	.db #0x90
   0A6F 80                 4437 	.db #0x80
   0A70 97                 4438 	.db #0x97
   0A71 FA                 4439 	.db #0xFA
   0A72 9E                 4440 	.db #0x9E
   0A73 67                 4441 	.db #0x67
   0A74 14                 4442 	.db #0x14
   0A75 E1                 4443 	.db #0xE1
   0A76 4A                 4444 	.db #0x4A
   0A77 37                 4445 	.db #0x37
   0A78 D2                 4446 	.db #0xD2
   0A79 44                 4447 	.db #0x44
   0A7A B3                 4448 	.db #0xB3
   0A7B 89                 4449 	.db #0x89
   0A7C 1B                 4450 	.db #0x1B
   0A7D DA                 4451 	.db #0xDA
   0A7E 32                 4452 	.db #0x32
   0A7F B4                 4453 	.db #0xB4
   0A80 0C                 4454 	.db #0x0C
   0A81 F5                 4455 	.db #0xF5
   0A82 F0                 4456 	.db #0xF0
   0A83 44                 4457 	.db #0x44
   0A84 23                 4458 	.db #0x23
   0A85 D7                 4459 	.db #0xD7
   0A86 94                 4460 	.db #0x94
   0A87 10                 4461 	.db #0x10
   0A88 0D                 4462 	.db #0x0D
   0A89 2A                 4463 	.db #0x2A
   0A8A F8                 4464 	.db #0xF8
   0A8B D7                 4465 	.db #0xD7
   0A8C 5B                 4466 	.db #0x5B
   0A8D 6D                 4467 	.db #0x6D
   0A8E B2                 4468 	.db #0xB2
   0A8F 63                 4469 	.db #0x63
   0A90 90                 4470 	.db #0x90
   0A91 34                 4471 	.db #0x34
   0A92 08                 4472 	.db #0x08
   0A93 5E                 4473 	.db #0x5E
   0A94 30                 4474 	.db #0x30
   0A95 1F                 4475 	.db #0x1F
   0A96 A1                 4476 	.db #0xA1
   0A97 E0                 4477 	.db #0xE0
   0A98 A6                 4478 	.db #0xA6
   0A99 CD                 4479 	.db #0xCD
   0A9A BF                 4480 	.db #0xBF
   0A9B D1                 4481 	.db #0xD1
   0A9C C1                 4482 	.db #0xC1
   0A9D 44                 4483 	.db #0x44
   0A9E 44                 4484 	.db #0x44
   0A9F DB                 4485 	.db #0xDB
   0AA0 5F                 4486 	.db #0x5F
   0AA1 5B                 4487 	.db #0x5B
   0AA2 4A                 4488 	.db #0x4A
   0AA3 69                 4489 	.db #0x69
   0AA4 CE                 4490 	.db #0xCE
   0AA5 D8                 4491 	.db #0xD8
   0AA6 E3                 4492 	.db #0xE3
   0AA7 0A                 4493 	.db #0x0A
   0AA8 74                 4494 	.db #0x74
   0AA9 11                 4495 	.db #0x11
   0AAA DC                 4496 	.db #0xDC
   0AAB 62                 4497 	.db #0x62
   0AAC 17                 4498 	.db #0x17
   0AAD 37                 4499 	.db #0x37
   0AAE E2                 4500 	.db #0xE2
   0AAF 9A                 4501 	.db #0x9A
   0AB0 65                 4502 	.db #0x65
   0AB1 BD                 4503 	.db #0xBD
   0AB2 9A                 4504 	.db #0x9A
   0AB3 94                 4505 	.db #0x94
   0AB4 E0                 4506 	.db #0xE0
   0AB5 F5                 4507 	.db #0xF5
   0AB6 93                 4508 	.db #0x93
   0AB7 23                 4509 	.db #0x23
   0AB8 5C                 4510 	.db #0x5C
   0AB9 F0                 4511 	.db #0xF0
   0ABA 9C                 4512 	.db #0x9C
   0ABB 82                 4513 	.db #0x82
   0ABC E5                 4514 	.db #0xE5
   0ABD B8                 4515 	.db #0xB8
   0ABE 78                 4516 	.db #0x78
   0ABF DA                 4517 	.db #0xDA
   0AC0 A0                 4518 	.db #0xA0
   0AC1 99                 4519 	.db #0x99
   0AC2 7A                 4520 	.db #0x7A
   0AC3 09                 4521 	.db #0x09
   0AC4 4B                 4522 	.db #0x4B
   0AC5 0F                 4523 	.db #0x0F
   0AC6 39                 4524 	.db #0x39
   0AC7 4A                 4525 	.db #0x4A
   0AC8 C0                 4526 	.db #0xC0
   0AC9 C9                 4527 	.db #0xC9
   0ACA 15                 4528 	.db #0x15
   0ACB FD                 4529 	.db #0xFD
   0ACC 59                 4530 	.db #0x59
   0ACD 17                 4531 	.db #0x17
   0ACE 01                 4532 	.db #0x01
   0ACF 31                 4533 	.db #0x31
   0AD0 C0                 4534 	.db #0xC0
   0AD1 A5                 4535 	.db #0xA5
   0AD2 AE                 4536 	.db #0xAE
   0AD3 BE                 4537 	.db #0xBE
   0AD4 42                 4538 	.db #0x42
   0AD5 CE                 4539 	.db #0xCE
   0AD6 D8                 4540 	.db #0xD8
   0AD7 CB                 4541 	.db #0xCB
   0AD8 1B                 4542 	.db #0x1B
   0AD9 2F                 4543 	.db #0x2F
   0ADA D0                 4544 	.db #0xD0
   0ADB B2                 4545 	.db #0xB2
   0ADC 73                 4546 	.db #0x73
   0ADD 96                 4547 	.db #0x96
   0ADE 30                 4548 	.db #0x30
   0ADF 10                 4549 	.db #0x10
   0AE0 E0                 4550 	.db #0xE0
   0AE1 8A                 4551 	.db #0x8A
   0AE2 CD                 4552 	.db #0xCD
   0AE3 EF                 4553 	.db #0xEF
   0AE4 A6                 4554 	.db #0xA6
   0AE5 E9                 4555 	.db #0xE9
   0AE6 5A                 4556 	.db #0x5A
   0AE7 49                 4557 	.db #0x49
   0AE8 15                 4558 	.db #0x15
   0AE9 8B                 4559 	.db #0x8B
   0AEA B4                 4560 	.db #0xB4
   0AEB AA                 4561 	.db #0xAA
   0AEC CA                 4562 	.db #0xCA
   0AED C5                 4563 	.db #0xC5
   0AEE 73                 4564 	.db #0x73
   0AEF 35                 4565 	.db #0x35
   0AF0 BD                 4566 	.db #0xBD
   0AF1 24                 4567 	.db #0x24
   0AF2 15                 4568 	.db #0x15
   0AF3 BD                 4569 	.db #0xBD
   0AF4 27                 4570 	.db #0x27
   0AF5 9B                 4571 	.db #0x9B
   0AF6 F5                 4572 	.db #0xF5
   0AF7 D1                 4573 	.db #0xD1
   0AF8 AD                 4574 	.db #0xAD
   0AF9 32                 4575 	.db #0x32
   0AFA AA                 4576 	.db #0xAA
   0AFB 7B                 4577 	.db #0x7B
   0AFC CD                 4578 	.db #0xCD
   0AFD 6D                 4579 	.db #0x6D
   0AFE AC                 4580 	.db #0xAC
   0AFF 7C                 4581 	.db #0x7C
   0B00 74                 4582 	.db #0x74
   0B01 D7                 4583 	.db #0xD7
   0B02 D0                 4584 	.db #0xD0
   0B03 8F                 4585 	.db #0x8F
   0B04 82                 4586 	.db #0x82
   0B05 A7                 4587 	.db #0xA7
   0B06 B1                 4588 	.db #0xB1
   0B07 67                 4589 	.db #0x67
   0B08 B7                 4590 	.db #0xB7
   0B09 70                 4591 	.db #0x70
   0B0A 15                 4592 	.db #0x15
   0B0B 26                 4593 	.db #0x26
   0B0C 45                 4594 	.db #0x45
   0B0D 26                 4595 	.db #0x26
   0B0E 19                 4596 	.db #0x19
   0B0F 07                 4597 	.db #0x07
   0B10 D8                 4598 	.db #0xD8
   0B11 9D                 4599 	.db #0x9D
   0B12 F0                 4600 	.db #0xF0
   0B13 76                 4601 	.db #0x76
   0B14 FB                 4602 	.db #0xFB
   0B15 26                 4603 	.db #0x26
   0B16 FD                 4604 	.db #0xFD
   0B17 E5                 4605 	.db #0xE5
   0B18 C5                 4606 	.db #0xC5
   0B19 EC                 4607 	.db #0xEC
   0B1A E3                 4608 	.db #0xE3
   0B1B 84                 4609 	.db #0x84
   0B1C 82                 4610 	.db #0x82
   0B1D F0                 4611 	.db #0xF0
   0B1E E2                 4612 	.db #0xE2
   0B1F 5D                 4613 	.db #0x5D
   0B20 A7                 4614 	.db #0xA7
   0B21 16                 4615 	.db #0x16
   0B22 C2                 4616 	.db #0xC2
   0B23 1D                 4617 	.db #0x1D
   0B24 79                 4618 	.db #0x79
   0B25 F0                 4619 	.db #0xF0
   0B26 5C                 4620 	.db #0x5C
   0B27 69                 4621 	.db #0x69
   0B28 F3                 4622 	.db #0xF3
   0B29 47                 4623 	.db #0x47
   0B2A 3E                 4624 	.db #0x3E
   0B2B 24                 4625 	.db #0x24
   0B2C 5C                 4626 	.db #0x5C
   0B2D F4                 4627 	.db #0xF4
   0B2E 36                 4628 	.db #0x36
   0B2F 21                 4629 	.db #0x21
   0B30 84                 4630 	.db #0x84
   0B31 FE                 4631 	.db #0xFE
   0B32 77                 4632 	.db #0x77
   0B33 B1                 4633 	.db #0xB1
   0B34 11                 4634 	.db #0x11
   0B35 6E                 4635 	.db #0x6E
   0B36 6E                 4636 	.db #0x6E
   0B37 5B                 4637 	.db #0x5B
   0B38 E8                 4638 	.db #0xE8
   0B39 47                 4639 	.db #0x47
   0B3A 9F                 4640 	.db #0x9F
   0B3B D7                 4641 	.db #0xD7
   0B3C DA                 4642 	.db #0xDA
   0B3D E6                 4643 	.db #0xE6
   0B3E 1C                 4644 	.db #0x1C
   0B3F 73                 4645 	.db #0x73
   0B40 28                 4646 	.db #0x28
   0B41 DD                 4647 	.db #0xDD
   0B42 1E                 4648 	.db #0x1E
   0B43 AC                 4649 	.db #0xAC
   0B44 E0                 4650 	.db #0xE0
   0B45 51                 4651 	.db #0x51
   0B46 B7                 4652 	.db #0xB7
   0B47 19                 4653 	.db #0x19
   0B48 6D                 4654 	.db #0x6D
   0B49 A0                 4655 	.db #0xA0
   0B4A 06                 4656 	.db #0x06
   0B4B 27                 4657 	.db #0x27
   0B4C DF                 4658 	.db #0xDF
   0B4D 2C                 4659 	.db #0x2C
   0B4E FB                 4660 	.db #0xFB
   0B4F 92                 4661 	.db #0x92
   0B50 30                 4662 	.db #0x30
   0B51 2E                 4663 	.db #0x2E
   0B52 8C                 4664 	.db #0x8C
   0B53 67                 4665 	.db #0x67
   0B54 7A                 4666 	.db #0x7A
   0B55 C6                 4667 	.db #0xC6
   0B56 C3                 4668 	.db #0xC3
   0B57 66                 4669 	.db #0x66
   0B58 4C                 4670 	.db #0x4C
   0B59 97                 4671 	.db #0x97
   0B5A D7                 4672 	.db #0xD7
   0B5B 72                 4673 	.db #0x72
   0B5C 78                 4674 	.db #0x78
   0B5D B9                 4675 	.db #0xB9
   0B5E 98                 4676 	.db #0x98
   0B5F B6                 4677 	.db #0xB6
   0B60 80                 4678 	.db #0x80
   0B61 6F                 4679 	.db #0x6F
   0B62 D8                 4680 	.db #0xD8
   0B63 A7                 4681 	.db #0xA7
   0B64 B8                 4682 	.db #0xB8
   0B65 36                 4683 	.db #0x36
   0B66 BA                 4684 	.db #0xBA
   0B67 A2                 4685 	.db #0xA2
   0B68 43                 4686 	.db #0x43
   0B69 2E                 4687 	.db #0x2E
   0B6A 89                 4688 	.db #0x89
   0B6B 7C                 4689 	.db #0x7C
   0B6C 10                 4690 	.db #0x10
   0B6D F1                 4691 	.db #0xF1
   0B6E 5C                 4692 	.db #0x5C
   0B6F D5                 4693 	.db #0xD5
   0B70 A5                 4694 	.db #0xA5
   0B71 A2                 4695 	.db #0xA2
   0B72 FA                 4696 	.db #0xFA
   0B73 62                 4697 	.db #0x62
   0B74 75                 4698 	.db #0x75
   0B75 3F                 4699 	.db #0x3F
   0B76 98                 4700 	.db #0x98
   0B77 18                 4701 	.db #0x18
   0B78 78                 4702 	.db #0x78
   0B79 FA                 4703 	.db #0xFA
   0B7A A9                 4704 	.db #0xA9
   0B7B 48                 4705 	.db #0x48
   0B7C 1F                 4706 	.db #0x1F
   0B7D 3D                 4707 	.db #0x3D
   0B7E 43                 4708 	.db #0x43
   0B7F E0                 4709 	.db #0xE0
   0B80 6B                 4710 	.db #0x6B
   0B81 26                 4711 	.db #0x26
   0B82 58                 4712 	.db #0x58
   0B83 A0                 4713 	.db #0xA0
   0B84 94                 4714 	.db #0x94
   0B85 9E                 4715 	.db #0x9E
   0B86 E6                 4716 	.db #0xE6
   0B87 B2                 4717 	.db #0xB2
   0B88 E3                 4718 	.db #0xE3
   0B89 E3                 4719 	.db #0xE3
   0B8A 45                 4720 	.db #0x45
   0B8B 97                 4721 	.db #0x97
   0B8C 0A                 4722 	.db #0x0A
   0B8D 8D                 4723 	.db #0x8D
   0B8E 34                 4724 	.db #0x34
   0B8F 0C                 4725 	.db #0x0C
   0B90 19                 4726 	.db #0x19
   0B91 A2                 4727 	.db #0xA2
   0B92 B3                 4728 	.db #0xB3
   0B93 B1                 4729 	.db #0xB1
   0B94 D1                 4730 	.db #0xD1
   0B95 E4                 4731 	.db #0xE4
   0B96 6D                 4732 	.db #0x6D
   0B97 74                 4733 	.db #0x74
   0B98 47                 4734 	.db #0x47
   0B99 B1                 4735 	.db #0xB1
   0B9A E7                 4736 	.db #0xE7
   0B9B E7                 4737 	.db #0xE7
   0B9C 51                 4738 	.db #0x51
   0B9D 07                 4739 	.db #0x07
   0B9E B5                 4740 	.db #0xB5
   0B9F 27                 4741 	.db #0x27
   0BA0 BD                 4742 	.db #0xBD
   0BA1 93                 4743 	.db #0x93
   0BA2 D0                 4744 	.db #0xD0
   0BA3 7E                 4745 	.db #0x7E
   0BA4 A4                 4746 	.db #0xA4
   0BA5 2D                 4747 	.db #0x2D
   0BA6 25                 4748 	.db #0x25
   0BA7 C6                 4749 	.db #0xC6
   0BA8 7C                 4750 	.db #0x7C
   0BA9 69                 4751 	.db #0x69
   0BAA 7E                 4752 	.db #0x7E
   0BAB EF                 4753 	.db #0xEF
   0BAC 74                 4754 	.db #0x74
   0BAD D3                 4755 	.db #0xD3
   0BAE FE                 4756 	.db #0xFE
   0BAF D3                 4757 	.db #0xD3
   0BB0 FC                 4758 	.db #0xFC
   0BB1 8A                 4759 	.db #0x8A
   0BB2 5E                 4760 	.db #0x5E
   0BB3 C3                 4761 	.db #0xC3
   0BB4 99                 4762 	.db #0x99
   0BB5 A2                 4763 	.db #0xA2
   0BB6 67                 4764 	.db #0x67
   0BB7 61                 4765 	.db #0x61
   0BB8 B8                 4766 	.db #0xB8
   0BB9 14                 4767 	.db #0x14
   0BBA 42                 4768 	.db #0x42
   0BBB D2                 4769 	.db #0xD2
   0BBC F9                 4770 	.db #0xF9
   0BBD A3                 4771 	.db #0xA3
   0BBE 2D                 4772 	.db #0x2D
   0BBF A2                 4773 	.db #0xA2
   0BC0 74                 4774 	.db #0x74
   0BC1 C7                 4775 	.db #0xC7
   0BC2 53                 4776 	.db #0x53
   0BC3 62                 4777 	.db #0x62
   0BC4 CA                 4778 	.db #0xCA
   0BC5 EA                 4779 	.db #0xEA
   0BC6 61                 4780 	.db #0x61
   0BC7 59                 4781 	.db #0x59
   0BC8 94                 4782 	.db #0x94
   0BC9 CD                 4783 	.db #0xCD
   0BCA DB                 4784 	.db #0xDB
   0BCB E3                 4785 	.db #0xE3
   0BCC 4A                 4786 	.db #0x4A
   0BCD 88                 4787 	.db #0x88
   0BCE C5                 4788 	.db #0xC5
   0BCF 14                 4789 	.db #0x14
   0BD0 21                 4790 	.db #0x21
   0BD1 8F                 4791 	.db #0x8F
   0BD2 5A                 4792 	.db #0x5A
   0BD3 2B                 4793 	.db #0x2B
   0BD4 7B                 4794 	.db #0x7B
   0BD5 CF                 4795 	.db #0xCF
   0BD6 D9                 4796 	.db #0xD9
   0BD7 B5                 4797 	.db #0xB5
   0BD8 D0                 4798 	.db #0xD0
   0BD9 3D                 4799 	.db #0x3D
   0BDA 7E                 4800 	.db #0x7E
   0BDB 7D                 4801 	.db #0x7D
   0BDC CD                 4802 	.db #0xCD
   0BDD 49                 4803 	.db #0x49
   0BDE B2                 4804 	.db #0xB2
   0BDF F3                 4805 	.db #0xF3
   0BE0 35                 4806 	.db #0x35
   0BE1 7F                 4807 	.db #0x7F
   0BE2 40                 4808 	.db #0x40
   0BE3 C1                 4809 	.db #0xC1
   0BE4 E5                 4810 	.db #0xE5
   0BE5 A8                 4811 	.db #0xA8
   0BE6 D3                 4812 	.db #0xD3
   0BE7 77                 4813 	.db #0x77
   0BE8 52                 4814 	.db #0x52
   0BE9 A4                 4815 	.db #0xA4
   0BEA 17                 4816 	.db #0x17
   0BEB 4A                 4817 	.db #0x4A
   0BEC D4                 4818 	.db #0xD4
   0BED F5                 4819 	.db #0xF5
   0BEE F9                 4820 	.db #0xF9
   0BEF AD                 4821 	.db #0xAD
   0BF0 3C                 4822 	.db #0x3C
   0BF1 2A                 4823 	.db #0x2A
   0BF2 B6                 4824 	.db #0xB6
   0BF3 AB                 4825 	.db #0xAB
   0BF4 03                 4826 	.db #0x03
   0BF5 7E                 4827 	.db #0x7E
   0BF6 17                 4828 	.db #0x17
   0BF7 EF                 4829 	.db #0xEF
   0BF8 FB                 4830 	.db #0xFB
   0BF9 74                 4831 	.db #0x74
   0BFA D3                 4832 	.db #0xD3
   0BFB 41                 4833 	.db #0x41
   0BFC 64                 4834 	.db #0x64
   0BFD AF                 4835 	.db #0xAF
   0BFE C8                 4836 	.db #0xC8
   0BFF 5C                 4837 	.db #0x5C
   0C00 D0                 4838 	.db #0xD0
   0C01 E1                 4839 	.db #0xE1
   0C02 D5                 4840 	.db #0xD5
   0C03 8D                 4841 	.db #0x8D
   0C04 04                 4842 	.db #0x04
   0C05 94                 4843 	.db #0x94
   0C06 40                 4844 	.db #0x40
   0C07 D9                 4845 	.db #0xD9
   0C08 EF                 4846 	.db #0xEF
   0C09 3C                 4847 	.db #0x3C
   0C0A AE                 4848 	.db #0xAE
   0C0B 5A                 4849 	.db #0x5A
   0C0C 8F                 4850 	.db #0x8F
   0C0D 11                 4851 	.db #0x11
   0C0E 6E                 4852 	.db #0x6E
   0C0F 74                 4853 	.db #0x74
   0C10 03                 4854 	.db #0x03
   0C11 69                 4855 	.db #0x69
   0C12 80                 4856 	.db #0x80
   0C13 D4                 4857 	.db #0xD4
   0C14 91                 4858 	.db #0x91
   0C15 A6                 4859 	.db #0xA6
   0C16 D4                 4860 	.db #0xD4
   0C17 CF                 4861 	.db #0xCF
   0C18 7C                 4862 	.db #0x7C
   0C19 2C                 4863 	.db #0x2C
   0C1A A8                 4864 	.db #0xA8
   0C1B F9                 4865 	.db #0xF9
   0C1C 35                 4866 	.db #0x35
   0C1D BC                 4867 	.db #0xBC
   0C1E 71                 4868 	.db #0x71
   0C1F 89                 4869 	.db #0x89
   0C20 04                 4870 	.db #0x04
   0C21 1D                 4871 	.db #0x1D
   0C22 4E                 4872 	.db #0x4E
   0C23 BD                 4873 	.db #0xBD
   0C24 54                 4874 	.db #0x54
   0C25 B7                 4875 	.db #0xB7
   0C26 98                 4876 	.db #0x98
   0C27 E0                 4877 	.db #0xE0
   0C28 B5                 4878 	.db #0xB5
   0C29 E5                 4879 	.db #0xE5
   0C2A C4                 4880 	.db #0xC4
   0C2B 83                 4881 	.db #0x83
   0C2C 65                 4882 	.db #0x65
   0C2D 8A                 4883 	.db #0x8A
   0C2E 81                 4884 	.db #0x81
   0C2F C1                 4885 	.db #0xC1
   0C30 49                 4886 	.db #0x49
   0C31 A0                 4887 	.db #0xA0
   0C32 A1                 4888 	.db #0xA1
   0C33 A4                 4889 	.db #0xA4
   0C34 CB                 4890 	.db #0xCB
   0C35 04                 4891 	.db #0x04
   0C36 BF                 4892 	.db #0xBF
   0C37 0B                 4893 	.db #0x0B
   0C38 64                 4894 	.db #0x64
   0C39 02                 4895 	.db #0x02
   0C3A 82                 4896 	.db #0x82
   0C3B 14                 4897 	.db #0x14
   0C3C 16                 4898 	.db #0x16
   0C3D EB                 4899 	.db #0xEB
   0C3E B4                 4900 	.db #0xB4
   0C3F 5F                 4901 	.db #0x5F
   0C40 66                 4902 	.db #0x66
   0C41 DD                 4903 	.db #0xDD
   0C42 9A                 4904 	.db #0x9A
   0C43 0B                 4905 	.db #0x0B
   0C44 12                 4906 	.db #0x12
   0C45 48                 4907 	.db #0x48
   0C46 A6                 4908 	.db #0xA6
   0C47 2D                 4909 	.db #0x2D
   0C48 76                 4910 	.db #0x76
   0C49 E5                 4911 	.db #0xE5
   0C4A B2                 4912 	.db #0xB2
   0C4B 60                 4913 	.db #0x60
   0C4C 3D                 4914 	.db #0x3D
   0C4D F6                 4915 	.db #0xF6
   0C4E C1                 4916 	.db #0xC1
   0C4F EA                 4917 	.db #0xEA
   0C50 75                 4918 	.db #0x75
   0C51 59                 4919 	.db #0x59
   0C52 1F                 4920 	.db #0x1F
   0C53 A4                 4921 	.db #0xA4
   0C54 B8                 4922 	.db #0xB8
   0C55 06                 4923 	.db #0x06
   0C56 A3                 4924 	.db #0xA3
   0C57 BA                 4925 	.db #0xBA
   0C58 A8                 4926 	.db #0xA8
   0C59 60                 4927 	.db #0x60
   0C5A D8                 4928 	.db #0xD8
   0C5B 77                 4929 	.db #0x77
   0C5C 78                 4930 	.db #0x78
   0C5D 8F                 4931 	.db #0x8F
   0C5E C7                 4932 	.db #0xC7
   0C5F 12                 4933 	.db #0x12
   0C60 A2                 4934 	.db #0xA2
   0C61 FB                 4935 	.db #0xFB
   0C62 CE                 4936 	.db #0xCE
   0C63 23                 4937 	.db #0x23
   0C64 6B                 4938 	.db #0x6B
   0C65 A4                 4939 	.db #0xA4
   0C66 25                 4940 	.db #0x25
   0C67 BB                 4941 	.db #0xBB
   0C68 34                 4942 	.db #0x34
   0C69 EB                 4943 	.db #0xEB
   0C6A A1                 4944 	.db #0xA1
   0C6B 43                 4945 	.db #0x43
   0C6C F1                 4946 	.db #0xF1
   0C6D 44                 4947 	.db #0x44
   0C6E F3                 4948 	.db #0xF3
   0C6F D0                 4949 	.db #0xD0
   0C70 C5                 4950 	.db #0xC5
   0C71 60                 4951 	.db #0x60
   0C72 27                 4952 	.db #0x27
   0C73 95                 4953 	.db #0x95
   0C74 8A                 4954 	.db #0x8A
   0C75 14                 4955 	.db #0x14
   0C76 FB                 4956 	.db #0xFB
   0C77 7C                 4957 	.db #0x7C
   0C78 18                 4958 	.db #0x18
   0C79 C2                 4959 	.db #0xC2
   0C7A 25                 4960 	.db #0x25
   0C7B 9A                 4961 	.db #0x9A
   0C7C 08                 4962 	.db #0x08
   0C7D 44                 4963 	.db #0x44
   0C7E BF                 4964 	.db #0xBF
   0C7F 1A                 4965 	.db #0x1A
   0C80 96                 4966 	.db #0x96
   0C81 ED                 4967 	.db #0xED
   0C82 E4                 4968 	.db #0xE4
   0C83 21                 4969 	.db #0x21
   0C84 F6                 4970 	.db #0xF6
   0C85 A3                 4971 	.db #0xA3
   0C86 AF                 4972 	.db #0xAF
   0C87 C1                 4973 	.db #0xC1
   0C88 BF                 4974 	.db #0xBF
   0C89 71                 4975 	.db #0x71
   0C8A 34                 4976 	.db #0x34
   0C8B 4D                 4977 	.db #0x4D
   0C8C 5F                 4978 	.db #0x5F
   0C8D C1                 4979 	.db #0xC1
   0C8E D1                 4980 	.db #0xD1
   0C8F F0                 4981 	.db #0xF0
   0C90 C6                 4982 	.db #0xC6
   0C91 80                 4983 	.db #0x80
   0C92 18                 4984 	.db #0x18
   0C93 B2                 4985 	.db #0xB2
   0C94 EE                 4986 	.db #0xEE
   0C95 C9                 4987 	.db #0xC9
   0C96 A4                 4988 	.db #0xA4
   0C97 D0                 4989 	.db #0xD0
   0C98 B4                 4990 	.db #0xB4
   0C99 02                 4991 	.db #0x02
   0C9A DD                 4992 	.db #0xDD
   0C9B 85                 4993 	.db #0x85
   0C9C D2                 4994 	.db #0xD2
   0C9D 63                 4995 	.db #0x63
   0C9E BA                 4996 	.db #0xBA
   0C9F 9A                 4997 	.db #0x9A
   0CA0 F7                 4998 	.db #0xF7
   0CA1 BA                 4999 	.db #0xBA
   0CA2 34                 5000 	.db #0x34
   0CA3 12                 5001 	.db #0x12
   0CA4 AF                 5002 	.db #0xAF
   0CA5 98                 5003 	.db #0x98
   0CA6 09                 5004 	.db #0x09
   0CA7 28                 5005 	.db #0x28
   0CA8 A3                 5006 	.db #0xA3
   0CA9 49                 5007 	.db #0x49
   0CAA 72                 5008 	.db #0x72
   0CAB C2                 5009 	.db #0xC2
   0CAC 89                 5010 	.db #0x89
   0CAD B6                 5011 	.db #0xB6
   0CAE 92                 5012 	.db #0x92
   0CAF A3                 5013 	.db #0xA3
   0CB0 95                 5014 	.db #0x95
   0CB1 97                 5015 	.db #0x97
   0CB2 16                 5016 	.db #0x16
   0CB3 31                 5017 	.db #0x31
   0CB4 A2                 5018 	.db #0xA2
   0CB5 DE                 5019 	.db #0xDE
   0CB6 B0                 5020 	.db #0xB0
   0CB7 8B                 5021 	.db #0x8B
   0CB8 6D                 5022 	.db #0x6D
   0CB9 66                 5023 	.db #0x66
   0CBA DD                 5024 	.db #0xDD
   0CBB FE                 5025 	.db #0xFE
   0CBC D6                 5026 	.db #0xD6
   0CBD 24                 5027 	.db #0x24
   0CBE EB                 5028 	.db #0xEB
   0CBF BB                 5029 	.db #0xBB
   0CC0 95                 5030 	.db #0x95
   0CC1 9A                 5031 	.db #0x9A
   0CC2 71                 5032 	.db #0x71
   0CC3 80                 5033 	.db #0x80
   0CC4 7F                 5034 	.db #0x7F
   0CC5 E1                 5035 	.db #0xE1
   0CC6 E3                 5036 	.db #0xE3
   0CC7 43                 5037 	.db #0x43
   0CC8 79                 5038 	.db #0x79
   0CC9 89                 5039 	.db #0x89
   0CCA 73                 5040 	.db #0x73
   0CCB A7                 5041 	.db #0xA7
   0CCC 46                 5042 	.db #0x46
   0CCD FA                 5043 	.db #0xFA
   0CCE 36                 5044 	.db #0x36
   0CCF C1                 5045 	.db #0xC1
   0CD0 F0                 5046 	.db #0xF0
   0CD1 D3                 5047 	.db #0xD3
   0CD2 B3                 5048 	.db #0xB3
   0CD3 24                 5049 	.db #0x24
   0CD4 22                 5050 	.db #0x22
   0CD5 F7                 5051 	.db #0xF7
   0CD6 56                 5052 	.db #0x56
   0CD7 5D                 5053 	.db #0x5D
   0CD8 15                 5054 	.db #0x15
   0CD9 CD                 5055 	.db #0xCD
   0CDA 4A                 5056 	.db #0x4A
   0CDB E1                 5057 	.db #0xE1
   0CDC 87                 5058 	.db #0x87
   0CDD 17                 5059 	.db #0x17
   0CDE 6E                 5060 	.db #0x6E
   0CDF 14                 5061 	.db #0x14
   0CE0 A6                 5062 	.db #0xA6
   0CE1 DD                 5063 	.db #0xDD
   0CE2 B8                 5064 	.db #0xB8
   0CE3 CB                 5065 	.db #0xCB
   0CE4 E2                 5066 	.db #0xE2
   0CE5 8D                 5067 	.db #0x8D
   0CE6 8E                 5068 	.db #0x8E
   0CE7 C2                 5069 	.db #0xC2
   0CE8 D2                 5070 	.db #0xD2
   0CE9 54                 5071 	.db #0x54
   0CEA C7                 5072 	.db #0xC7
   0CEB 63                 5073 	.db #0x63
   0CEC 16                 5074 	.db #0x16
   0CED DF                 5075 	.db #0xDF
   0CEE 87                 5076 	.db #0x87
   0CEF 0A                 5077 	.db #0x0A
   0CF0 AD                 5078 	.db #0xAD
   0CF1 68                 5079 	.db #0x68
   0CF2 D5                 5080 	.db #0xD5
   0CF3 EC                 5081 	.db #0xEC
   0CF4 48                 5082 	.db #0x48
   0CF5 CE                 5083 	.db #0xCE
   0CF6 B5                 5084 	.db #0xB5
   0CF7 94                 5085 	.db #0x94
   0CF8 7E                 5086 	.db #0x7E
   0CF9 D1                 5087 	.db #0xD1
   0CFA 76                 5088 	.db #0x76
   0CFB A6                 5089 	.db #0xA6
   0CFC DC                 5090 	.db #0xDC
   0CFD 46                 5091 	.db #0x46
   0CFE 22                 5092 	.db #0x22
   0CFF F1                 5093 	.db #0xF1
   0D00 A1                 5094 	.db #0xA1
   0D01 0D                 5095 	.db #0x0D
   0D02 ED                 5096 	.db #0xED
   0D03 A7                 5097 	.db #0xA7
   0D04 21                 5098 	.db #0x21
   0D05 B0                 5099 	.db #0xB0
   0D06 E8                 5100 	.db #0xE8
   0D07 EA                 5101 	.db #0xEA
   0D08 71                 5102 	.db #0x71
   0D09 C3                 5103 	.db #0xC3
   0D0A F9                 5104 	.db #0xF9
   0D0B 85                 5105 	.db #0x85
   0D0C 52                 5106 	.db #0x52
   0D0D 9F                 5107 	.db #0x9F
   0D0E 5C                 5108 	.db #0x5C
   0D0F 37                 5109 	.db #0x37
   0D10 E4                 5110 	.db #0xE4
   0D11 A7                 5111 	.db #0xA7
   0D12 22                 5112 	.db #0x22
   0D13 9B                 5113 	.db #0x9B
   0D14 3D                 5114 	.db #0x3D
   0D15 93                 5115 	.db #0x93
   0D16 1B                 5116 	.db #0x1B
   0D17 AD                 5117 	.db #0xAD
   0D18 55                 5118 	.db #0x55
   0D19 FD                 5119 	.db #0xFD
   0D1A BB                 5120 	.db #0xBB
   0D1B FD                 5121 	.db #0xFD
   0D1C C8                 5122 	.db #0xC8
   0D1D C2                 5123 	.db #0xC2
   0D1E 84                 5124 	.db #0x84
   0D1F 58                 5125 	.db #0x58
   0D20 1D                 5126 	.db #0x1D
   0D21 A9                 5127 	.db #0xA9
   0D22 29                 5128 	.db #0x29
   0D23 3F                 5129 	.db #0x3F
   0D24 FB                 5130 	.db #0xFB
   0D25 A6                 5131 	.db #0xA6
   0D26 3C                 5132 	.db #0x3C
   0D27 44                 5133 	.db #0x44
   0D28 56                 5134 	.db #0x56
   0D29 9A                 5135 	.db #0x9A
   0D2A 98                 5136 	.db #0x98
   0D2B FA                 5137 	.db #0xFA
   0D2C A9                 5138 	.db #0xA9
   0D2D CA                 5139 	.db #0xCA
   0D2E 02                 5140 	.db #0x02
   0D2F 95                 5141 	.db #0x95
   0D30 24                 5142 	.db #0x24
   0D31 9C                 5143 	.db #0x9C
   0D32 8F                 5144 	.db #0x8F
   0D33 C8                 5145 	.db #0xC8
   0D34 9D                 5146 	.db #0x9D
   0D35 7D                 5147 	.db #0x7D
   0D36 89                 5148 	.db #0x89
   0D37 2E                 5149 	.db #0x2E
   0D38 0B                 5150 	.db #0x0B
   0D39 25                 5151 	.db #0x25
   0D3A D4                 5152 	.db #0xD4
   0D3B 1B                 5153 	.db #0x1B
   0D3C 21                 5154 	.db #0x21
   0D3D 11                 5155 	.db #0x11
   0D3E 7E                 5156 	.db #0x7E
   0D3F 58                 5157 	.db #0x58
   0D40 CA                 5158 	.db #0xCA
   0D41 F4                 5159 	.db #0xF4
   0D42 10                 5160 	.db #0x10
   0D43 D1                 5161 	.db #0xD1
   0D44 5F                 5162 	.db #0x5F
   0D45 28                 5163 	.db #0x28
   0D46 50                 5164 	.db #0x50
   0D47 A9                 5165 	.db #0xA9
   0D48 44                 5166 	.db #0x44
   0D49 F1                 5167 	.db #0xF1
   0D4A 33                 5168 	.db #0x33
   0D4B 3C                 5169 	.db #0x3C
   0D4C D5                 5170 	.db #0xD5
   0D4D 83                 5171 	.db #0x83
   0D4E 60                 5172 	.db #0x60
   0D4F CA                 5173 	.db #0xCA
   0D50 AA                 5174 	.db #0xAA
   0D51 AB                 5175 	.db #0xAB
   0D52 66                 5176 	.db #0x66
   0D53 5B                 5177 	.db #0x5B
   0D54 3C                 5178 	.db #0x3C
   0D55 3B                 5179 	.db #0x3B
   0D56 01                 5180 	.db #0x01
   0D57 06                 5181 	.db #0x06
   0D58 4A                 5182 	.db #0x4A
   0D59 B0                 5183 	.db #0xB0
   0D5A EC                 5184 	.db #0xEC
   0D5B 5E                 5185 	.db #0x5E
   0D5C D8                 5186 	.db #0xD8
   0D5D 35                 5187 	.db #0x35
   0D5E 3F                 5188 	.db #0x3F
   0D5F FD                 5189 	.db #0xFD
   0D60 D5                 5190 	.db #0xD5
   0D61 B9                 5191 	.db #0xB9
   0D62 DB                 5192 	.db #0xDB
   0D63 07                 5193 	.db #0x07
   0D64 69                 5194 	.db #0x69
   0D65 37                 5195 	.db #0x37
   0D66 57                 5196 	.db #0x57
   0D67 E2                 5197 	.db #0xE2
   0D68 22                 5198 	.db #0x22
   0D69 82                 5199 	.db #0x82
   0D6A 1E                 5200 	.db #0x1E
   0D6B DB                 5201 	.db #0xDB
   0D6C 05                 5202 	.db #0x05
   0D6D 06                 5203 	.db #0x06
   0D6E C1                 5204 	.db #0xC1
   0D6F 03                 5205 	.db #0x03
   0D70 D7                 5206 	.db #0xD7
   0D71 58                 5207 	.db #0x58
   0D72 0C                 5208 	.db #0x0C
   0D73 44                 5209 	.db #0x44
   0D74 B1                 5210 	.db #0xB1
   0D75 60                 5211 	.db #0x60
   0D76 11                 5212 	.db #0x11
   0D77 AB                 5213 	.db #0xAB
   0D78 7A                 5214 	.db #0x7A
   0D79 65                 5215 	.db #0x65
   0D7A 91                 5216 	.db #0x91
   0D7B B5                 5217 	.db #0xB5
   0D7C 68                 5218 	.db #0x68
   0D7D C3                 5219 	.db #0xC3
   0D7E 87                 5220 	.db #0x87
   0D7F 9A                 5221 	.db #0x9A
   0D80 28                 5222 	.db #0x28
   0D81 76                 5223 	.db #0x76
   0D82 D7                 5224 	.db #0xD7
   0D83 0D                 5225 	.db #0x0D
   0D84 58                 5226 	.db #0x58
   0D85 BF                 5227 	.db #0xBF
   0D86 B2                 5228 	.db #0xB2
   0D87 02                 5229 	.db #0x02
   0D88 E7                 5230 	.db #0xE7
   0D89 DE                 5231 	.db #0xDE
   0D8A 51                 5232 	.db #0x51
   0D8B 91                 5233 	.db #0x91
   0D8C C5                 5234 	.db #0xC5
   0D8D 38                 5235 	.db #0x38
   0D8E 51                 5236 	.db #0x51
   0D8F 6B                 5237 	.db #0x6B
   0D90 4E                 5238 	.db #0x4E
   0D91 8C                 5239 	.db #0x8C
   0D92 D1                 5240 	.db #0xD1
   0D93 AE                 5241 	.db #0xAE
   0D94 3E                 5242 	.db #0x3E
   0D95 DA                 5243 	.db #0xDA
   0D96 0F                 5244 	.db #0x0F
   0D97 C4                 5245 	.db #0xC4
   0D98 52                 5246 	.db #0x52
   0D99 43                 5247 	.db #0x43
   0D9A 8E                 5248 	.db #0x8E
   0D9B CD                 5249 	.db #0xCD
   0D9C 1D                 5250 	.db #0x1D
   0D9D 38                 5251 	.db #0x38
   0D9E 24                 5252 	.db #0x24
   0D9F 74                 5253 	.db #0x74
   0DA0 DA                 5254 	.db #0xDA
   0DA1 0F                 5255 	.db #0x0F
   0DA2 E1                 5256 	.db #0xE1
   0DA3 A5                 5257 	.db #0xA5
   0DA4 A2                 5258 	.db #0xA2
   0DA5 68                 5259 	.db #0x68
   0DA6 29                 5260 	.db #0x29
   0DA7 CB                 5261 	.db #0xCB
   0DA8 5E                 5262 	.db #0x5E
   0DA9 29                 5263 	.db #0x29
   0DAA 73                 5264 	.db #0x73
   0DAB 94                 5265 	.db #0x94
   0DAC D1                 5266 	.db #0xD1
   0DAD D3                 5267 	.db #0xD3
   0DAE C6                 5268 	.db #0xC6
   0DAF 9E                 5269 	.db #0x9E
   0DB0 A3                 5270 	.db #0xA3
   0DB1 B8                 5271 	.db #0xB8
   0DB2 68                 5272 	.db #0x68
   0DB3 82                 5273 	.db #0x82
   0DB4 34                 5274 	.db #0x34
   0DB5 91                 5275 	.db #0x91
   0DB6 5B                 5276 	.db #0x5B
   0DB7 14                 5277 	.db #0x14
   0DB8 66                 5278 	.db #0x66
   0DB9 53                 5279 	.db #0x53
   0DBA 8A                 5280 	.db #0x8A
   0DBB EF                 5281 	.db #0xEF
   0DBC D2                 5282 	.db #0xD2
   0DBD 0E                 5283 	.db #0x0E
   0DBE 9B                 5284 	.db #0x9B
   0DBF 7A                 5285 	.db #0x7A
   0DC0 B2                 5286 	.db #0xB2
   0DC1 D8                 5287 	.db #0xD8
   0DC2 89                 5288 	.db #0x89
   0DC3 6B                 5289 	.db #0x6B
   0DC4 47                 5290 	.db #0x47
   0DC5 AA                 5291 	.db #0xAA
   0DC6 22                 5292 	.db #0x22
   0DC7 FE                 5293 	.db #0xFE
   0DC8 45                 5294 	.db #0x45
   0DC9 5C                 5295 	.db #0x5C
   0DCA 38                 5296 	.db #0x38
   0DCB FE                 5297 	.db #0xFE
   0DCC C8                 5298 	.db #0xC8
   0DCD AE                 5299 	.db #0xAE
   0DCE 21                 5300 	.db #0x21
   0DCF 3C                 5301 	.db #0x3C
   0DD0 2D                 5302 	.db #0x2D
   0DD1 0C                 5303 	.db #0x0C
   0DD2 C5                 5304 	.db #0xC5
   0DD3 DB                 5305 	.db #0xDB
   0DD4 83                 5306 	.db #0x83
   0DD5 3E                 5307 	.db #0x3E
   0DD6 20                 5308 	.db #0x20
   0DD7 2D                 5309 	.db #0x2D
   0DD8 AA                 5310 	.db #0xAA
   0DD9 74                 5311 	.db #0x74
   0DDA 17                 5312 	.db #0x17
   0DDB 4F                 5313 	.db #0x4F
   0DDC 64                 5314 	.db #0x64
   0DDD 22                 5315 	.db #0x22
   0DDE D5                 5316 	.db #0xD5
   0DDF F8                 5317 	.db #0xF8
   0DE0 97                 5318 	.db #0x97
   0DE1 D8                 5319 	.db #0xD8
   0DE2 8A                 5320 	.db #0x8A
   0DE3 10                 5321 	.db #0x10
   0DE4 BA                 5322 	.db #0xBA
   0DE5 54                 5323 	.db #0x54
   0DE6 4D                 5324 	.db #0x4D
   0DE7 40                 5325 	.db #0x40
   0DE8 97                 5326 	.db #0x97
   0DE9 97                 5327 	.db #0x97
   0DEA CB                 5328 	.db #0xCB
   0DEB D0                 5329 	.db #0xD0
   0DEC 38                 5330 	.db #0x38
   0DED 2E                 5331 	.db #0x2E
   0DEE 80                 5332 	.db #0x80
   0DEF C2                 5333 	.db #0xC2
   0DF0 AE                 5334 	.db #0xAE
   0DF1 46                 5335 	.db #0x46
   0DF2 74                 5336 	.db #0x74
   0DF3 DF                 5337 	.db #0xDF
   0DF4 69                 5338 	.db #0x69
   0DF5 0A                 5339 	.db #0x0A
   0DF6 31                 5340 	.db #0x31
   0DF7 C6                 5341 	.db #0xC6
   0DF8 C1                 5342 	.db #0xC1
   0DF9 F9                 5343 	.db #0xF9
   0DFA 5D                 5344 	.db #0x5D
   0DFB FC                 5345 	.db #0xFC
   0DFC AE                 5346 	.db #0xAE
   0DFD 3D                 5347 	.db #0x3D
   0DFE 7E                 5348 	.db #0x7E
   0DFF 66                 5349 	.db #0x66
   0E00 B0                 5350 	.db #0xB0
   0E01 94                 5351 	.db #0x94
   0E02 10                 5352 	.db #0x10
   0E03 D3                 5353 	.db #0xD3
   0E04 9C                 5354 	.db #0x9C
   0E05 29                 5355 	.db #0x29
   0E06 83                 5356 	.db #0x83
   0E07 DD                 5357 	.db #0xDD
   0E08 FA                 5358 	.db #0xFA
   0E09 CD                 5359 	.db #0xCD
   0E0A F4                 5360 	.db #0xF4
   0E0B 95                 5361 	.db #0x95
   0E0C BF                 5362 	.db #0xBF
   0E0D 76                 5363 	.db #0x76
   0E0E 33                 5364 	.db #0x33
   0E0F 80                 5365 	.db #0x80
   0E10 48                 5366 	.db #0x48
   0E11 50                 5367 	.db #0x50
   0E12 C9                 5368 	.db #0xC9
   0E13 C5                 5369 	.db #0xC5
   0E14 B6                 5370 	.db #0xB6
   0E15 7A                 5371 	.db #0x7A
   0E16 2F                 5372 	.db #0x2F
   0E17 07                 5373 	.db #0x07
   0E18 71                 5374 	.db #0x71
   0E19 BD                 5375 	.db #0xBD
   0E1A 32                 5376 	.db #0x32
   0E1B 83                 5377 	.db #0x83
   0E1C 5F                 5378 	.db #0x5F
   0E1D 6A                 5379 	.db #0x6A
   0E1E 0A                 5380 	.db #0x0A
   0E1F 19                 5381 	.db #0x19
   0E20 11                 5382 	.db #0x11
   0E21 37                 5383 	.db #0x37
   0E22 A7                 5384 	.db #0xA7
   0E23 4E                 5385 	.db #0x4E
   0E24 3D                 5386 	.db #0x3D
   0E25 7D                 5387 	.db #0x7D
   0E26 D8                 5388 	.db #0xD8
   0E27 B2                 5389 	.db #0xB2
   0E28 B7                 5390 	.db #0xB7
   0E29 A5                 5391 	.db #0xA5
   0E2A B2                 5392 	.db #0xB2
   0E2B 19                 5393 	.db #0x19
   0E2C 7E                 5394 	.db #0x7E
   0E2D D9                 5395 	.db #0xD9
   0E2E 0A                 5396 	.db #0x0A
   0E2F B8                 5397 	.db #0xB8
   0E30 BC                 5398 	.db #0xBC
   0E31 75                 5399 	.db #0x75
   0E32 3B                 5400 	.db #0x3B
   0E33 4E                 5401 	.db #0x4E
   0E34 26                 5402 	.db #0x26
   0E35 B0                 5403 	.db #0xB0
   0E36 F4                 5404 	.db #0xF4
   0E37 3F                 5405 	.db #0x3F
   0E38 70                 5406 	.db #0x70
   0E39 41                 5407 	.db #0x41
   0E3A 33                 5408 	.db #0x33
   0E3B 91                 5409 	.db #0x91
   0E3C C4                 5410 	.db #0xC4
   0E3D 50                 5411 	.db #0x50
   0E3E 1F                 5412 	.db #0x1F
   0E3F 57                 5413 	.db #0x57
   0E40 F3                 5414 	.db #0xF3
   0E41 13                 5415 	.db #0x13
   0E42 40                 5416 	.db #0x40
   0E43 E7                 5417 	.db #0xE7
   0E44 09                 5418 	.db #0x09
   0E45 FF                 5419 	.db #0xFF
   0E46 3D                 5420 	.db #0x3D
   0E47 4F                 5421 	.db #0x4F
   0E48 E7                 5422 	.db #0xE7
   0E49 65                 5423 	.db #0x65
   0E4A 92                 5424 	.db #0x92
   0E4B CC                 5425 	.db #0xCC
   0E4C F7                 5426 	.db #0xF7
   0E4D 63                 5427 	.db #0x63
   0E4E 9A                 5428 	.db #0x9A
   0E4F 56                 5429 	.db #0x56
   0E50 58                 5430 	.db #0x58
   0E51 EC                 5431 	.db #0xEC
   0E52 9B                 5432 	.db #0x9B
   0E53 B0                 5433 	.db #0xB0
   0E54 40                 5434 	.db #0x40
   0E55 2C                 5435 	.db #0x2C
   0E56 98                 5436 	.db #0x98
   0E57 F2                 5437 	.db #0xF2
   0E58 28                 5438 	.db #0x28
   0E59 9A                 5439 	.db #0x9A
   0E5A BB                 5440 	.db #0xBB
   0E5B 93                 5441 	.db #0x93
   0E5C 18                 5442 	.db #0x18
   0E5D 9F                 5443 	.db #0x9F
   0E5E FA                 5444 	.db #0xFA
   0E5F 63                 5445 	.db #0x63
   0E60 54                 5446 	.db #0x54
   0E61 05                 5447 	.db #0x05
   0E62 9B                 5448 	.db #0x9B
   0E63 DA                 5449 	.db #0xDA
   0E64 E7                 5450 	.db #0xE7
   0E65 8B                 5451 	.db #0x8B
   0E66 97                 5452 	.db #0x97
   0E67 7E                 5453 	.db #0x7E
   0E68 CA                 5454 	.db #0xCA
   0E69 66                 5455 	.db #0x66
   0E6A 9B                 5456 	.db #0x9B
   0E6B 56                 5457 	.db #0x56
   0E6C 7F                 5458 	.db #0x7F
   0E6D 54                 5459 	.db #0x54
   0E6E 4E                 5460 	.db #0x4E
   0E6F 93                 5461 	.db #0x93
   0E70 C5                 5462 	.db #0xC5
   0E71 B4                 5463 	.db #0xB4
   0E72 DD                 5464 	.db #0xDD
   0E73 9B                 5465 	.db #0x9B
   0E74 28                 5466 	.db #0x28
   0E75 B6                 5467 	.db #0xB6
   0E76 5D                 5468 	.db #0x5D
   0E77 9E                 5469 	.db #0x9E
   0E78 95                 5470 	.db #0x95
   0E79 0B                 5471 	.db #0x0B
   0E7A FF                 5472 	.db #0xFF
   0E7B D6                 5473 	.db #0xD6
   0E7C B7                 5474 	.db #0xB7
   0E7D A8                 5475 	.db #0xA8
   0E7E 3C                 5476 	.db #0x3C
   0E7F 3A                 5477 	.db #0x3A
   0E80 62                 5478 	.db #0x62
   0E81 48                 5479 	.db #0x48
   0E82 97                 5480 	.db #0x97
   0E83 F8                 5481 	.db #0xF8
   0E84 67                 5482 	.db #0x67
   0E85 E8                 5483 	.db #0xE8
   0E86 B9                 5484 	.db #0xB9
   0E87 8C                 5485 	.db #0x8C
   0E88 6A                 5486 	.db #0x6A
   0E89 7F                 5487 	.db #0x7F
   0E8A 1E                 5488 	.db #0x1E
   0E8B F4                 5489 	.db #0xF4
   0E8C C0                 5490 	.db #0xC0
   0E8D E2                 5491 	.db #0xE2
   0E8E 5D                 5492 	.db #0x5D
   0E8F DC                 5493 	.db #0xDC
   0E90 50                 5494 	.db #0x50
   0E91 F2                 5495 	.db #0xF2
   0E92 75                 5496 	.db #0x75
   0E93 5D                 5497 	.db #0x5D
   0E94 50                 5498 	.db #0x50
   0E95 50                 5499 	.db #0x50
   0E96 65                 5500 	.db #0x65
   0E97 20                 5501 	.db #0x20
   0E98 22                 5502 	.db #0x22
   0E99 AA                 5503 	.db #0xAA
   0E9A 72                 5504 	.db #0x72
   0E9B 9E                 5505 	.db #0x9E
   0E9C 6E                 5506 	.db #0x6E
   0E9D 22                 5507 	.db #0x22
   0E9E C1                 5508 	.db #0xC1
   0E9F B1                 5509 	.db #0xB1
   0EA0 52                 5510 	.db #0x52
   0EA1 51                 5511 	.db #0x51
   0EA2 40                 5512 	.db #0x40
   0EA3 4E                 5513 	.db #0x4E
   0EA4 47                 5514 	.db #0x47
   0EA5 D8                 5515 	.db #0xD8
   0EA6 46                 5516 	.db #0x46
   0EA7 7D                 5517 	.db #0x7D
   0EA8 87                 5518 	.db #0x87
   0EA9 74                 5519 	.db #0x74
   0EAA 09                 5520 	.db #0x09
   0EAB 05                 5521 	.db #0x05
   0EAC EF                 5522 	.db #0xEF
   0EAD 58                 5523 	.db #0x58
   0EAE C3                 5524 	.db #0xC3
   0EAF F2                 5525 	.db #0xF2
   0EB0 6E                 5526 	.db #0x6E
   0EB1 8D                 5527 	.db #0x8D
   0EB2 57                 5528 	.db #0x57
   0EB3 1E                 5529 	.db #0x1E
   0EB4 C0                 5530 	.db #0xC0
   0EB5 1A                 5531 	.db #0x1A
   0EB6 BC                 5532 	.db #0xBC
   0EB7 6D                 5533 	.db #0x6D
   0EB8 68                 5534 	.db #0x68
   0EB9 B1                 5535 	.db #0xB1
   0EBA 63                 5536 	.db #0x63
   0EBB A6                 5537 	.db #0xA6
   0EBC B8                 5538 	.db #0xB8
   0EBD AA                 5539 	.db #0xAA
   0EBE CD                 5540 	.db #0xCD
   0EBF C4                 5541 	.db #0xC4
   0EC0 6B                 5542 	.db #0x6B
   0EC1 83                 5543 	.db #0x83
   0EC2 6D                 5544 	.db #0x6D
   0EC3 3A                 5545 	.db #0x3A
   0EC4 3F                 5546 	.db #0x3F
   0EC5 80                 5547 	.db #0x80
   0EC6 D3                 5548 	.db #0xD3
   0EC7 F6                 5549 	.db #0xF6
   0EC8 4C                 5550 	.db #0x4C
   0EC9 58                 5551 	.db #0x58
   0ECA 7D                 5552 	.db #0x7D
   0ECB BD                 5553 	.db #0xBD
   0ECC 51                 5554 	.db #0x51
   0ECD C9                 5555 	.db #0xC9
   0ECE 06                 5556 	.db #0x06
   0ECF 3C                 5557 	.db #0x3C
   0ED0 BB                 5558 	.db #0xBB
   0ED1 5B                 5559 	.db #0x5B
   0ED2 36                 5560 	.db #0x36
   0ED3 DF                 5561 	.db #0xDF
   0ED4 BF                 5562 	.db #0xBF
   0ED5 8C                 5563 	.db #0x8C
   0ED6 C8                 5564 	.db #0xC8
   0ED7 6D                 5565 	.db #0x6D
   0ED8 D8                 5566 	.db #0xD8
   0ED9 07                 5567 	.db #0x07
   0EDA 3D                 5568 	.db #0x3D
   0EDB 62                 5569 	.db #0x62
   0EDC 7E                 5570 	.db #0x7E
   0EDD 30                 5571 	.db #0x30
   0EDE D3                 5572 	.db #0xD3
   0EDF 43                 5573 	.db #0x43
   0EE0 C8                 5574 	.db #0xC8
   0EE1 5C                 5575 	.db #0x5C
   0EE2 77                 5576 	.db #0x77
   0EE3 AB                 5577 	.db #0xAB
   0EE4 98                 5578 	.db #0x98
   0EE5 7B                 5579 	.db #0x7B
   0EE6 00                 5580 	.db #0x00
   0EE7 0C                 5581 	.db #0x0C
   0EE8 8B                 5582 	.db #0x8B
   0EE9 C4                 5583 	.db #0xC4
   0EEA 35                 5584 	.db #0x35
   0EEB 31                 5585 	.db #0x31
   0EEC 65                 5586 	.db #0x65
   0EED 7B                 5587 	.db #0x7B
   0EEE 92                 5588 	.db #0x92
   0EEF 75                 5589 	.db #0x75
   0EF0 F6                 5590 	.db #0xF6
   0EF1 42                 5591 	.db #0x42
   0EF2 EE                 5592 	.db #0xEE
   0EF3 9F                 5593 	.db #0x9F
   0EF4 D3                 5594 	.db #0xD3
   0EF5 F9                 5595 	.db #0xF9
   0EF6 FB                 5596 	.db #0xFB
   0EF7 BB                 5597 	.db #0xBB
   0EF8 E1                 5598 	.db #0xE1
   0EF9 42                 5599 	.db #0x42
   0EFA 43                 5600 	.db #0x43
   0EFB 9F                 5601 	.db #0x9F
   0EFC D7                 5602 	.db #0xD7
   0EFD E6                 5603 	.db #0xE6
   0EFE B4                 5604 	.db #0xB4
   0EFF F5                 5605 	.db #0xF5
   0F00 C2                 5606 	.db #0xC2
   0F01 90                 5607 	.db #0x90
   0F02 EA                 5608 	.db #0xEA
   0F03 B6                 5609 	.db #0xB6
   0F04 A9                 5610 	.db #0xA9
   0F05 A4                 5611 	.db #0xA4
   0F06 01                 5612 	.db #0x01
   0F07 51                 5613 	.db #0x51
   0F08 7E                 5614 	.db #0x7E
   0F09 B6                 5615 	.db #0xB6
   0F0A C5                 5616 	.db #0xC5
   0F0B 9F                 5617 	.db #0x9F
   0F0C 23                 5618 	.db #0x23
   0F0D 54                 5619 	.db #0x54
   0F0E 57                 5620 	.db #0x57
   0F0F 63                 5621 	.db #0x63
   0F10 77                 5622 	.db #0x77
   0F11 F0                 5623 	.db #0xF0
   0F12 61                 5624 	.db #0x61
   0F13 A1                 5625 	.db #0xA1
   0F14 4C                 5626 	.db #0x4C
   0F15 BB                 5627 	.db #0xBB
   0F16 1E                 5628 	.db #0x1E
   0F17 40                 5629 	.db #0x40
   0F18 E8                 5630 	.db #0xE8
   0F19 F1                 5631 	.db #0xF1
   0F1A 64                 5632 	.db #0x64
   0F1B 96                 5633 	.db #0x96
   0F1C 76                 5634 	.db #0x76
   0F1D 41                 5635 	.db #0x41
   0F1E 97                 5636 	.db #0x97
   0F1F B1                 5637 	.db #0xB1
   0F20 E2                 5638 	.db #0xE2
   0F21 76                 5639 	.db #0x76
   0F22 86                 5640 	.db #0x86
   0F23 34                 5641 	.db #0x34
   0F24 C0                 5642 	.db #0xC0
   0F25 53                 5643 	.db #0x53
   0F26 32                 5644 	.db #0x32
   0F27 65                 5645 	.db #0x65
   0F28 15                 5646 	.db #0x15
   0F29 6C                 5647 	.db #0x6C
   0F2A 3B                 5648 	.db #0x3B
   0F2B 92                 5649 	.db #0x92
   0F2C 41                 5650 	.db #0x41
   0F2D 17                 5651 	.db #0x17
   0F2E 58                 5652 	.db #0x58
   0F2F 5E                 5653 	.db #0x5E
   0F30 4D                 5654 	.db #0x4D
   0F31 6C                 5655 	.db #0x6C
   0F32 43                 5656 	.db #0x43
   0F33 35                 5657 	.db #0x35
   0F34 C7                 5658 	.db #0xC7
   0F35 D1                 5659 	.db #0xD1
   0F36 23                 5660 	.db #0x23
   0F37 58                 5661 	.db #0x58
   0F38 ED                 5662 	.db #0xED
   0F39 DE                 5663 	.db #0xDE
   0F3A 5D                 5664 	.db #0x5D
   0F3B FE                 5665 	.db #0xFE
   0F3C 82                 5666 	.db #0x82
   0F3D D6                 5667 	.db #0xD6
   0F3E E7                 5668 	.db #0xE7
   0F3F 4E                 5669 	.db #0x4E
   0F40 39                 5670 	.db #0x39
   0F41 22                 5671 	.db #0x22
   0F42 BB                 5672 	.db #0xBB
   0F43 A1                 5673 	.db #0xA1
   0F44 95                 5674 	.db #0x95
   0F45 8F                 5675 	.db #0x8F
   0F46 D8                 5676 	.db #0xD8
   0F47 54                 5677 	.db #0x54
   0F48 FC                 5678 	.db #0xFC
   0F49 F7                 5679 	.db #0xF7
   0F4A DC                 5680 	.db #0xDC
   0F4B 66                 5681 	.db #0x66
   0F4C BC                 5682 	.db #0xBC
   0F4D 49                 5683 	.db #0x49
   0F4E 5D                 5684 	.db #0x5D
   0F4F 59                 5685 	.db #0x59
   0F50 82                 5686 	.db #0x82
   0F51 35                 5687 	.db #0x35
   0F52 31                 5688 	.db #0x31
   0F53 24                 5689 	.db #0x24
   0F54 BA                 5690 	.db #0xBA
   0F55 B3                 5691 	.db #0xB3
   0F56 C0                 5692 	.db #0xC0
   0F57 6C                 5693 	.db #0x6C
   0F58 4A                 5694 	.db #0x4A
   0F59 D7                 5695 	.db #0xD7
   0F5A ED                 5696 	.db #0xED
   0F5B D1                 5697 	.db #0xD1
   0F5C 5A                 5698 	.db #0x5A
   0F5D 48                 5699 	.db #0x48
   0F5E 89                 5700 	.db #0x89
   0F5F 45                 5701 	.db #0x45
   0F60 71                 5702 	.db #0x71
   0F61 20                 5703 	.db #0x20
   0F62 2B                 5704 	.db #0x2B
   0F63 B4                 5705 	.db #0xB4
   0F64 CA                 5706 	.db #0xCA
   0F65 19                 5707 	.db #0x19
   0F66 03                 5708 	.db #0x03
   0F67 1A                 5709 	.db #0x1A
   0F68 90                 5710 	.db #0x90
   0F69 68                 5711 	.db #0x68
   0F6A C9                 5712 	.db #0xC9
   0F6B 08                 5713 	.db #0x08
   0F6C AF                 5714 	.db #0xAF
   0F6D 84                 5715 	.db #0x84
   0F6E B6                 5716 	.db #0xB6
   0F6F 9C                 5717 	.db #0x9C
   0F70 EA                 5718 	.db #0xEA
   0F71 66                 5719 	.db #0x66
   0F72 DD                 5720 	.db #0xDD
   0F73 30                 5721 	.db #0x30
   0F74 61                 5722 	.db #0x61
   0F75 69                 5723 	.db #0x69
   0F76 10                 5724 	.db #0x10
   0F77 45                 5725 	.db #0x45
   0F78 21                 5726 	.db #0x21
   0F79 54                 5727 	.db #0x54
   0F7A FD                 5728 	.db #0xFD
   0F7B 72                 5729 	.db #0x72
   0F7C 5A                 5730 	.db #0x5A
   0F7D 71                 5731 	.db #0x71
   0F7E 18                 5732 	.db #0x18
   0F7F FD                 5733 	.db #0xFD
   0F80 CB                 5734 	.db #0xCB
   0F81 2D                 5735 	.db #0x2D
   0F82 24                 5736 	.db #0x24
   0F83 6A                 5737 	.db #0x6A
   0F84 7F                 5738 	.db #0x7F
   0F85 DE                 5739 	.db #0xDE
   0F86 AE                 5740 	.db #0xAE
   0F87 52                 5741 	.db #0x52
   0F88 05                 5742 	.db #0x05
   0F89 8D                 5743 	.db #0x8D
   0F8A 33                 5744 	.db #0x33
   0F8B 3B                 5745 	.db #0x3B
   0F8C 81                 5746 	.db #0x81
   0F8D 48                 5747 	.db #0x48
   0F8E 51                 5748 	.db #0x51
   0F8F EE                 5749 	.db #0xEE
   0F90 9C                 5750 	.db #0x9C
   0F91 0D                 5751 	.db #0x0D
   0F92 0D                 5752 	.db #0x0D
   0F93 BC                 5753 	.db #0xBC
   0F94 EF                 5754 	.db #0xEF
   0F95 A9                 5755 	.db #0xA9
   0F96 C7                 5756 	.db #0xC7
   0F97 8A                 5757 	.db #0x8A
   0F98 DB                 5758 	.db #0xDB
   0F99 95                 5759 	.db #0x95
   0F9A 6A                 5760 	.db #0x6A
   0F9B 8D                 5761 	.db #0x8D
   0F9C 85                 5762 	.db #0x85
   0F9D 05                 5763 	.db #0x05
   0F9E C0                 5764 	.db #0xC0
   0F9F BC                 5765 	.db #0xBC
   0FA0 78                 5766 	.db #0x78
   0FA1 33                 5767 	.db #0x33
   0FA2 62                 5768 	.db #0x62
   0FA3 05                 5769 	.db #0x05
   0FA4 18                 5770 	.db #0x18
   0FA5 EB                 5771 	.db #0xEB
   0FA6 47                 5772 	.db #0x47
   0FA7 2D                 5773 	.db #0x2D
   0FA8 A8                 5774 	.db #0xA8
   0FA9 3D                 5775 	.db #0x3D
   0FAA 36                 5776 	.db #0x36
   0FAB 11                 5777 	.db #0x11
   0FAC 60                 5778 	.db #0x60
   0FAD 99                 5779 	.db #0x99
   0FAE 96                 5780 	.db #0x96
   0FAF FB                 5781 	.db #0xFB
   0FB0 91                 5782 	.db #0x91
   0FB1 CB                 5783 	.db #0xCB
   0FB2 58                 5784 	.db #0x58
   0FB3 1E                 5785 	.db #0x1E
   0FB4 44                 5786 	.db #0x44
   0FB5 C6                 5787 	.db #0xC6
   0FB6 FB                 5788 	.db #0xFB
   0FB7 5D                 5789 	.db #0x5D
   0FB8 55                 5790 	.db #0x55
   0FB9 5A                 5791 	.db #0x5A
   0FBA 09                 5792 	.db #0x09
   0FBB 50                 5793 	.db #0x50
   0FBC 42                 5794 	.db #0x42
   0FBD 62                 5795 	.db #0x62
   0FBE 23                 5796 	.db #0x23
   0FBF 62                 5797 	.db #0x62
   0FC0 A5                 5798 	.db #0xA5
   0FC1 87                 5799 	.db #0x87
   0FC2 49                 5800 	.db #0x49
   0FC3 33                 5801 	.db #0x33
   0FC4 A0                 5802 	.db #0xA0
   0FC5 33                 5803 	.db #0x33
   0FC6 06                 5804 	.db #0x06
   0FC7 8E                 5805 	.db #0x8E
   0FC8 8E                 5806 	.db #0x8E
   0FC9 56                 5807 	.db #0x56
   0FCA 09                 5808 	.db #0x09
   0FCB 7B                 5809 	.db #0x7B
   0FCC B4                 5810 	.db #0xB4
   0FCD A0                 5811 	.db #0xA0
   0FCE 50                 5812 	.db #0x50
   0FCF B3                 5813 	.db #0xB3
   0FD0 B1                 5814 	.db #0xB1
   0FD1 AC                 5815 	.db #0xAC
   0FD2 D4                 5816 	.db #0xD4
   0FD3 20                 5817 	.db #0x20
   0FD4 A6                 5818 	.db #0xA6
   0FD5 45                 5819 	.db #0x45
   0FD6 24                 5820 	.db #0x24
   0FD7 2A                 5821 	.db #0x2A
   0FD8 A0                 5822 	.db #0xA0
   0FD9 4A                 5823 	.db #0x4A
   0FDA 0B                 5824 	.db #0x0B
   0FDB 8D                 5825 	.db #0x8D
   0FDC 3D                 5826 	.db #0x3D
   0FDD E2                 5827 	.db #0xE2
   0FDE 50                 5828 	.db #0x50
   0FDF FB                 5829 	.db #0xFB
   0FE0 4B                 5830 	.db #0x4B
   0FE1 88                 5831 	.db #0x88
   0FE2 C2                 5832 	.db #0xC2
   0FE3 3C                 5833 	.db #0x3C
   0FE4 2B                 5834 	.db #0x2B
   0FE5 1C                 5835 	.db #0x1C
   0FE6 E0                 5836 	.db #0xE0
   0FE7 4E                 5837 	.db #0x4E
   0FE8 61                 5838 	.db #0x61
   0FE9 20                 5839 	.db #0x20
   0FEA 31                 5840 	.db #0x31
   0FEB 7A                 5841 	.db #0x7A
   0FEC 72                 5842 	.db #0x72
   0FED 70                 5843 	.db #0x70
   0FEE 5E                 5844 	.db #0x5E
   0FEF BB                 5845 	.db #0xBB
   0FF0 AA                 5846 	.db #0xAA
   0FF1 4D                 5847 	.db #0x4D
   0FF2 3A                 5848 	.db #0x3A
   0FF3 CF                 5849 	.db #0xCF
   0FF4 B9                 5850 	.db #0xB9
   0FF5 60                 5851 	.db #0x60
   0FF6 E7                 5852 	.db #0xE7
   0FF7 B7                 5853 	.db #0xB7
   0FF8 9F                 5854 	.db #0x9F
   0FF9 6C                 5855 	.db #0x6C
   0FFA 24                 5856 	.db #0x24
   0FFB F9                 5857 	.db #0xF9
   0FFC 3A                 5858 	.db #0x3A
   0FFD 0F                 5859 	.db #0x0F
   0FFE C2                 5860 	.db #0xC2
   0FFF 7C                 5861 	.db #0x7C
   1000 8B                 5862 	.db #0x8B
   1001 86                 5863 	.db #0x86
   1002 31                 5864 	.db #0x31
   1003 23                 5865 	.db #0x23
   1004 DD                 5866 	.db #0xDD
   1005 8B                 5867 	.db #0x8B
   1006 93                 5868 	.db #0x93
   1007 FB                 5869 	.db #0xFB
   1008 1D                 5870 	.db #0x1D
   1009 05                 5871 	.db #0x05
   100A 09                 5872 	.db #0x09
   100B 3A                 5873 	.db #0x3A
   100C 51                 5874 	.db #0x51
   100D 21                 5875 	.db #0x21
   100E 79                 5876 	.db #0x79
   100F 3D                 5877 	.db #0x3D
   1010 B6                 5878 	.db #0xB6
   1011 EB                 5879 	.db #0xEB
   1012 FE                 5880 	.db #0xFE
   1013 BF                 5881 	.db #0xBF
   1014 8E                 5882 	.db #0x8E
   1015 FF                 5883 	.db #0xFF
   1016 58                 5884 	.db #0x58
   1017 EA                 5885 	.db #0xEA
   1018 D8                 5886 	.db #0xD8
   1019 51                 5887 	.db #0x51
   101A DB                 5888 	.db #0xDB
   101B A2                 5889 	.db #0xA2
   101C 62                 5890 	.db #0x62
   101D 9C                 5891 	.db #0x9C
   101E 99                 5892 	.db #0x99
   101F DF                 5893 	.db #0xDF
   1020 53                 5894 	.db #0x53
   1021 FC                 5895 	.db #0xFC
   1022 6A                 5896 	.db #0x6A
   1023 C3                 5897 	.db #0xC3
   1024 19                 5898 	.db #0x19
   1025 E8                 5899 	.db #0xE8
   1026 66                 5900 	.db #0x66
   1027 DD                 5901 	.db #0xDD
   1028 12                 5902 	.db #0x12
   1029 36                 5903 	.db #0x36
   102A F7                 5904 	.db #0xF7
   102B 77                 5905 	.db #0x77
   102C AE                 5906 	.db #0xAE
   102D BE                 5907 	.db #0xBE
   102E B9                 5908 	.db #0xB9
   102F 45                 5909 	.db #0x45
   1030 63                 5910 	.db #0x63
   1031 44                 5911 	.db #0x44
   1032 E7                 5912 	.db #0xE7
   1033 94                 5913 	.db #0x94
   1034 02                 5914 	.db #0x02
   1035 EC                 5915 	.db #0xEC
   1036 44                 5916 	.db #0x44
   1037 FA                 5917 	.db #0xFA
   1038 64                 5918 	.db #0x64
   1039 67                 5919 	.db #0x67
   103A 05                 5920 	.db #0x05
   103B 4D                 5921 	.db #0x4D
   103C EE                 5922 	.db #0xEE
   103D C3                 5923 	.db #0xC3
   103E 32                 5924 	.db #0x32
   103F 92                 5925 	.db #0x92
   1040 56                 5926 	.db #0x56
   1041 9A                 5927 	.db #0x9A
   1042 47                 5928 	.db #0x47
   1043 63                 5929 	.db #0x63
   1044 A8                 5930 	.db #0xA8
   1045 D3                 5931 	.db #0xD3
   1046 10                 5932 	.db #0x10
   1047 A9                 5933 	.db #0xA9
   1048 C1                 5934 	.db #0xC1
   1049 28                 5935 	.db #0x28
   104A 5C                 5936 	.db #0x5C
   104B 8D                 5937 	.db #0x8D
   104C 36                 5938 	.db #0x36
   104D 39                 5939 	.db #0x39
   104E E3                 5940 	.db #0xE3
   104F 08                 5941 	.db #0x08
   1050 48                 5942 	.db #0x48
   1051 55                 5943 	.db #0x55
   1052 96                 5944 	.db #0x96
   1053 7C                 5945 	.db #0x7C
   1054 95                 5946 	.db #0x95
   1055 12                 5947 	.db #0x12
   1056 DF                 5948 	.db #0xDF
   1057 F9                 5949 	.db #0xF9
   1058 F0                 5950 	.db #0xF0
   1059 0A                 5951 	.db #0x0A
   105A D7                 5952 	.db #0xD7
   105B 56                 5953 	.db #0x56
   105C 1C                 5954 	.db #0x1C
   105D 95                 5955 	.db #0x95
   105E 59                 5956 	.db #0x59
   105F 2A                 5957 	.db #0x2A
   1060 72                 5958 	.db #0x72
   1061 14                 5959 	.db #0x14
   1062 B7                 5960 	.db #0xB7
   1063 88                 5961 	.db #0x88
   1064 30                 5962 	.db #0x30
   1065 97                 5963 	.db #0x97
   1066 6E                 5964 	.db #0x6E
   1067 CB                 5965 	.db #0xCB
   1068 57                 5966 	.db #0x57
   1069 EB                 5967 	.db #0xEB
   106A DA                 5968 	.db #0xDA
   106B 20                 5969 	.db #0x20
   106C 11                 5970 	.db #0x11
   106D 3D                 5971 	.db #0x3D
   106E 5B                 5972 	.db #0x5B
   106F EC                 5973 	.db #0xEC
   1070 F2                 5974 	.db #0xF2
   1071 88                 5975 	.db #0x88
   1072 5D                 5976 	.db #0x5D
   1073 A7                 5977 	.db #0xA7
   1074 D4                 5978 	.db #0xD4
   1075 90                 5979 	.db #0x90
   1076 83                 5980 	.db #0x83
   1077 CE                 5981 	.db #0xCE
   1078 0E                 5982 	.db #0x0E
   1079 A1                 5983 	.db #0xA1
   107A 02                 5984 	.db #0x02
   107B 08                 5985 	.db #0x08
   107C 86                 5986 	.db #0x86
   107D 50                 5987 	.db #0x50
   107E 58                 5988 	.db #0x58
   107F 6D                 5989 	.db #0x6D
   1080 0D                 5990 	.db #0x0D
   1081 F1                 5991 	.db #0xF1
   1082 F0                 5992 	.db #0xF0
   1083 F5                 5993 	.db #0xF5
   1084 D1                 5994 	.db #0xD1
   1085 A5                 5995 	.db #0xA5
   1086 92                 5996 	.db #0x92
   1087 03                 5997 	.db #0x03
   1088 20                 5998 	.db #0x20
   1089 95                 5999 	.db #0x95
   108A A8                 6000 	.db #0xA8
   108B 53                 6001 	.db #0x53
   108C 35                 6002 	.db #0x35
   108D 60                 6003 	.db #0x60
   108E AA                 6004 	.db #0xAA
   108F 4E                 6005 	.db #0x4E
   1090 98                 6006 	.db #0x98
   1091 49                 6007 	.db #0x49
   1092 0C                 6008 	.db #0x0C
   1093 2F                 6009 	.db #0x2F
   1094 E5                 6010 	.db #0xE5
   1095 DC                 6011 	.db #0xDC
   1096 85                 6012 	.db #0x85
   1097 30                 6013 	.db #0x30
   1098 20                 6014 	.db #0x20
   1099 68                 6015 	.db #0x68
   109A 97                 6016 	.db #0x97
   109B E1                 6017 	.db #0xE1
   109C 43                 6018 	.db #0x43
   109D CA                 6019 	.db #0xCA
   109E FD                 6020 	.db #0xFD
   109F 84                 6021 	.db #0x84
   10A0 85                 6022 	.db #0x85
   10A1 99                 6023 	.db #0x99
   10A2 B3                 6024 	.db #0xB3
   10A3 BF                 6025 	.db #0xBF
   10A4 24                 6026 	.db #0x24
   10A5 FE                 6027 	.db #0xFE
   10A6 61                 6028 	.db #0x61
   10A7 BB                 6029 	.db #0xBB
   10A8 DD                 6030 	.db #0xDD
   10A9 60                 6031 	.db #0x60
   10AA B2                 6032 	.db #0xB2
   10AB FD                 6033 	.db #0xFD
   10AC 3C                 6034 	.db #0x3C
   10AD BF                 6035 	.db #0xBF
   10AE 5A                 6036 	.db #0x5A
   10AF 84                 6037 	.db #0x84
   10B0 F7                 6038 	.db #0xF7
   10B1 73                 6039 	.db #0x73
   10B2 31                 6040 	.db #0x31
   10B3 77                 6041 	.db #0x77
   10B4 91                 6042 	.db #0x91
   10B5 EA                 6043 	.db #0xEA
   10B6 6B                 6044 	.db #0x6B
   10B7 64                 6045 	.db #0x64
   10B8 3C                 6046 	.db #0x3C
   10B9 88                 6047 	.db #0x88
   10BA 62                 6048 	.db #0x62
   10BB 87                 6049 	.db #0x87
   10BC F8                 6050 	.db #0xF8
   10BD 46                 6051 	.db #0x46
   10BE 79                 6052 	.db #0x79
   10BF 2C                 6053 	.db #0x2C
   10C0 95                 6054 	.db #0x95
   10C1 FE                 6055 	.db #0xFE
   10C2 D6                 6056 	.db #0xD6
   10C3 AB                 6057 	.db #0xAB
   10C4 E9                 6058 	.db #0xE9
   10C5 AD                 6059 	.db #0xAD
   10C6 61                 6060 	.db #0x61
   10C7 0F                 6061 	.db #0x0F
   10C8 BA                 6062 	.db #0xBA
   10C9 48                 6063 	.db #0x48
   10CA 1B                 6064 	.db #0x1B
   10CB D7                 6065 	.db #0xD7
   10CC 94                 6066 	.db #0x94
   10CD E6                 6067 	.db #0xE6
   10CE D2                 6068 	.db #0xD2
   10CF FC                 6069 	.db #0xFC
   10D0 CF                 6070 	.db #0xCF
   10D1 CE                 6071 	.db #0xCE
   10D2 01                 6072 	.db #0x01
   10D3 37                 6073 	.db #0x37
   10D4 BE                 6074 	.db #0xBE
   10D5 F9                 6075 	.db #0xF9
   10D6 31                 6076 	.db #0x31
   10D7 E4                 6077 	.db #0xE4
   10D8 6D                 6078 	.db #0x6D
   10D9 60                 6079 	.db #0x60
   10DA 44                 6080 	.db #0x44
   10DB BF                 6081 	.db #0xBF
   10DC 02                 6082 	.db #0x02
   10DD DC                 6083 	.db #0xDC
   10DE F8                 6084 	.db #0xF8
   10DF A6                 6085 	.db #0xA6
   10E0 30                 6086 	.db #0x30
   10E1 75                 6087 	.db #0x75
   10E2 FE                 6088 	.db #0xFE
   10E3 81                 6089 	.db #0x81
   10E4 46                 6090 	.db #0x46
   10E5 4F                 6091 	.db #0x4F
   10E6 62                 6092 	.db #0x62
   10E7 4A                 6093 	.db #0x4A
   10E8 9B                 6094 	.db #0x9B
   10E9 85                 6095 	.db #0x85
   10EA 0C                 6096 	.db #0x0C
   10EB 87                 6097 	.db #0x87
   10EC 70                 6098 	.db #0x70
   10ED A7                 6099 	.db #0xA7
   10EE 83                 6100 	.db #0x83
   10EF 4F                 6101 	.db #0x4F
   10F0 47                 6102 	.db #0x47
   10F1 13                 6103 	.db #0x13
   10F2 21                 6104 	.db #0x21
   10F3 6A                 6105 	.db #0x6A
   10F4 E7                 6106 	.db #0xE7
   10F5 90                 6107 	.db #0x90
   10F6 7D                 6108 	.db #0x7D
   10F7 01                 6109 	.db #0x01
   10F8 10                 6110 	.db #0x10
   10F9 D5                 6111 	.db #0xD5
   10FA D2                 6112 	.db #0xD2
   10FB E4                 6113 	.db #0xE4
   10FC AC                 6114 	.db #0xAC
   10FD 13                 6115 	.db #0x13
   10FE 32                 6116 	.db #0x32
   10FF DA                 6117 	.db #0xDA
   1100 50                 6118 	.db #0x50
   1101 ED                 6119 	.db #0xED
   1102 8C                 6120 	.db #0x8C
   1103 6C                 6121 	.db #0x6C
   1104 61                 6122 	.db #0x61
   1105 0E                 6123 	.db #0x0E
   1106 DC                 6124 	.db #0xDC
   1107 C7                 6125 	.db #0xC7
   1108 92                 6126 	.db #0x92
   1109 73                 6127 	.db #0x73
   110A A3                 6128 	.db #0xA3
   110B E4                 6129 	.db #0xE4
   110C 44                 6130 	.db #0x44
   110D 16                 6131 	.db #0x16
   110E 52                 6132 	.db #0x52
   110F 57                 6133 	.db #0x57
   1110 07                 6134 	.db #0x07
   1111 99                 6135 	.db #0x99
   1112 C9                 6136 	.db #0xC9
   1113 93                 6137 	.db #0x93
   1114 B8                 6138 	.db #0xB8
   1115 61                 6139 	.db #0x61
   1116 61                 6140 	.db #0x61
   1117 9F                 6141 	.db #0x9F
   1118 67                 6142 	.db #0x67
   1119 88                 6143 	.db #0x88
   111A 74                 6144 	.db #0x74
   111B BF                 6145 	.db #0xBF
   111C A1                 6146 	.db #0xA1
   111D 79                 6147 	.db #0x79
   111E FF                 6148 	.db #0xFF
   111F 69                 6149 	.db #0x69
   1120 97                 6150 	.db #0x97
   1121 CF                 6151 	.db #0xCF
   1122 F9                 6152 	.db #0xF9
   1123 28                 6153 	.db #0x28
   1124 34                 6154 	.db #0x34
   1125 FA                 6155 	.db #0xFA
   1126 60                 6156 	.db #0x60
   1127 F6                 6157 	.db #0xF6
   1128 D6                 6158 	.db #0xD6
   1129 D1                 6159 	.db #0xD1
   112A B5                 6160 	.db #0xB5
   112B 1D                 6161 	.db #0x1D
   112C 4E                 6162 	.db #0x4E
   112D E1                 6163 	.db #0xE1
   112E 21                 6164 	.db #0x21
   112F 8A                 6165 	.db #0x8A
   1130 F2                 6166 	.db #0xF2
   1131 06                 6167 	.db #0x06
   1132 48                 6168 	.db #0x48
   1133 DF                 6169 	.db #0xDF
   1134 5C                 6170 	.db #0x5C
   1135 C9                 6171 	.db #0xC9
   1136 E9                 6172 	.db #0xE9
   1137 FE                 6173 	.db #0xFE
   1138 09                 6174 	.db #0x09
   1139 8A                 6175 	.db #0x8A
   113A 44                 6176 	.db #0x44
   113B 13                 6177 	.db #0x13
   113C ED                 6178 	.db #0xED
   113D A6                 6179 	.db #0xA6
   113E BC                 6180 	.db #0xBC
   113F 77                 6181 	.db #0x77
   1140 60                 6182 	.db #0x60
   1141 4E                 6183 	.db #0x4E
   1142 58                 6184 	.db #0x58
   1143 A2                 6185 	.db #0xA2
   1144 2D                 6186 	.db #0x2D
   1145 73                 6187 	.db #0x73
   1146 66                 6188 	.db #0x66
   1147 6C                 6189 	.db #0x6C
   1148 3C                 6190 	.db #0x3C
   1149 DC                 6191 	.db #0xDC
   114A 10                 6192 	.db #0x10
   114B E8                 6193 	.db #0xE8
   114C D9                 6194 	.db #0xD9
   114D A7                 6195 	.db #0xA7
   114E 9B                 6196 	.db #0x9B
   114F CD                 6197 	.db #0xCD
   1150 BE                 6198 	.db #0xBE
   1151 9C                 6199 	.db #0x9C
   1152 C9                 6200 	.db #0xC9
   1153 25                 6201 	.db #0x25
   1154 A4                 6202 	.db #0xA4
   1155 8D                 6203 	.db #0x8D
   1156 51                 6204 	.db #0x51
   1157 62                 6205 	.db #0x62
   1158 76                 6206 	.db #0x76
   1159 B9                 6207 	.db #0xB9
   115A 93                 6208 	.db #0x93
   115B 62                 6209 	.db #0x62
   115C 26                 6210 	.db #0x26
   115D 29                 6211 	.db #0x29
   115E 0B                 6212 	.db #0x0B
   115F 60                 6213 	.db #0x60
   1160 F9                 6214 	.db #0xF9
   1161 FD                 6215 	.db #0xFD
   1162 38                 6216 	.db #0x38
   1163 88                 6217 	.db #0x88
   1164 08                 6218 	.db #0x08
   1165 79                 6219 	.db #0x79
   1166 06                 6220 	.db #0x06
   1167 DC                 6221 	.db #0xDC
   1168 28                 6222 	.db #0x28
   1169 16                 6223 	.db #0x16
   116A EB                 6224 	.db #0xEB
   116B 38                 6225 	.db #0x38
   116C 8E                 6226 	.db #0x8E
   116D 43                 6227 	.db #0x43
   116E F0                 6228 	.db #0xF0
   116F FE                 6229 	.db #0xFE
   1170 CE                 6230 	.db #0xCE
   1171 A0                 6231 	.db #0xA0
   1172 EE                 6232 	.db #0xEE
   1173 28                 6233 	.db #0x28
   1174 23                 6234 	.db #0x23
   1175 83                 6235 	.db #0x83
   1176 AB                 6236 	.db #0xAB
   1177 F4                 6237 	.db #0xF4
   1178 C2                 6238 	.db #0xC2
   1179 73                 6239 	.db #0x73
   117A F3                 6240 	.db #0xF3
   117B 32                 6241 	.db #0x32
   117C FA                 6242 	.db #0xFA
   117D 34                 6243 	.db #0x34
   117E 0E                 6244 	.db #0x0E
   117F 6B                 6245 	.db #0x6B
   1180 06                 6246 	.db #0x06
   1181 60                 6247 	.db #0x60
   1182 EE                 6248 	.db #0xEE
   1183 3A                 6249 	.db #0x3A
   1184 21                 6250 	.db #0x21
   1185 76                 6251 	.db #0x76
   1186 1A                 6252 	.db #0x1A
   1187 19                 6253 	.db #0x19
   1188 A5                 6254 	.db #0xA5
   1189 D5                 6255 	.db #0xD5
   118A CD                 6256 	.db #0xCD
   118B F7                 6257 	.db #0xF7
   118C 4F                 6258 	.db #0x4F
   118D 48                 6259 	.db #0x48
   118E 2E                 6260 	.db #0x2E
   118F FF                 6261 	.db #0xFF
   1190 94                 6262 	.db #0x94
   1191 A1                 6263 	.db #0xA1
   1192 F5                 6264 	.db #0xF5
   1193 C8                 6265 	.db #0xC8
   1194 95                 6266 	.db #0x95
   1195 CA                 6267 	.db #0xCA
   1196 3D                 6268 	.db #0x3D
   1197 84                 6269 	.db #0x84
   1198 48                 6270 	.db #0x48
   1199 33                 6271 	.db #0x33
   119A 99                 6272 	.db #0x99
   119B 24                 6273 	.db #0x24
   119C F5                 6274 	.db #0xF5
   119D 4B                 6275 	.db #0x4B
   119E 3E                 6276 	.db #0x3E
   119F B4                 6277 	.db #0xB4
   11A0 67                 6278 	.db #0x67
   11A1 2F                 6279 	.db #0x2F
   11A2 57                 6280 	.db #0x57
   11A3 DB                 6281 	.db #0xDB
   11A4 08                 6282 	.db #0x08
   11A5 8B                 6283 	.db #0x8B
   11A6 25                 6284 	.db #0x25
   11A7 B7                 6285 	.db #0xB7
   11A8 C4                 6286 	.db #0xC4
   11A9 B6                 6287 	.db #0xB6
   11AA 05                 6288 	.db #0x05
   11AB 34                 6289 	.db #0x34
   11AC C0                 6290 	.db #0xC0
   11AD 30                 6291 	.db #0x30
   11AE EE                 6292 	.db #0xEE
   11AF 00                 6293 	.db #0x00
   11B0 CA                 6294 	.db #0xCA
   11B1 4B                 6295 	.db #0x4B
   11B2 86                 6296 	.db #0x86
   11B3 E3                 6297 	.db #0xE3
   11B4 2C                 6298 	.db #0x2C
   11B5 15                 6299 	.db #0x15
   11B6 87                 6300 	.db #0x87
   11B7 13                 6301 	.db #0x13
   11B8 8C                 6302 	.db #0x8C
   11B9 F9                 6303 	.db #0xF9
   11BA F2                 6304 	.db #0xF2
   11BB CF                 6305 	.db #0xCF
   11BC 8F                 6306 	.db #0x8F
   11BD 10                 6307 	.db #0x10
   11BE 87                 6308 	.db #0x87
   11BF 32                 6309 	.db #0x32
   11C0 87                 6310 	.db #0x87
   11C1 CD                 6311 	.db #0xCD
   11C2 0F                 6312 	.db #0x0F
   11C3 BD                 6313 	.db #0xBD
   11C4 77                 6314 	.db #0x77
   11C5 31                 6315 	.db #0x31
   11C6 0F                 6316 	.db #0x0F
   11C7 09                 6317 	.db #0x09
   11C8 1E                 6318 	.db #0x1E
   11C9 4D                 6319 	.db #0x4D
   11CA 8B                 6320 	.db #0x8B
   11CB 40                 6321 	.db #0x40
   11CC C6                 6322 	.db #0xC6
   11CD 09                 6323 	.db #0x09
   11CE 99                 6324 	.db #0x99
   11CF B2                 6325 	.db #0xB2
   11D0 9A                 6326 	.db #0x9A
   11D1 0B                 6327 	.db #0x0B
   11D2 55                 6328 	.db #0x55
   11D3 1D                 6329 	.db #0x1D
   11D4 6F                 6330 	.db #0x6F
   11D5 BE                 6331 	.db #0xBE
   11D6 BB                 6332 	.db #0xBB
   11D7 01                 6333 	.db #0x01
   11D8 35                 6334 	.db #0x35
   11D9 A7                 6335 	.db #0xA7
   11DA 75                 6336 	.db #0x75
   11DB 10                 6337 	.db #0x10
   11DC D9                 6338 	.db #0xD9
   11DD 4A                 6339 	.db #0x4A
   11DE DA                 6340 	.db #0xDA
   11DF AD                 6341 	.db #0xAD
   11E0 EC                 6342 	.db #0xEC
   11E1 94                 6343 	.db #0x94
   11E2 AC                 6344 	.db #0xAC
   11E3 17                 6345 	.db #0x17
   11E4 A3                 6346 	.db #0xA3
   11E5 78                 6347 	.db #0x78
   11E6 19                 6348 	.db #0x19
   11E7 86                 6349 	.db #0x86
   11E8 95                 6350 	.db #0x95
   11E9 F8                 6351 	.db #0xF8
   11EA 84                 6352 	.db #0x84
   11EB 74                 6353 	.db #0x74
   11EC A9                 6354 	.db #0xA9
   11ED 24                 6355 	.db #0x24
   11EE F1                 6356 	.db #0xF1
   11EF 6C                 6357 	.db #0x6C
   11F0 BE                 6358 	.db #0xBE
   11F1 12                 6359 	.db #0x12
   11F2 CB                 6360 	.db #0xCB
   11F3 45                 6361 	.db #0x45
   11F4 DE                 6362 	.db #0xDE
   11F5 2B                 6363 	.db #0x2B
   11F6 B5                 6364 	.db #0xB5
   11F7 EF                 6365 	.db #0xEF
   11F8 A7                 6366 	.db #0xA7
   11F9 99                 6367 	.db #0x99
   11FA 1E                 6368 	.db #0x1E
   11FB 1E                 6369 	.db #0x1E
   11FC 0E                 6370 	.db #0x0E
   11FD 57                 6371 	.db #0x57
   11FE 81                 6372 	.db #0x81
   11FF 02                 6373 	.db #0x02
   1200 CD                 6374 	.db #0xCD
   1201 CF                 6375 	.db #0xCF
   1202 19                 6376 	.db #0x19
   1203 54                 6377 	.db #0x54
   1204 9F                 6378 	.db #0x9F
   1205 68                 6379 	.db #0x68
   1206 D1                 6380 	.db #0xD1
   1207 0C                 6381 	.db #0x0C
   1208 BF                 6382 	.db #0xBF
   1209 48                 6383 	.db #0x48
   120A 60                 6384 	.db #0x60
   120B EE                 6385 	.db #0xEE
   120C D5                 6386 	.db #0xD5
   120D A9                 6387 	.db #0xA9
   120E 74                 6388 	.db #0x74
   120F 03                 6389 	.db #0x03
   1210 6D                 6390 	.db #0x6D
   1211 D0                 6391 	.db #0xD0
   1212 72                 6392 	.db #0x72
   1213 47                 6393 	.db #0x47
   1214 09                 6394 	.db #0x09
   1215 96                 6395 	.db #0x96
   1216 A0                 6396 	.db #0xA0
   1217 43                 6397 	.db #0x43
   1218 FE                 6398 	.db #0xFE
   1219 7B                 6399 	.db #0x7B
   121A 09                 6400 	.db #0x09
   121B 67                 6401 	.db #0x67
   121C C3                 6402 	.db #0xC3
   121D 58                 6403 	.db #0x58
   121E A9                 6404 	.db #0xA9
   121F 56                 6405 	.db #0x56
   1220 F2                 6406 	.db #0xF2
   1221 BB                 6407 	.db #0xBB
   1222 43                 6408 	.db #0x43
   1223 B6                 6409 	.db #0xB6
   1224 33                 6410 	.db #0x33
   1225 B6                 6411 	.db #0xB6
   1226 38                 6412 	.db #0x38
   1227 E6                 6413 	.db #0xE6
   1228 F0                 6414 	.db #0xF0
   1229 2E                 6415 	.db #0x2E
   122A 45                 6416 	.db #0x45
   122B 31                 6417 	.db #0x31
   122C 38                 6418 	.db #0x38
   122D 19                 6419 	.db #0x19
   122E 55                 6420 	.db #0x55
   122F 95                 6421 	.db #0x95
   1230 CA                 6422 	.db #0xCA
   1231 CC                 6423 	.db #0xCC
   1232 7E                 6424 	.db #0x7E
   1233 60                 6425 	.db #0x60
   1234 A5                 6426 	.db #0xA5
   1235 DF                 6427 	.db #0xDF
   1236 7B                 6428 	.db #0x7B
   1237 74                 6429 	.db #0x74
   1238 12                 6430 	.db #0x12
   1239 AF                 6431 	.db #0xAF
   123A 81                 6432 	.db #0x81
   123B A0                 6433 	.db #0xA0
   123C C5                 6434 	.db #0xC5
   123D 94                 6435 	.db #0x94
   123E 4B                 6436 	.db #0x4B
   123F 79                 6437 	.db #0x79
   1240 1F                 6438 	.db #0x1F
   1241 06                 6439 	.db #0x06
   1242 84                 6440 	.db #0x84
   1243 6B                 6441 	.db #0x6B
   1244 2E                 6442 	.db #0x2E
   1245 99                 6443 	.db #0x99
   1246 C8                 6444 	.db #0xC8
   1247 15                 6445 	.db #0x15
   1248 4C                 6446 	.db #0x4C
   1249 01                 6447 	.db #0x01
   124A 45                 6448 	.db #0x45
   124B 8D                 6449 	.db #0x8D
   124C FC                 6450 	.db #0xFC
   124D F6                 6451 	.db #0xF6
   124E 6F                 6452 	.db #0x6F
   124F D6                 6453 	.db #0xD6
   1250 D3                 6454 	.db #0xD3
   1251 19                 6455 	.db #0x19
   1252 B2                 6456 	.db #0xB2
   1253 75                 6457 	.db #0x75
   1254 1B                 6458 	.db #0x1B
   1255 AC                 6459 	.db #0xAC
   1256 C6                 6460 	.db #0xC6
   1257 0E                 6461 	.db #0x0E
   1258 EC                 6462 	.db #0xEC
   1259 A9                 6463 	.db #0xA9
   125A 66                 6464 	.db #0x66
   125B 85                 6465 	.db #0x85
   125C C0                 6466 	.db #0xC0
   125D 4E                 6467 	.db #0x4E
   125E DA                 6468 	.db #0xDA
   125F CC                 6469 	.db #0xCC
   1260 1E                 6470 	.db #0x1E
   1261 9A                 6471 	.db #0x9A
   1262 06                 6472 	.db #0x06
   1263 28                 6473 	.db #0x28
   1264 57                 6474 	.db #0x57
   1265 BE                 6475 	.db #0xBE
   1266 A7                 6476 	.db #0xA7
   1267 C5                 6477 	.db #0xC5
   1268 6C                 6478 	.db #0x6C
   1269 03                 6479 	.db #0x03
   126A FE                 6480 	.db #0xFE
   126B C4                 6481 	.db #0xC4
   126C 55                 6482 	.db #0x55
   126D 2E                 6483 	.db #0x2E
   126E C5                 6484 	.db #0xC5
   126F 03                 6485 	.db #0x03
   1270 B3                 6486 	.db #0xB3
   1271 91                 6487 	.db #0x91
   1272 06                 6488 	.db #0x06
   1273 63                 6489 	.db #0x63
   1274 F3                 6490 	.db #0xF3
   1275 EE                 6491 	.db #0xEE
   1276 6E                 6492 	.db #0x6E
   1277 EB                 6493 	.db #0xEB
   1278 28                 6494 	.db #0x28
   1279 8A                 6495 	.db #0x8A
   127A 8F                 6496 	.db #0x8F
   127B 73                 6497 	.db #0x73
   127C 75                 6498 	.db #0x75
   127D 44                 6499 	.db #0x44
   127E 58                 6500 	.db #0x58
   127F 82                 6501 	.db #0x82
   1280 CA                 6502 	.db #0xCA
   1281 AD                 6503 	.db #0xAD
   1282 ED                 6504 	.db #0xED
   1283 C7                 6505 	.db #0xC7
   1284 AF                 6506 	.db #0xAF
   1285 79                 6507 	.db #0x79
   1286 A2                 6508 	.db #0xA2
   1287 DF                 6509 	.db #0xDF
   1288 3C                 6510 	.db #0x3C
   1289 7A                 6511 	.db #0x7A
   128A 53                 6512 	.db #0x53
   128B 9C                 6513 	.db #0x9C
   128C C7                 6514 	.db #0xC7
   128D 3B                 6515 	.db #0x3B
   128E CD                 6516 	.db #0xCD
   128F 0F                 6517 	.db #0x0F
   1290 4F                 6518 	.db #0x4F
   1291 F1                 6519 	.db #0xF1
   1292 43                 6520 	.db #0x43
   1293 B0                 6521 	.db #0xB0
   1294 C4                 6522 	.db #0xC4
   1295 74                 6523 	.db #0x74
   1296 C9                 6524 	.db #0xC9
   1297 41                 6525 	.db #0x41
   1298 22                 6526 	.db #0x22
   1299 A3                 6527 	.db #0xA3
   129A 7E                 6528 	.db #0x7E
   129B BA                 6529 	.db #0xBA
   129C EF                 6530 	.db #0xEF
   129D D1                 6531 	.db #0xD1
   129E 12                 6532 	.db #0x12
   129F 27                 6533 	.db #0x27
   12A0 CC                 6534 	.db #0xCC
   12A1 6A                 6535 	.db #0x6A
   12A2 75                 6536 	.db #0x75
   12A3 26                 6537 	.db #0x26
   12A4 D5                 6538 	.db #0xD5
   12A5 6A                 6539 	.db #0x6A
   12A6 10                 6540 	.db #0x10
   12A7 7F                 6541 	.db #0x7F
   12A8 05                 6542 	.db #0x05
   12A9 88                 6543 	.db #0x88
   12AA F9                 6544 	.db #0xF9
   12AB 48                 6545 	.db #0x48
   12AC 60                 6546 	.db #0x60
   12AD 01                 6547 	.db #0x01
   12AE B1                 6548 	.db #0xB1
   12AF 33                 6549 	.db #0x33
   12B0 19                 6550 	.db #0x19
   12B1 F5                 6551 	.db #0xF5
   12B2 AC                 6552 	.db #0xAC
   12B3 E0                 6553 	.db #0xE0
   12B4 0B                 6554 	.db #0x0B
   12B5 5E                 6555 	.db #0x5E
   12B6 FF                 6556 	.db #0xFF
   12B7 D3                 6557 	.db #0xD3
   12B8 20                 6558 	.db #0x20
   12B9 BD                 6559 	.db #0xBD
   12BA 19                 6560 	.db #0x19
   12BB 7F                 6561 	.db #0x7F
   12BC D3                 6562 	.db #0xD3
   12BD CD                 6563 	.db #0xCD
   12BE 4F                 6564 	.db #0x4F
   12BF F9                 6565 	.db #0xF9
   12C0 78                 6566 	.db #0x78
   12C1 A0                 6567 	.db #0xA0
   12C2 CE                 6568 	.db #0xCE
   12C3 A5                 6569 	.db #0xA5
   12C4 1C                 6570 	.db #0x1C
   12C5 90                 6571 	.db #0x90
   12C6 25                 6572 	.db #0x25
   12C7 9A                 6573 	.db #0x9A
   12C8 43                 6574 	.db #0x43
   12C9 FD                 6575 	.db #0xFD
   12CA 08                 6576 	.db #0x08
   12CB 74                 6577 	.db #0x74
   12CC 58                 6578 	.db #0x58
   12CD 5D                 6579 	.db #0x5D
   12CE BD                 6580 	.db #0xBD
   12CF A6                 6581 	.db #0xA6
   12D0 AE                 6582 	.db #0xAE
   12D1 0A                 6583 	.db #0x0A
   12D2 14                 6584 	.db #0x14
   12D3 4E                 6585 	.db #0x4E
   12D4 76                 6586 	.db #0x76
   12D5 CF                 6587 	.db #0xCF
   12D6 72                 6588 	.db #0x72
   12D7 3F                 6589 	.db #0x3F
   12D8 01                 6590 	.db #0x01
   12D9 A8                 6591 	.db #0xA8
   12DA 19                 6592 	.db #0x19
   12DB 61                 6593 	.db #0x61
   12DC 03                 6594 	.db #0x03
   12DD 0C                 6595 	.db #0x0C
   12DE 14                 6596 	.db #0x14
   12DF 32                 6597 	.db #0x32
   12E0 92                 6598 	.db #0x92
   12E1 90                 6599 	.db #0x90
   12E2 45                 6600 	.db #0x45
   12E3 D9                 6601 	.db #0xD9
   12E4 EE                 6602 	.db #0xEE
   12E5 7F                 6603 	.db #0x7F
   12E6 C0                 6604 	.db #0xC0
   12E7 B7                 6605 	.db #0xB7
   12E8 EE                 6606 	.db #0xEE
   12E9 7F                 6607 	.db #0x7F
   12EA 9B                 6608 	.db #0x9B
   12EB 7A                 6609 	.db #0x7A
   12EC EF                 6610 	.db #0xEF
   12ED C1                 6611 	.db #0xC1
   12EE 06                 6612 	.db #0x06
   12EF 72                 6613 	.db #0x72
   12F0 4A                 6614 	.db #0x4A
   12F1 EB                 6615 	.db #0xEB
   12F2 36                 6616 	.db #0x36
   12F3 30                 6617 	.db #0x30
   12F4 0B                 6618 	.db #0x0B
   12F5 8D                 6619 	.db #0x8D
   12F6 6C                 6620 	.db #0x6C
   12F7 D4                 6621 	.db #0xD4
   12F8 7D                 6622 	.db #0x7D
   12F9 4C                 6623 	.db #0x4C
   12FA F0                 6624 	.db #0xF0
   12FB 9E                 6625 	.db #0x9E
   12FC 68                 6626 	.db #0x68
   12FD 23                 6627 	.db #0x23
   12FE 9A                 6628 	.db #0x9A
   12FF E6                 6629 	.db #0xE6
   1300 58                 6630 	.db #0x58
   1301 18                 6631 	.db #0x18
   1302 3E                 6632 	.db #0x3E
   1303 45                 6633 	.db #0x45
   1304 44                 6634 	.db #0x44
   1305 C7                 6635 	.db #0xC7
   1306 65                 6636 	.db #0x65
   1307 CF                 6637 	.db #0xCF
   1308 E8                 6638 	.db #0xE8
   1309 4B                 6639 	.db #0x4B
   130A A8                 6640 	.db #0xA8
   130B B6                 6641 	.db #0xB6
   130C 3D                 6642 	.db #0x3D
   130D 90                 6643 	.db #0x90
   130E 21                 6644 	.db #0x21
   130F A7                 6645 	.db #0xA7
   1310 70                 6646 	.db #0x70
   1311 41                 6647 	.db #0x41
   1312 98                 6648 	.db #0x98
   1313 EC                 6649 	.db #0xEC
   1314 33                 6650 	.db #0x33
   1315 5E                 6651 	.db #0x5E
   1316 8E                 6652 	.db #0x8E
   1317 87                 6653 	.db #0x87
   1318 B2                 6654 	.db #0xB2
   1319 04                 6655 	.db #0x04
   131A 28                 6656 	.db #0x28
   131B 54                 6657 	.db #0x54
   131C 9C                 6658 	.db #0x9C
   131D B8                 6659 	.db #0xB8
   131E 61                 6660 	.db #0x61
   131F 44                 6661 	.db #0x44
   1320 CA                 6662 	.db #0xCA
   1321 84                 6663 	.db #0x84
   1322 9C                 6664 	.db #0x9C
   1323 D4                 6665 	.db #0xD4
   1324 A0                 6666 	.db #0xA0
   1325 CC                 6667 	.db #0xCC
   1326 E5                 6668 	.db #0xE5
   1327 DD                 6669 	.db #0xDD
   1328 91                 6670 	.db #0x91
   1329 0B                 6671 	.db #0x0B
   132A 01                 6672 	.db #0x01
   132B 7A                 6673 	.db #0x7A
   132C 24                 6674 	.db #0x24
   132D EB                 6675 	.db #0xEB
   132E 92                 6676 	.db #0x92
   132F 8B                 6677 	.db #0x8B
   1330 19                 6678 	.db #0x19
   1331 C1                 6679 	.db #0xC1
   1332 57                 6680 	.db #0x57
   1333 F8                 6681 	.db #0xF8
   1334 C3                 6682 	.db #0xC3
   1335 48                 6683 	.db #0x48
   1336 CB                 6684 	.db #0xCB
   1337 81                 6685 	.db #0x81
   1338 9C                 6686 	.db #0x9C
   1339 57                 6687 	.db #0x57
   133A BC                 6688 	.db #0xBC
   133B 57                 6689 	.db #0x57
   133C A6                 6690 	.db #0xA6
   133D 32                 6691 	.db #0x32
   133E 07                 6692 	.db #0x07
   133F 22                 6693 	.db #0x22
   1340 3A                 6694 	.db #0x3A
   1341 E6                 6695 	.db #0xE6
   1342 00                 6696 	.db #0x00
   1343 0E                 6697 	.db #0x0E
   1344 31                 6698 	.db #0x31
   1345 1B                 6699 	.db #0x1B
   1346 C1                 6700 	.db #0xC1
   1347 82                 6701 	.db #0x82
   1348 1A                 6702 	.db #0x1A
   1349 F3                 6703 	.db #0xF3
   134A F2                 6704 	.db #0xF2
   134B 20                 6705 	.db #0x20
   134C A9                 6706 	.db #0xA9
   134D 53                 6707 	.db #0x53
   134E F1                 6708 	.db #0xF1
   134F 6A                 6709 	.db #0x6A
   1350 3C                 6710 	.db #0x3C
   1351 E5                 6711 	.db #0xE5
   1352 14                 6712 	.db #0x14
   1353 5C                 6713 	.db #0x5C
   1354 09                 6714 	.db #0x09
   1355 D4                 6715 	.db #0xD4
   1356 9F                 6716 	.db #0x9F
   1357 30                 6717 	.db #0x30
   1358 E3                 6718 	.db #0xE3
   1359 50                 6719 	.db #0x50
   135A CB                 6720 	.db #0xCB
   135B 07                 6721 	.db #0x07
   135C 2E                 6722 	.db #0x2E
   135D 38                 6723 	.db #0x38
   135E 5E                 6724 	.db #0x5E
   135F 0E                 6725 	.db #0x0E
   1360 CB                 6726 	.db #0xCB
   1361 09                 6727 	.db #0x09
   1362 24                 6728 	.db #0x24
   1363 38                 6729 	.db #0x38
   1364 5B                 6730 	.db #0x5B
   1365 9F                 6731 	.db #0x9F
   1366 4D                 6732 	.db #0x4D
   1367 61                 6733 	.db #0x61
   1368 9B                 6734 	.db #0x9B
   1369 A1                 6735 	.db #0xA1
   136A F8                 6736 	.db #0xF8
   136B 12                 6737 	.db #0x12
   136C 3D                 6738 	.db #0x3D
   136D A4                 6739 	.db #0xA4
   136E 9D                 6740 	.db #0x9D
   136F 65                 6741 	.db #0x65
   1370 A8                 6742 	.db #0xA8
   1371 FB                 6743 	.db #0xFB
   1372 66                 6744 	.db #0x66
   1373 42                 6745 	.db #0x42
   1374 88                 6746 	.db #0x88
   1375 70                 6747 	.db #0x70
   1376 EF                 6748 	.db #0xEF
   1377 4E                 6749 	.db #0x4E
   1378 8D                 6750 	.db #0x8D
   1379 69                 6751 	.db #0x69
   137A BD                 6752 	.db #0xBD
   137B 09                 6753 	.db #0x09
   137C 8F                 6754 	.db #0x8F
   137D 22                 6755 	.db #0x22
   137E 51                 6756 	.db #0x51
   137F 6C                 6757 	.db #0x6C
   1380 C1                 6758 	.db #0xC1
   1381 A7                 6759 	.db #0xA7
   1382 B1                 6760 	.db #0xB1
   1383 68                 6761 	.db #0x68
   1384 B9                 6762 	.db #0xB9
   1385 F1                 6763 	.db #0xF1
   1386 FF                 6764 	.db #0xFF
   1387 8A                 6765 	.db #0x8A
   1388 B3                 6766 	.db #0xB3
   1389 CE                 6767 	.db #0xCE
   138A 30                 6768 	.db #0x30
   138B 01                 6769 	.db #0x01
   138C 0E                 6770 	.db #0x0E
   138D 94                 6771 	.db #0x94
   138E 27                 6772 	.db #0x27
   138F 9B                 6773 	.db #0x9B
   1390 EF                 6774 	.db #0xEF
   1391 88                 6775 	.db #0x88
   1392 B2                 6776 	.db #0xB2
   1393 4C                 6777 	.db #0x4C
   1394 10                 6778 	.db #0x10
   1395 7A                 6779 	.db #0x7A
   1396 95                 6780 	.db #0x95
   1397 A0                 6781 	.db #0xA0
   1398 DE                 6782 	.db #0xDE
   1399 30                 6783 	.db #0x30
   139A AA                 6784 	.db #0xAA
   139B BA                 6785 	.db #0xBA
   139C 74                 6786 	.db #0x74
   139D 60                 6787 	.db #0x60
   139E 38                 6788 	.db #0x38
   139F 54                 6789 	.db #0x54
   13A0 36                 6790 	.db #0x36
   13A1 C0                 6791 	.db #0xC0
   13A2 E3                 6792 	.db #0xE3
   13A3 76                 6793 	.db #0x76
   13A4 1E                 6794 	.db #0x1E
   13A5 7E                 6795 	.db #0x7E
   13A6 A9                 6796 	.db #0xA9
   13A7 63                 6797 	.db #0x63
   13A8 E4                 6798 	.db #0xE4
   13A9 C0                 6799 	.db #0xC0
   13AA 12                 6800 	.db #0x12
   13AB 0F                 6801 	.db #0x0F
   13AC D9                 6802 	.db #0xD9
   13AD 63                 6803 	.db #0x63
   13AE BD                 6804 	.db #0xBD
   13AF EA                 6805 	.db #0xEA
   13B0 13                 6806 	.db #0x13
   13B1 BF                 6807 	.db #0xBF
   13B2 90                 6808 	.db #0x90
   13B3 CB                 6809 	.db #0xCB
   13B4 CA                 6810 	.db #0xCA
   13B5 EA                 6811 	.db #0xEA
   13B6 C6                 6812 	.db #0xC6
   13B7 19                 6813 	.db #0x19
   13B8 F4                 6814 	.db #0xF4
   13B9 E6                 6815 	.db #0xE6
   13BA CF                 6816 	.db #0xCF
   13BB EB                 6817 	.db #0xEB
   13BC D9                 6818 	.db #0xD9
   13BD BF                 6819 	.db #0xBF
   13BE BF                 6820 	.db #0xBF
   13BF 9E                 6821 	.db #0x9E
   13C0 19                 6822 	.db #0x19
   13C1 0F                 6823 	.db #0x0F
   13C2 CE                 6824 	.db #0xCE
   13C3 8C                 6825 	.db #0x8C
   13C4 41                 6826 	.db #0x41
   13C5 32                 6827 	.db #0x32
   13C6 BE                 6828 	.db #0xBE
   13C7 AD                 6829 	.db #0xAD
   13C8 D4                 6830 	.db #0xD4
   13C9 B3                 6831 	.db #0xB3
   13CA 7F                 6832 	.db #0x7F
   13CB A5                 6833 	.db #0xA5
   13CC AA                 6834 	.db #0xAA
   13CD 8F                 6835 	.db #0x8F
   13CE 86                 6836 	.db #0x86
   13CF 4F                 6837 	.db #0x4F
   13D0 C4                 6838 	.db #0xC4
   13D1 E5                 6839 	.db #0xE5
   13D2 D3                 6840 	.db #0xD3
   13D3 69                 6841 	.db #0x69
   13D4 7F                 6842 	.db #0x7F
   13D5 72                 6843 	.db #0x72
   13D6 16                 6844 	.db #0x16
   13D7 B4                 6845 	.db #0xB4
   13D8 6C                 6846 	.db #0x6C
   13D9 15                 6847 	.db #0x15
   13DA 72                 6848 	.db #0x72
   13DB 0B                 6849 	.db #0x0B
   13DC 98                 6850 	.db #0x98
   13DD 4C                 6851 	.db #0x4C
   13DE CE                 6852 	.db #0xCE
   13DF 1C                 6853 	.db #0x1C
   13E0 D4                 6854 	.db #0xD4
   13E1 05                 6855 	.db #0x05
   13E2 B6                 6856 	.db #0xB6
   13E3 51                 6857 	.db #0x51
   13E4 AC                 6858 	.db #0xAC
   13E5 FC                 6859 	.db #0xFC
   13E6 75                 6860 	.db #0x75
   13E7 9A                 6861 	.db #0x9A
   13E8 C7                 6862 	.db #0xC7
   13E9 70                 6863 	.db #0x70
   13EA 99                 6864 	.db #0x99
   13EB DD                 6865 	.db #0xDD
   13EC 0A                 6866 	.db #0x0A
   13ED 04                 6867 	.db #0x04
   13EE 9C                 6868 	.db #0x9C
   13EF 6C                 6869 	.db #0x6C
   13F0 60                 6870 	.db #0x60
   13F1 1D                 6871 	.db #0x1D
   13F2 B5                 6872 	.db #0xB5
   13F3 FF                 6873 	.db #0xFF
   13F4 BD                 6874 	.db #0xBD
   13F5 21                 6875 	.db #0x21
   13F6 DF                 6876 	.db #0xDF
   13F7 3E                 6877 	.db #0x3E
   13F8 D5                 6878 	.db #0xD5
   13F9 6E                 6879 	.db #0x6E
   13FA D3                 6880 	.db #0xD3
   13FB AE                 6881 	.db #0xAE
   13FC 24                 6882 	.db #0x24
   13FD BF                 6883 	.db #0xBF
   13FE EA                 6884 	.db #0xEA
   13FF 97                 6885 	.db #0x97
   1400 D5                 6886 	.db #0xD5
   1401 16                 6887 	.db #0x16
   1402 19                 6888 	.db #0x19
   1403 4D                 6889 	.db #0x4D
   1404 05                 6890 	.db #0x05
   1405 42                 6891 	.db #0x42
   1406 85                 6892 	.db #0x85
   1407 40                 6893 	.db #0x40
   1408 EF                 6894 	.db #0xEF
   1409 F2                 6895 	.db #0xF2
   140A 18                 6896 	.db #0x18
   140B 1D                 6897 	.db #0x1D
   140C 56                 6898 	.db #0x56
   140D 10                 6899 	.db #0x10
   140E 4D                 6900 	.db #0x4D
   140F 5C                 6901 	.db #0x5C
   1410 48                 6902 	.db #0x48
   1411 14                 6903 	.db #0x14
   1412 2D                 6904 	.db #0x2D
   1413 1D                 6905 	.db #0x1D
   1414 77                 6906 	.db #0x77
   1415 21                 6907 	.db #0x21
   1416 1E                 6908 	.db #0x1E
   1417 99                 6909 	.db #0x99
   1418 96                 6910 	.db #0x96
   1419 0E                 6911 	.db #0x0E
   141A BE                 6912 	.db #0xBE
   141B 9B                 6913 	.db #0x9B
   141C 34                 6914 	.db #0x34
   141D 7C                 6915 	.db #0x7C
   141E 72                 6916 	.db #0x72
   141F C2                 6917 	.db #0xC2
   1420 BC                 6918 	.db #0xBC
   1421 96                 6919 	.db #0x96
   1422 CA                 6920 	.db #0xCA
   1423 D1                 6921 	.db #0xD1
   1424 FD                 6922 	.db #0xFD
   1425 16                 6923 	.db #0x16
   1426 58                 6924 	.db #0x58
   1427 2F                 6925 	.db #0x2F
   1428 57                 6926 	.db #0x57
   1429 3A                 6927 	.db #0x3A
   142A EC                 6928 	.db #0xEC
   142B 39                 6929 	.db #0x39
   142C F7                 6930 	.db #0xF7
   142D A6                 6931 	.db #0xA6
   142E 03                 6932 	.db #0x03
   142F 2E                 6933 	.db #0x2E
   1430 1C                 6934 	.db #0x1C
   1431 5B                 6935 	.db #0x5B
   1432 80                 6936 	.db #0x80
   1433 91                 6937 	.db #0x91
   1434 A6                 6938 	.db #0xA6
   1435 E6                 6939 	.db #0xE6
   1436 0F                 6940 	.db #0x0F
   1437 5E                 6941 	.db #0x5E
   1438 42                 6942 	.db #0x42
   1439 E7                 6943 	.db #0xE7
   143A 95                 6944 	.db #0x95
   143B 7A                 6945 	.db #0x7A
   143C A8                 6946 	.db #0xA8
   143D 3E                 6947 	.db #0x3E
   143E 20                 6948 	.db #0x20
   143F D3                 6949 	.db #0xD3
   1440 EB                 6950 	.db #0xEB
   1441 32                 6951 	.db #0x32
   1442 4B                 6952 	.db #0x4B
   1443 93                 6953 	.db #0x93
   1444 F5                 6954 	.db #0xF5
   1445 D7                 6955 	.db #0xD7
   1446 22                 6956 	.db #0x22
   1447 C7                 6957 	.db #0xC7
   1448 0E                 6958 	.db #0x0E
   1449 15                 6959 	.db #0x15
   144A D3                 6960 	.db #0xD3
   144B 55                 6961 	.db #0x55
   144C 8A                 6962 	.db #0x8A
   144D F4                 6963 	.db #0xF4
   144E 51                 6964 	.db #0x51
   144F 7A                 6965 	.db #0x7A
   1450 D2                 6966 	.db #0xD2
   1451 B9                 6967 	.db #0xB9
   1452 42                 6968 	.db #0x42
   1453 6C                 6969 	.db #0x6C
   1454 58                 6970 	.db #0x58
   1455 4C                 6971 	.db #0x4C
   1456 A2                 6972 	.db #0xA2
   1457 7C                 6973 	.db #0x7C
   1458 B9                 6974 	.db #0xB9
   1459 87                 6975 	.db #0x87
   145A 7A                 6976 	.db #0x7A
   145B 40                 6977 	.db #0x40
   145C 88                 6978 	.db #0x88
   145D 02                 6979 	.db #0x02
   145E 4E                 6980 	.db #0x4E
   145F 0A                 6981 	.db #0x0A
   1460 97                 6982 	.db #0x97
   1461 03                 6983 	.db #0x03
   1462 09                 6984 	.db #0x09
   1463 33                 6985 	.db #0x33
   1464 A4                 6986 	.db #0xA4
   1465 88                 6987 	.db #0x88
   1466 93                 6988 	.db #0x93
   1467 9C                 6989 	.db #0x9C
   1468 82                 6990 	.db #0x82
   1469 E4                 6991 	.db #0xE4
   146A 2D                 6992 	.db #0x2D
   146B 72                 6993 	.db #0x72
   146C C3                 6994 	.db #0xC3
   146D EE                 6995 	.db #0xEE
   146E 74                 6996 	.db #0x74
   146F 96                 6997 	.db #0x96
   1470 7E                 6998 	.db #0x7E
   1471 6B                 6999 	.db #0x6B
   1472 9C                 7000 	.db #0x9C
   1473 93                 7001 	.db #0x93
   1474 35                 7002 	.db #0x35
   1475 CA                 7003 	.db #0xCA
   1476 98                 7004 	.db #0x98
   1477 50                 7005 	.db #0x50
   1478 96                 7006 	.db #0x96
   1479 97                 7007 	.db #0x97
   147A 8D                 7008 	.db #0x8D
   147B EF                 7009 	.db #0xEF
   147C DB                 7010 	.db #0xDB
   147D E5                 7011 	.db #0xE5
   147E 2D                 7012 	.db #0x2D
   147F D4                 7013 	.db #0xD4
   1480 B1                 7014 	.db #0xB1
   1481 7C                 7015 	.db #0x7C
   1482 FE                 7016 	.db #0xFE
   1483 30                 7017 	.db #0x30
   1484 F4                 7018 	.db #0xF4
   1485 1D                 7019 	.db #0x1D
   1486 E5                 7020 	.db #0xE5
   1487 48                 7021 	.db #0x48
   1488 EF                 7022 	.db #0xEF
   1489 27                 7023 	.db #0x27
   148A 6A                 7024 	.db #0x6A
   148B 1B                 7025 	.db #0x1B
   148C 5B                 7026 	.db #0x5B
   148D 08                 7027 	.db #0x08
   148E BA                 7028 	.db #0xBA
   148F 0F                 7029 	.db #0x0F
   1490 0F                 7030 	.db #0x0F
   1491 AB                 7031 	.db #0xAB
   1492 A5                 7032 	.db #0xA5
   1493 DA                 7033 	.db #0xDA
   1494 97                 7034 	.db #0x97
   1495 97                 7035 	.db #0x97
   1496 FB                 7036 	.db #0xFB
   1497 3A                 7037 	.db #0x3A
   1498 13                 7038 	.db #0x13
   1499 30                 7039 	.db #0x30
   149A F5                 7040 	.db #0xF5
   149B 2B                 7041 	.db #0x2B
   149C 9E                 7042 	.db #0x9E
   149D 74                 7043 	.db #0x74
   149E D0                 7044 	.db #0xD0
   149F 64                 7045 	.db #0x64
   14A0 A2                 7046 	.db #0xA2
   14A1 03                 7047 	.db #0x03
   14A2 93                 7048 	.db #0x93
   14A3 08                 7049 	.db #0x08
   14A4 24                 7050 	.db #0x24
   14A5 DB                 7051 	.db #0xDB
   14A6 8E                 7052 	.db #0x8E
   14A7 27                 7053 	.db #0x27
   14A8 D7                 7054 	.db #0xD7
   14A9 83                 7055 	.db #0x83
   14AA 9B                 7056 	.db #0x9B
   14AB 2B                 7057 	.db #0x2B
   14AC 9D                 7058 	.db #0x9D
   14AD E7                 7059 	.db #0xE7
   14AE EF                 7060 	.db #0xEF
   14AF F6                 7061 	.db #0xF6
   14B0 13                 7062 	.db #0x13
   14B1 23                 7063 	.db #0x23
   14B2 AD                 7064 	.db #0xAD
   14B3 74                 7065 	.db #0x74
   14B4 11                 7066 	.db #0x11
   14B5 4C                 7067 	.db #0x4C
   14B6 99                 7068 	.db #0x99
   14B7 45                 7069 	.db #0x45
   14B8 47                 7070 	.db #0x47
   14B9 B2                 7071 	.db #0xB2
   14BA E8                 7072 	.db #0xE8
   14BB A1                 7073 	.db #0xA1
   14BC 8C                 7074 	.db #0x8C
   14BD F9                 7075 	.db #0xF9
   14BE 9D                 7076 	.db #0x9D
   14BF 95                 7077 	.db #0x95
   14C0 AC                 7078 	.db #0xAC
   14C1 86                 7079 	.db #0x86
   14C2 FA                 7080 	.db #0xFA
   14C3 13                 7081 	.db #0x13
   14C4 EC                 7082 	.db #0xEC
   14C5 5B                 7083 	.db #0x5B
   14C6 BD                 7084 	.db #0xBD
   14C7 C1                 7085 	.db #0xC1
   14C8 64                 7086 	.db #0x64
   14C9 08                 7087 	.db #0x08
   14CA C2                 7088 	.db #0xC2
   14CB D7                 7089 	.db #0xD7
   14CC B8                 7090 	.db #0xB8
   14CD 62                 7091 	.db #0x62
   14CE B5                 7092 	.db #0xB5
   14CF A1                 7093 	.db #0xA1
   14D0 53                 7094 	.db #0x53
   14D1 6D                 7095 	.db #0x6D
   14D2 2E                 7096 	.db #0x2E
   14D3 3E                 7097 	.db #0x3E
   14D4 7E                 7098 	.db #0x7E
   14D5 D1                 7099 	.db #0xD1
   14D6 CF                 7100 	.db #0xCF
   14D7 9F                 7101 	.db #0x9F
   14D8 AD                 7102 	.db #0xAD
   14D9 CC                 7103 	.db #0xCC
   14DA 73                 7104 	.db #0x73
   14DB 6E                 7105 	.db #0x6E
   14DC E2                 7106 	.db #0xE2
   14DD B7                 7107 	.db #0xB7
   14DE 9D                 7108 	.db #0x9D
   14DF AD                 7109 	.db #0xAD
   14E0 51                 7110 	.db #0x51
   14E1 B6                 7111 	.db #0xB6
   14E2 40                 7112 	.db #0x40
   14E3 32                 7113 	.db #0x32
   14E4 59                 7114 	.db #0x59
   14E5 C4                 7115 	.db #0xC4
   14E6 11                 7116 	.db #0x11
   14E7 E7                 7117 	.db #0xE7
   14E8 2D                 7118 	.db #0x2D
   14E9 EF                 7119 	.db #0xEF
   14EA 49                 7120 	.db #0x49
   14EB 47                 7121 	.db #0x47
   14EC BD                 7122 	.db #0xBD
   14ED 7C                 7123 	.db #0x7C
   14EE 01                 7124 	.db #0x01
   14EF B6                 7125 	.db #0xB6
   14F0 ED                 7126 	.db #0xED
   14F1 CE                 7127 	.db #0xCE
   14F2 B7                 7128 	.db #0xB7
   14F3 BA                 7129 	.db #0xBA
   14F4 3E                 7130 	.db #0x3E
   14F5 74                 7131 	.db #0x74
   14F6 65                 7132 	.db #0x65
   14F7 77                 7133 	.db #0x77
   14F8 4A                 7134 	.db #0x4A
   14F9 DF                 7135 	.db #0xDF
   14FA D0                 7136 	.db #0xD0
   14FB 6E                 7137 	.db #0x6E
   14FC 22                 7138 	.db #0x22
   14FD 1B                 7139 	.db #0x1B
   14FE F7                 7140 	.db #0xF7
   14FF E8                 7141 	.db #0xE8
   1500 81                 7142 	.db #0x81
   1501 23                 7143 	.db #0x23
   1502 67                 7144 	.db #0x67
   1503 31                 7145 	.db #0x31
   1504 BD                 7146 	.db #0xBD
   1505 70                 7147 	.db #0x70
   1506 CE                 7148 	.db #0xCE
   1507 30                 7149 	.db #0x30
   1508 95                 7150 	.db #0x95
   1509 F7                 7151 	.db #0xF7
   150A 87                 7152 	.db #0x87
   150B 25                 7153 	.db #0x25
   150C 5B                 7154 	.db #0x5B
   150D 91                 7155 	.db #0x91
   150E D3                 7156 	.db #0xD3
   150F A8                 7157 	.db #0xA8
   1510 13                 7158 	.db #0x13
   1511 7C                 7159 	.db #0x7C
   1512 2B                 7160 	.db #0x2B
   1513 72                 7161 	.db #0x72
   1514 76                 7162 	.db #0x76
   1515 EA                 7163 	.db #0xEA
   1516 4D                 7164 	.db #0x4D
   1517 1C                 7165 	.db #0x1C
   1518 EB                 7166 	.db #0xEB
   1519 1D                 7167 	.db #0x1D
   151A E8                 7168 	.db #0xE8
   151B 9B                 7169 	.db #0x9B
   151C 2F                 7170 	.db #0x2F
   151D 72                 7171 	.db #0x72
   151E 55                 7172 	.db #0x55
   151F CC                 7173 	.db #0xCC
   1520 01                 7174 	.db #0x01
   1521 BA                 7175 	.db #0xBA
   1522 58                 7176 	.db #0x58
   1523 13                 7177 	.db #0x13
   1524 B4                 7178 	.db #0xB4
   1525 A4                 7179 	.db #0xA4
   1526 83                 7180 	.db #0x83
   1527 BD                 7181 	.db #0xBD
   1528 19                 7182 	.db #0x19
   1529 04                 7183 	.db #0x04
   152A 1D                 7184 	.db #0x1D
   152B AB                 7185 	.db #0xAB
   152C 2C                 7186 	.db #0x2C
   152D 0B                 7187 	.db #0x0B
   152E F3                 7188 	.db #0xF3
   152F BA                 7189 	.db #0xBA
   1530 12                 7190 	.db #0x12
   1531 33                 7191 	.db #0x33
   1532 AC                 7192 	.db #0xAC
   1533 F9                 7193 	.db #0xF9
   1534 0B                 7194 	.db #0x0B
   1535 2A                 7195 	.db #0x2A
   1536 1E                 7196 	.db #0x1E
   1537 88                 7197 	.db #0x88
   1538 7A                 7198 	.db #0x7A
   1539 C5                 7199 	.db #0xC5
   153A AE                 7200 	.db #0xAE
   153B FD                 7201 	.db #0xFD
   153C 2D                 7202 	.db #0x2D
   153D DD                 7203 	.db #0xDD
   153E 7D                 7204 	.db #0x7D
   153F 26                 7205 	.db #0x26
   1540 1C                 7206 	.db #0x1C
   1541 B6                 7207 	.db #0xB6
   1542 40                 7208 	.db #0x40
   1543 9C                 7209 	.db #0x9C
   1544 89                 7210 	.db #0x89
   1545 97                 7211 	.db #0x97
   1546 76                 7212 	.db #0x76
   1547 E9                 7213 	.db #0xE9
   1548 C4                 7214 	.db #0xC4
   1549 F1                 7215 	.db #0xF1
   154A 78                 7216 	.db #0x78
   154B B5                 7217 	.db #0xB5
   154C 1C                 7218 	.db #0x1C
   154D BF                 7219 	.db #0xBF
   154E ED                 7220 	.db #0xED
   154F FE                 7221 	.db #0xFE
   1550 8D                 7222 	.db #0x8D
   1551 CE                 7223 	.db #0xCE
   1552 69                 7224 	.db #0x69
   1553 2A                 7225 	.db #0x2A
   1554 0D                 7226 	.db #0x0D
   1555 01                 7227 	.db #0x01
   1556 1E                 7228 	.db #0x1E
   1557 8B                 7229 	.db #0x8B
   1558 FA                 7230 	.db #0xFA
   1559 92                 7231 	.db #0x92
   155A 4F                 7232 	.db #0x4F
   155B A9                 7233 	.db #0xA9
   155C E7                 7234 	.db #0xE7
   155D 6B                 7235 	.db #0x6B
   155E EE                 7236 	.db #0xEE
   155F AE                 7237 	.db #0xAE
   1560 99                 7238 	.db #0x99
   1561 15                 7239 	.db #0x15
   1562 CC                 7240 	.db #0xCC
   1563 E3                 7241 	.db #0xE3
   1564 2F                 7242 	.db #0x2F
   1565 21                 7243 	.db #0x21
   1566 FF                 7244 	.db #0xFF
   1567 A4                 7245 	.db #0xA4
   1568 AE                 7246 	.db #0xAE
   1569 08                 7247 	.db #0x08
   156A FF                 7248 	.db #0xFF
   156B 01                 7249 	.db #0x01
   156C 91                 7250 	.db #0x91
   156D EA                 7251 	.db #0xEA
   156E 63                 7252 	.db #0x63
   156F 7A                 7253 	.db #0x7A
   1570 48                 7254 	.db #0x48
   1571 7D                 7255 	.db #0x7D
   1572 2E                 7256 	.db #0x2E
   1573 4E                 7257 	.db #0x4E
   1574 A8                 7258 	.db #0xA8
   1575 92                 7259 	.db #0x92
   1576 F7                 7260 	.db #0xF7
   1577 32                 7261 	.db #0x32
   1578 19                 7262 	.db #0x19
   1579 8E                 7263 	.db #0x8E
   157A AD                 7264 	.db #0xAD
   157B 89                 7265 	.db #0x89
   157C 53                 7266 	.db #0x53
   157D 74                 7267 	.db #0x74
   157E 53                 7268 	.db #0x53
   157F 70                 7269 	.db #0x70
   1580 71                 7270 	.db #0x71
   1581 E9                 7271 	.db #0xE9
   1582 C8                 7272 	.db #0xC8
   1583 FE                 7273 	.db #0xFE
   1584 8C                 7274 	.db #0x8C
   1585 FA                 7275 	.db #0xFA
   1586 4F                 7276 	.db #0x4F
   1587 B2                 7277 	.db #0xB2
   1588 28                 7278 	.db #0x28
   1589 D9                 7279 	.db #0xD9
   158A A7                 7280 	.db #0xA7
   158B D2                 7281 	.db #0xD2
   158C 1D                 7282 	.db #0x1D
   158D CE                 7283 	.db #0xCE
   158E 23                 7284 	.db #0x23
   158F 5D                 7285 	.db #0x5D
   1590 69                 7286 	.db #0x69
   1591 7A                 7287 	.db #0x7A
   1592 EE                 7288 	.db #0xEE
   1593 23                 7289 	.db #0x23
   1594 A0                 7290 	.db #0xA0
   1595 43                 7291 	.db #0x43
   1596 75                 7292 	.db #0x75
   1597 A6                 7293 	.db #0xA6
   1598 92                 7294 	.db #0x92
   1599 26                 7295 	.db #0x26
   159A 34                 7296 	.db #0x34
   159B B5                 7297 	.db #0xB5
   159C AC                 7298 	.db #0xAC
   159D C4                 7299 	.db #0xC4
   159E D1                 7300 	.db #0xD1
   159F 3B                 7301 	.db #0x3B
   15A0 C8                 7302 	.db #0xC8
   15A1 F7                 7303 	.db #0xF7
   15A2 A4                 7304 	.db #0xA4
   15A3 FB                 7305 	.db #0xFB
   15A4 34                 7306 	.db #0x34
   15A5 A8                 7307 	.db #0xA8
   15A6 11                 7308 	.db #0x11
   15A7 C8                 7309 	.db #0xC8
   15A8 DD                 7310 	.db #0xDD
   15A9 5F                 7311 	.db #0x5F
   15AA 74                 7312 	.db #0x74
   15AB CE                 7313 	.db #0xCE
   15AC 46                 7314 	.db #0x46
   15AD 9E                 7315 	.db #0x9E
   15AE 63                 7316 	.db #0x63
   15AF 0E                 7317 	.db #0x0E
   15B0 5E                 7318 	.db #0x5E
   15B1 86                 7319 	.db #0x86
   15B2 AB                 7320 	.db #0xAB
   15B3 7B                 7321 	.db #0x7B
   15B4 ED                 7322 	.db #0xED
   15B5 9F                 7323 	.db #0x9F
   15B6 0E                 7324 	.db #0x0E
   15B7 5F                 7325 	.db #0x5F
   15B8 37                 7326 	.db #0x37
   15B9 1E                 7327 	.db #0x1E
   15BA 42                 7328 	.db #0x42
   15BB 37                 7329 	.db #0x37
   15BC 1A                 7330 	.db #0x1A
   15BD 03                 7331 	.db #0x03
   15BE 94                 7332 	.db #0x94
   15BF CD                 7333 	.db #0xCD
   15C0 A0                 7334 	.db #0xA0
   15C1 68                 7335 	.db #0x68
   15C2 80                 7336 	.db #0x80
   15C3 2A                 7337 	.db #0x2A
   15C4 F6                 7338 	.db #0xF6
   15C5 DE                 7339 	.db #0xDE
   15C6 1C                 7340 	.db #0x1C
   15C7 57                 7341 	.db #0x57
   15C8 BB                 7342 	.db #0xBB
   15C9 A3                 7343 	.db #0xA3
   15CA 2E                 7344 	.db #0x2E
   15CB B7                 7345 	.db #0xB7
   15CC 65                 7346 	.db #0x65
   15CD 13                 7347 	.db #0x13
   15CE E7                 7348 	.db #0xE7
   15CF 08                 7349 	.db #0x08
   15D0 54                 7350 	.db #0x54
   15D1 7F                 7351 	.db #0x7F
   15D2 2C                 7352 	.db #0x2C
   15D3 EC                 7353 	.db #0xEC
   15D4 19                 7354 	.db #0x19
   15D5 36                 7355 	.db #0x36
   15D6 13                 7356 	.db #0x13
   15D7 28                 7357 	.db #0x28
   15D8 CA                 7358 	.db #0xCA
   15D9 C9                 7359 	.db #0xC9
   15DA 08                 7360 	.db #0x08
   15DB C8                 7361 	.db #0xC8
   15DC 74                 7362 	.db #0x74
   15DD C2                 7363 	.db #0xC2
   15DE 6E                 7364 	.db #0x6E
   15DF 19                 7365 	.db #0x19
   15E0 8C                 7366 	.db #0x8C
   15E1 18                 7367 	.db #0x18
   15E2 91                 7368 	.db #0x91
   15E3 DA                 7369 	.db #0xDA
   15E4 3A                 7370 	.db #0x3A
   15E5 1E                 7371 	.db #0x1E
   15E6 72                 7372 	.db #0x72
   15E7 73                 7373 	.db #0x73
   15E8 3A                 7374 	.db #0x3A
   15E9 4C                 7375 	.db #0x4C
   15EA CF                 7376 	.db #0xCF
   15EB 3B                 7377 	.db #0x3B
   15EC 95                 7378 	.db #0x95
   15ED 08                 7379 	.db #0x08
   15EE BA                 7380 	.db #0xBA
   15EF B3                 7381 	.db #0xB3
   15F0 1D                 7382 	.db #0x1D
   15F1 1F                 7383 	.db #0x1F
   15F2 B9                 7384 	.db #0xB9
   15F3 6F                 7385 	.db #0x6F
   15F4 C1                 7386 	.db #0xC1
   15F5 DB                 7387 	.db #0xDB
   15F6 BC                 7388 	.db #0xBC
   15F7 2D                 7389 	.db #0x2D
   15F8 69                 7390 	.db #0x69
   15F9 03                 7391 	.db #0x03
   15FA CB                 7392 	.db #0xCB
   15FB 15                 7393 	.db #0x15
   15FC 8A                 7394 	.db #0x8A
   15FD 3E                 7395 	.db #0x3E
   15FE D3                 7396 	.db #0xD3
   15FF E1                 7397 	.db #0xE1
   1600 82                 7398 	.db #0x82
   1601 16                 7399 	.db #0x16
   1602 E8                 7400 	.db #0xE8
   1603 B0                 7401 	.db #0xB0
   1604 47                 7402 	.db #0x47
   1605 0F                 7403 	.db #0x0F
   1606 F7                 7404 	.db #0xF7
   1607 9C                 7405 	.db #0x9C
   1608 88                 7406 	.db #0x88
   1609 E3                 7407 	.db #0xE3
   160A 0F                 7408 	.db #0x0F
   160B 81                 7409 	.db #0x81
   160C 65                 7410 	.db #0x65
   160D A7                 7411 	.db #0xA7
   160E 39                 7412 	.db #0x39
   160F 88                 7413 	.db #0x88
   1610 FD                 7414 	.db #0xFD
   1611 33                 7415 	.db #0x33
   1612 B9                 7416 	.db #0xB9
   1613 A3                 7417 	.db #0xA3
   1614 49                 7418 	.db #0x49
   1615 80                 7419 	.db #0x80
   1616 4B                 7420 	.db #0x4B
   1617 2C                 7421 	.db #0x2C
   1618 25                 7422 	.db #0x25
   1619 12                 7423 	.db #0x12
   161A B9                 7424 	.db #0xB9
   161B 5C                 7425 	.db #0x5C
   161C 22                 7426 	.db #0x22
   161D 15                 7427 	.db #0x15
   161E E1                 7428 	.db #0xE1
   161F FF                 7429 	.db #0xFF
   1620 13                 7430 	.db #0x13
   1621 63                 7431 	.db #0x63
   1622 F2                 7432 	.db #0xF2
   1623 C8                 7433 	.db #0xC8
   1624 A7                 7434 	.db #0xA7
   1625 F7                 7435 	.db #0xF7
   1626 4D                 7436 	.db #0x4D
   1627 B0                 7437 	.db #0xB0
   1628 1E                 7438 	.db #0x1E
   1629 72                 7439 	.db #0x72
   162A 9B                 7440 	.db #0x9B
   162B 17                 7441 	.db #0x17
   162C 63                 7442 	.db #0x63
   162D 8F                 7443 	.db #0x8F
   162E CB                 7444 	.db #0xCB
   162F A9                 7445 	.db #0xA9
   1630 C7                 7446 	.db #0xC7
   1631 F8                 7447 	.db #0xF8
   1632 C8                 7448 	.db #0xC8
   1633 D8                 7449 	.db #0xD8
   1634 55                 7450 	.db #0x55
   1635 BC                 7451 	.db #0xBC
   1636 8A                 7452 	.db #0x8A
   1637 C9                 7453 	.db #0xC9
   1638 2B                 7454 	.db #0x2B
   1639 E2                 7455 	.db #0xE2
   163A F2                 7456 	.db #0xF2
   163B 25                 7457 	.db #0x25
   163C 26                 7458 	.db #0x26
   163D 85                 7459 	.db #0x85
   163E 28                 7460 	.db #0x28
   163F A9                 7461 	.db #0xA9
   1640 5C                 7462 	.db #0x5C
   1641 3A                 7463 	.db #0x3A
   1642 54                 7464 	.db #0x54
   1643 C6                 7465 	.db #0xC6
   1644 87                 7466 	.db #0x87
   1645 C0                 7467 	.db #0xC0
   1646 7E                 7468 	.db #0x7E
   1647 AE                 7469 	.db #0xAE
   1648 07                 7470 	.db #0x07
   1649 41                 7471 	.db #0x41
   164A 61                 7472 	.db #0x61
   164B 54                 7473 	.db #0x54
   164C D9                 7474 	.db #0xD9
   164D BC                 7475 	.db #0xBC
   164E CC                 7476 	.db #0xCC
   164F A4                 7477 	.db #0xA4
   1650 D8                 7478 	.db #0xD8
   1651 D3                 7479 	.db #0xD3
   1652 E1                 7480 	.db #0xE1
   1653 ED                 7481 	.db #0xED
   1654 52                 7482 	.db #0x52
   1655 92                 7483 	.db #0x92
   1656 7C                 7484 	.db #0x7C
   1657 38                 7485 	.db #0x38
   1658 A4                 7486 	.db #0xA4
   1659 A5                 7487 	.db #0xA5
   165A 67                 7488 	.db #0x67
   165B 67                 7489 	.db #0x67
   165C 95                 7490 	.db #0x95
   165D 72                 7491 	.db #0x72
   165E B6                 7492 	.db #0xB6
   165F 4C                 7493 	.db #0x4C
   1660 F7                 7494 	.db #0xF7
   1661 57                 7495 	.db #0x57
   1662 3D                 7496 	.db #0x3D
   1663 BE                 7497 	.db #0xBE
   1664 B9                 7498 	.db #0xB9
   1665 B2                 7499 	.db #0xB2
   1666 A0                 7500 	.db #0xA0
   1667 CD                 7501 	.db #0xCD
   1668 BD                 7502 	.db #0xBD
   1669 B4                 7503 	.db #0xB4
   166A DB                 7504 	.db #0xDB
   166B 4A                 7505 	.db #0x4A
   166C 8B                 7506 	.db #0x8B
   166D 47                 7507 	.db #0x47
   166E 02                 7508 	.db #0x02
   166F 0F                 7509 	.db #0x0F
   1670 41                 7510 	.db #0x41
   1671 A3                 7511 	.db #0xA3
   1672 67                 7512 	.db #0x67
   1673 53                 7513 	.db #0x53
   1674 42                 7514 	.db #0x42
   1675 8D                 7515 	.db #0x8D
   1676 A0                 7516 	.db #0xA0
   1677 5C                 7517 	.db #0x5C
   1678 10                 7518 	.db #0x10
   1679 92                 7519 	.db #0x92
   167A 33                 7520 	.db #0x33
   167B AC                 7521 	.db #0xAC
   167C ED                 7522 	.db #0xED
   167D AA                 7523 	.db #0xAA
   167E F0                 7524 	.db #0xF0
   167F 41                 7525 	.db #0x41
   1680 53                 7526 	.db #0x53
   1681 9F                 7527 	.db #0x9F
   1682 24                 7528 	.db #0x24
   1683 2B                 7529 	.db #0x2B
   1684 56                 7530 	.db #0x56
   1685 B7                 7531 	.db #0xB7
   1686 0D                 7532 	.db #0x0D
   1687 4C                 7533 	.db #0x4C
   1688 08                 7534 	.db #0x08
   1689 88                 7535 	.db #0x88
   168A DC                 7536 	.db #0xDC
   168B 7C                 7537 	.db #0x7C
   168C 6E                 7538 	.db #0x6E
   168D 49                 7539 	.db #0x49
   168E DA                 7540 	.db #0xDA
   168F 1D                 7541 	.db #0x1D
   1690 F1                 7542 	.db #0xF1
   1691 B2                 7543 	.db #0xB2
   1692 A0                 7544 	.db #0xA0
   1693 D6                 7545 	.db #0xD6
   1694 EC                 7546 	.db #0xEC
   1695 54                 7547 	.db #0x54
   1696 F8                 7548 	.db #0xF8
   1697 46                 7549 	.db #0x46
   1698 A0                 7550 	.db #0xA0
   1699 8A                 7551 	.db #0x8A
   169A DD                 7552 	.db #0xDD
   169B BD                 7553 	.db #0xBD
   169C E1                 7554 	.db #0xE1
   169D 47                 7555 	.db #0x47
   169E B8                 7556 	.db #0xB8
   169F 62                 7557 	.db #0x62
   16A0 C9                 7558 	.db #0xC9
   16A1 36                 7559 	.db #0x36
   16A2 EB                 7560 	.db #0xEB
   16A3 C7                 7561 	.db #0xC7
   16A4 68                 7562 	.db #0x68
   16A5 EF                 7563 	.db #0xEF
   16A6 8C                 7564 	.db #0x8C
   16A7 55                 7565 	.db #0x55
   16A8 E7                 7566 	.db #0xE7
   16A9 77                 7567 	.db #0x77
   16AA 9C                 7568 	.db #0x9C
   16AB EA                 7569 	.db #0xEA
   16AC 32                 7570 	.db #0x32
   16AD 4E                 7571 	.db #0x4E
   16AE BF                 7572 	.db #0xBF
   16AF 2E                 7573 	.db #0x2E
   16B0 11                 7574 	.db #0x11
   16B1 D3                 7575 	.db #0xD3
   16B2 97                 7576 	.db #0x97
   16B3 B4                 7577 	.db #0xB4
   16B4 CF                 7578 	.db #0xCF
   16B5 6E                 7579 	.db #0x6E
   16B6 4D                 7580 	.db #0x4D
   16B7 11                 7581 	.db #0x11
   16B8 57                 7582 	.db #0x57
   16B9 2D                 7583 	.db #0x2D
   16BA F1                 7584 	.db #0xF1
   16BB BC                 7585 	.db #0xBC
   16BC 06                 7586 	.db #0x06
   16BD 55                 7587 	.db #0x55
   16BE 41                 7588 	.db #0x41
   16BF AA                 7589 	.db #0xAA
   16C0 37                 7590 	.db #0x37
   16C1 28                 7591 	.db #0x28
   16C2 37                 7592 	.db #0x37
   16C3 D5                 7593 	.db #0xD5
   16C4 3C                 7594 	.db #0x3C
   16C5 B7                 7595 	.db #0xB7
   16C6 9B                 7596 	.db #0x9B
   16C7 51                 7597 	.db #0x51
   16C8 8F                 7598 	.db #0x8F
   16C9 50                 7599 	.db #0x50
   16CA 79                 7600 	.db #0x79
   16CB C7                 7601 	.db #0xC7
   16CC F2                 7602 	.db #0xF2
   16CD CA                 7603 	.db #0xCA
   16CE 99                 7604 	.db #0x99
   16CF DA                 7605 	.db #0xDA
   16D0 67                 7606 	.db #0x67
   16D1 6D                 7607 	.db #0x6D
   16D2 B5                 7608 	.db #0xB5
   16D3 A6                 7609 	.db #0xA6
   16D4 CC                 7610 	.db #0xCC
   16D5 03                 7611 	.db #0x03
   16D6 64                 7612 	.db #0x64
   16D7 7C                 7613 	.db #0x7C
   16D8 E6                 7614 	.db #0xE6
   16D9 B5                 7615 	.db #0xB5
   16DA 28                 7616 	.db #0x28
   16DB 5A                 7617 	.db #0x5A
   16DC E0                 7618 	.db #0xE0
   16DD B2                 7619 	.db #0xB2
   16DE D3                 7620 	.db #0xD3
   16DF 11                 7621 	.db #0x11
   16E0 25                 7622 	.db #0x25
   16E1 18                 7623 	.db #0x18
   16E2 8E                 7624 	.db #0x8E
   16E3 CD                 7625 	.db #0xCD
   16E4 41                 7626 	.db #0x41
   16E5 A7                 7627 	.db #0xA7
   16E6 2D                 7628 	.db #0x2D
   16E7 7D                 7629 	.db #0x7D
   16E8 2A                 7630 	.db #0x2A
   16E9 E7                 7631 	.db #0xE7
   16EA DF                 7632 	.db #0xDF
   16EB 66                 7633 	.db #0x66
   16EC 2C                 7634 	.db #0x2C
   16ED 1B                 7635 	.db #0x1B
   16EE 86                 7636 	.db #0x86
   16EF EE                 7637 	.db #0xEE
   16F0 E2                 7638 	.db #0xE2
   16F1 40                 7639 	.db #0x40
   16F2 C2                 7640 	.db #0xC2
   16F3 8B                 7641 	.db #0x8B
   16F4 4E                 7642 	.db #0x4E
   16F5 2F                 7643 	.db #0x2F
   16F6 DF                 7644 	.db #0xDF
   16F7 F4                 7645 	.db #0xF4
   16F8 7D                 7646 	.db #0x7D
   16F9 24                 7647 	.db #0x24
   16FA 36                 7648 	.db #0x36
   16FB 33                 7649 	.db #0x33
   16FC F9                 7650 	.db #0xF9
   16FD EE                 7651 	.db #0xEE
   16FE AE                 7652 	.db #0xAE
   16FF 3B                 7653 	.db #0x3B
   1700 0A                 7654 	.db #0x0A
   1701 C9                 7655 	.db #0xC9
   1702 13                 7656 	.db #0x13
   1703 1D                 7657 	.db #0x1D
   1704 0D                 7658 	.db #0x0D
   1705 A3                 7659 	.db #0xA3
   1706 6F                 7660 	.db #0x6F
   1707 AB                 7661 	.db #0xAB
   1708 E7                 7662 	.db #0xE7
   1709 DD                 7663 	.db #0xDD
   170A 9E                 7664 	.db #0x9E
   170B A3                 7665 	.db #0xA3
   170C CB                 7666 	.db #0xCB
   170D 2E                 7667 	.db #0x2E
   170E DA                 7668 	.db #0xDA
   170F A2                 7669 	.db #0xA2
   1710 B9                 7670 	.db #0xB9
   1711 68                 7671 	.db #0x68
   1712 AD                 7672 	.db #0xAD
   1713 63                 7673 	.db #0x63
   1714 A4                 7674 	.db #0xA4
   1715 23                 7675 	.db #0x23
   1716 B9                 7676 	.db #0xB9
   1717 4D                 7677 	.db #0x4D
   1718 B7                 7678 	.db #0xB7
   1719 0F                 7679 	.db #0x0F
   171A C1                 7680 	.db #0xC1
   171B F6                 7681 	.db #0xF6
   171C 9A                 7682 	.db #0x9A
   171D 86                 7683 	.db #0x86
   171E 13                 7684 	.db #0x13
   171F 12                 7685 	.db #0x12
   1720 72                 7686 	.db #0x72
   1721 9D                 7687 	.db #0x9D
   1722 36                 7688 	.db #0x36
   1723 B3                 7689 	.db #0xB3
   1724 F8                 7690 	.db #0xF8
   1725 3C                 7691 	.db #0x3C
   1726 88                 7692 	.db #0x88
   1727 D0                 7693 	.db #0xD0
   1728 C0                 7694 	.db #0xC0
   1729 9C                 7695 	.db #0x9C
   172A CD                 7696 	.db #0xCD
   172B AA                 7697 	.db #0xAA
   172C 70                 7698 	.db #0x70
   172D F6                 7699 	.db #0xF6
   172E CB                 7700 	.db #0xCB
   172F E6                 7701 	.db #0xE6
   1730 D7                 7702 	.db #0xD7
   1731 F9                 7703 	.db #0xF9
   1732 4B                 7704 	.db #0x4B
   1733 C5                 7705 	.db #0xC5
   1734 09                 7706 	.db #0x09
   1735 19                 7707 	.db #0x19
   1736 0C                 7708 	.db #0x0C
   1737 CC                 7709 	.db #0xCC
   1738 1B                 7710 	.db #0x1B
   1739 15                 7711 	.db #0x15
   173A 5E                 7712 	.db #0x5E
   173B 0E                 7713 	.db #0x0E
   173C 18                 7714 	.db #0x18
   173D C3                 7715 	.db #0xC3
   173E B8                 7716 	.db #0xB8
   173F 0A                 7717 	.db #0x0A
   1740 45                 7718 	.db #0x45
   1741 A5                 7719 	.db #0xA5
   1742 B9                 7720 	.db #0xB9
   1743 61                 7721 	.db #0x61
   1744 88                 7722 	.db #0x88
   1745 D0                 7723 	.db #0xD0
   1746 91                 7724 	.db #0x91
   1747 80                 7725 	.db #0x80
   1748 F4                 7726 	.db #0xF4
   1749 BF                 7727 	.db #0xBF
   174A 26                 7728 	.db #0x26
   174B 94                 7729 	.db #0x94
   174C FB                 7730 	.db #0xFB
   174D 72                 7731 	.db #0x72
   174E 79                 7732 	.db #0x79
   174F 85                 7733 	.db #0x85
   1750 15                 7734 	.db #0x15
   1751 AC                 7735 	.db #0xAC
   1752 31                 7736 	.db #0x31
   1753 3B                 7737 	.db #0x3B
   1754 97                 7738 	.db #0x97
   1755 87                 7739 	.db #0x87
   1756 AC                 7740 	.db #0xAC
   1757 EA                 7741 	.db #0xEA
   1758 93                 7742 	.db #0x93
   1759 51                 7743 	.db #0x51
   175A 24                 7744 	.db #0x24
   175B 78                 7745 	.db #0x78
   175C CD                 7746 	.db #0xCD
   175D 8B                 7747 	.db #0x8B
   175E 59                 7748 	.db #0x59
   175F 53                 7749 	.db #0x53
   1760 C5                 7750 	.db #0xC5
   1761 93                 7751 	.db #0x93
   1762 76                 7752 	.db #0x76
   1763 C5                 7753 	.db #0xC5
   1764 86                 7754 	.db #0x86
   1765 B3                 7755 	.db #0xB3
   1766 06                 7756 	.db #0x06
   1767 30                 7757 	.db #0x30
   1768 2F                 7758 	.db #0x2F
   1769 24                 7759 	.db #0x24
   176A 56                 7760 	.db #0x56
   176B 89                 7761 	.db #0x89
   176C A7                 7762 	.db #0xA7
   176D BF                 7763 	.db #0xBF
   176E 1A                 7764 	.db #0x1A
   176F 38                 7765 	.db #0x38
   1770 BB                 7766 	.db #0xBB
   1771 83                 7767 	.db #0x83
   1772 F0                 7768 	.db #0xF0
   1773 8C                 7769 	.db #0x8C
   1774 D0                 7770 	.db #0xD0
   1775 DE                 7771 	.db #0xDE
   1776 F5                 7772 	.db #0xF5
   1777 CC                 7773 	.db #0xCC
   1778 6B                 7774 	.db #0x6B
   1779 D6                 7775 	.db #0xD6
   177A 90                 7776 	.db #0x90
   177B 8C                 7777 	.db #0x8C
   177C 64                 7778 	.db #0x64
   177D 6F                 7779 	.db #0x6F
   177E 30                 7780 	.db #0x30
   177F 65                 7781 	.db #0x65
   1780 12                 7782 	.db #0x12
   1781 33                 7783 	.db #0x33
   1782 C9                 7784 	.db #0xC9
   1783 95                 7785 	.db #0x95
   1784 75                 7786 	.db #0x75
   1785 FE                 7787 	.db #0xFE
   1786 72                 7788 	.db #0x72
   1787 35                 7789 	.db #0x35
   1788 4B                 7790 	.db #0x4B
   1789 EA                 7791 	.db #0xEA
   178A 78                 7792 	.db #0x78
   178B 90                 7793 	.db #0x90
   178C 94                 7794 	.db #0x94
   178D 0F                 7795 	.db #0x0F
   178E F7                 7796 	.db #0xF7
   178F 55                 7797 	.db #0x55
   1790 4D                 7798 	.db #0x4D
   1791 04                 7799 	.db #0x04
   1792 19                 7800 	.db #0x19
   1793 EA                 7801 	.db #0xEA
   1794 03                 7802 	.db #0x03
   1795 67                 7803 	.db #0x67
   1796 F5                 7804 	.db #0xF5
   1797 73                 7805 	.db #0x73
   1798 97                 7806 	.db #0x97
   1799 3D                 7807 	.db #0x3D
   179A EC                 7808 	.db #0xEC
   179B 2F                 7809 	.db #0x2F
   179C 8A                 7810 	.db #0x8A
   179D 21                 7811 	.db #0x21
   179E 41                 7812 	.db #0x41
   179F C6                 7813 	.db #0xC6
   17A0 ED                 7814 	.db #0xED
   17A1 61                 7815 	.db #0x61
   17A2 E3                 7816 	.db #0xE3
   17A3 75                 7817 	.db #0x75
   17A4 9F                 7818 	.db #0x9F
   17A5 C6                 7819 	.db #0xC6
   17A6 61                 7820 	.db #0x61
   17A7 D6                 7821 	.db #0xD6
   17A8 62                 7822 	.db #0x62
   17A9 E5                 7823 	.db #0xE5
   17AA 94                 7824 	.db #0x94
   17AB 05                 7825 	.db #0x05
   17AC A7                 7826 	.db #0xA7
   17AD FE                 7827 	.db #0xFE
   17AE 5C                 7828 	.db #0x5C
   17AF BF                 7829 	.db #0xBF
   17B0 86                 7830 	.db #0x86
   17B1 D9                 7831 	.db #0xD9
   17B2 5F                 7832 	.db #0x5F
   17B3 C3                 7833 	.db #0xC3
   17B4 12                 7834 	.db #0x12
   17B5 2D                 7835 	.db #0x2D
   17B6 8C                 7836 	.db #0x8C
   17B7 D5                 7837 	.db #0xD5
   17B8 0E                 7838 	.db #0x0E
   17B9 D2                 7839 	.db #0xD2
   17BA 76                 7840 	.db #0x76
   17BB BA                 7841 	.db #0xBA
   17BC 76                 7842 	.db #0x76
   17BD 77                 7843 	.db #0x77
   17BE 3F                 7844 	.db #0x3F
   17BF 27                 7845 	.db #0x27
   17C0 61                 7846 	.db #0x61
   17C1 D8                 7847 	.db #0xD8
   17C2 8B                 7848 	.db #0x8B
   17C3 F4                 7849 	.db #0xF4
   17C4 BF                 7850 	.db #0xBF
   17C5 D6                 7851 	.db #0xD6
   17C6 B7                 7852 	.db #0xB7
   17C7 29                 7853 	.db #0x29
   17C8 5C                 7854 	.db #0x5C
   17C9 20                 7855 	.db #0x20
   17CA 24                 7856 	.db #0x24
   17CB 7C                 7857 	.db #0x7C
   17CC 39                 7858 	.db #0x39
   17CD 13                 7859 	.db #0x13
   17CE 50                 7860 	.db #0x50
   17CF 67                 7861 	.db #0x67
   17D0 09                 7862 	.db #0x09
   17D1 C6                 7863 	.db #0xC6
   17D2 BF                 7864 	.db #0xBF
   17D3 03                 7865 	.db #0x03
   17D4 F7                 7866 	.db #0xF7
   17D5 76                 7867 	.db #0x76
   17D6 FC                 7868 	.db #0xFC
   17D7 6F                 7869 	.db #0x6F
   17D8 8E                 7870 	.db #0x8E
   17D9 8F                 7871 	.db #0x8F
   17DA 23                 7872 	.db #0x23
   17DB A0                 7873 	.db #0xA0
   17DC 95                 7874 	.db #0x95
   17DD D5                 7875 	.db #0xD5
   17DE B2                 7876 	.db #0xB2
   17DF 4F                 7877 	.db #0x4F
   17E0 EF                 7878 	.db #0xEF
   17E1 96                 7879 	.db #0x96
   17E2 37                 7880 	.db #0x37
   17E3 4B                 7881 	.db #0x4B
   17E4 15                 7882 	.db #0x15
   17E5 F6                 7883 	.db #0xF6
   17E6 5F                 7884 	.db #0x5F
   17E7 92                 7885 	.db #0x92
   17E8 16                 7886 	.db #0x16
   17E9 B0                 7887 	.db #0xB0
   17EA B6                 7888 	.db #0xB6
   17EB AB                 7889 	.db #0xAB
   17EC EF                 7890 	.db #0xEF
   17ED EA                 7891 	.db #0xEA
   17EE DF                 7892 	.db #0xDF
   17EF 19                 7893 	.db #0x19
   17F0 97                 7894 	.db #0x97
   17F1 35                 7895 	.db #0x35
   17F2 BB                 7896 	.db #0xBB
   17F3 12                 7897 	.db #0x12
   17F4 A3                 7898 	.db #0xA3
   17F5 77                 7899 	.db #0x77
   17F6 07                 7900 	.db #0x07
   17F7 55                 7901 	.db #0x55
   17F8 0F                 7902 	.db #0x0F
   17F9 8A                 7903 	.db #0x8A
   17FA 08                 7904 	.db #0x08
   17FB 3D                 7905 	.db #0x3D
   17FC 3F                 7906 	.db #0x3F
   17FD D4                 7907 	.db #0xD4
   17FE 93                 7908 	.db #0x93
   17FF 5C                 7909 	.db #0x5C
   1800 82                 7910 	.db #0x82
   1801 0E                 7911 	.db #0x0E
   1802 AF                 7912 	.db #0xAF
   1803 C6                 7913 	.db #0xC6
   1804 8E                 7914 	.db #0x8E
   1805 71                 7915 	.db #0x71
   1806 C8                 7916 	.db #0xC8
   1807 66                 7917 	.db #0x66
   1808 AE                 7918 	.db #0xAE
   1809 E9                 7919 	.db #0xE9
   180A EB                 7920 	.db #0xEB
   180B B1                 7921 	.db #0xB1
   180C 72                 7922 	.db #0x72
   180D 76                 7923 	.db #0x76
   180E BA                 7924 	.db #0xBA
   180F D7                 7925 	.db #0xD7
   1810 7E                 7926 	.db #0x7E
   1811 61                 7927 	.db #0x61
   1812 4B                 7928 	.db #0x4B
   1813 E5                 7929 	.db #0xE5
   1814 0B                 7930 	.db #0x0B
   1815 27                 7931 	.db #0x27
   1816 7C                 7932 	.db #0x7C
   1817 09                 7933 	.db #0x09
   1818 CB                 7934 	.db #0xCB
   1819 83                 7935 	.db #0x83
   181A 1B                 7936 	.db #0x1B
   181B 41                 7937 	.db #0x41
   181C F2                 7938 	.db #0xF2
   181D FB                 7939 	.db #0xFB
   181E 57                 7940 	.db #0x57
   181F 2E                 7941 	.db #0x2E
   1820 C0                 7942 	.db #0xC0
   1821 3C                 7943 	.db #0x3C
   1822 9D                 7944 	.db #0x9D
   1823 FF                 7945 	.db #0xFF
   1824 05                 7946 	.db #0x05
   1825 19                 7947 	.db #0x19
   1826 C0                 7948 	.db #0xC0
   1827 A6                 7949 	.db #0xA6
   1828 E2                 7950 	.db #0xE2
   1829 41                 7951 	.db #0x41
   182A 14                 7952 	.db #0x14
   182B AF                 7953 	.db #0xAF
   182C 33                 7954 	.db #0x33
   182D F7                 7955 	.db #0xF7
   182E ED                 7956 	.db #0xED
   182F 45                 7957 	.db #0x45
   1830 DD                 7958 	.db #0xDD
   1831 E0                 7959 	.db #0xE0
   1832 47                 7960 	.db #0x47
   1833 CF                 7961 	.db #0xCF
   1834 4D                 7962 	.db #0x4D
   1835 43                 7963 	.db #0x43
   1836 BD                 7964 	.db #0xBD
   1837 E3                 7965 	.db #0xE3
   1838 AA                 7966 	.db #0xAA
   1839 83                 7967 	.db #0x83
   183A 09                 7968 	.db #0x09
   183B EC                 7969 	.db #0xEC
   183C 00                 7970 	.db #0x00
   183D 36                 7971 	.db #0x36
   183E 29                 7972 	.db #0x29
   183F 9D                 7973 	.db #0x9D
   1840 F0                 7974 	.db #0xF0
   1841 AE                 7975 	.db #0xAE
   1842 70                 7976 	.db #0x70
   1843 B2                 7977 	.db #0xB2
   1844 C3                 7978 	.db #0xC3
   1845 6A                 7979 	.db #0x6A
   1846 C3                 7980 	.db #0xC3
   1847 08                 7981 	.db #0x08
   1848 DF                 7982 	.db #0xDF
   1849 F8                 7983 	.db #0xF8
   184A 79                 7984 	.db #0x79
   184B 74                 7985 	.db #0x74
   184C 4E                 7986 	.db #0x4E
   184D 26                 7987 	.db #0x26
   184E 1A                 7988 	.db #0x1A
   184F 18                 7989 	.db #0x18
   1850 9E                 7990 	.db #0x9E
   1851 EC                 7991 	.db #0xEC
   1852 43                 7992 	.db #0x43
   1853 73                 7993 	.db #0x73
   1854 5A                 7994 	.db #0x5A
   1855 7A                 7995 	.db #0x7A
   1856 35                 7996 	.db #0x35
   1857 77                 7997 	.db #0x77
   1858 69                 7998 	.db #0x69
   1859 B6                 7999 	.db #0xB6
   185A 5E                 8000 	.db #0x5E
   185B 9F                 8001 	.db #0x9F
   185C 05                 8002 	.db #0x05
   185D 80                 8003 	.db #0x80
   185E 4C                 8004 	.db #0x4C
   185F 94                 8005 	.db #0x94
   1860 02                 8006 	.db #0x02
   1861 A7                 8007 	.db #0xA7
   1862 61                 8008 	.db #0x61
   1863 13                 8009 	.db #0x13
   1864 FC                 8010 	.db #0xFC
   1865 56                 8011 	.db #0x56
   1866 A6                 8012 	.db #0xA6
   1867 0F                 8013 	.db #0x0F
   1868 40                 8014 	.db #0x40
   1869 B4                 8015 	.db #0xB4
   186A 3D                 8016 	.db #0x3D
   186B 58                 8017 	.db #0x58
   186C 28                 8018 	.db #0x28
   186D 32                 8019 	.db #0x32
   186E EF                 8020 	.db #0xEF
   186F 12                 8021 	.db #0x12
   1870 D0                 8022 	.db #0xD0
   1871 C1                 8023 	.db #0xC1
   1872 51                 8024 	.db #0x51
   1873 2C                 8025 	.db #0x2C
   1874 A3                 8026 	.db #0xA3
   1875 F3                 8027 	.db #0xF3
   1876 1A                 8028 	.db #0x1A
   1877 62                 8029 	.db #0x62
   1878 2D                 8030 	.db #0x2D
   1879 FD                 8031 	.db #0xFD
   187A 97                 8032 	.db #0x97
   187B B1                 8033 	.db #0xB1
   187C CD                 8034 	.db #0xCD
   187D FE                 8035 	.db #0xFE
   187E AA                 8036 	.db #0xAA
   187F B7                 8037 	.db #0xB7
   1880 17                 8038 	.db #0x17
   1881 B9                 8039 	.db #0xB9
   1882 B2                 8040 	.db #0xB2
   1883 A4                 8041 	.db #0xA4
   1884 13                 8042 	.db #0x13
   1885 98                 8043 	.db #0x98
   1886 8A                 8044 	.db #0x8A
   1887 D5                 8045 	.db #0xD5
   1888 E8                 8046 	.db #0xE8
   1889 FC                 8047 	.db #0xFC
   188A 6D                 8048 	.db #0x6D
   188B 35                 8049 	.db #0x35
   188C D9                 8050 	.db #0xD9
   188D 4D                 8051 	.db #0x4D
   188E 5B                 8052 	.db #0x5B
   188F F7                 8053 	.db #0xF7
   1890 A4                 8054 	.db #0xA4
   1891 A1                 8055 	.db #0xA1
   1892 67                 8056 	.db #0x67
   1893 3B                 8057 	.db #0x3B
   1894 1F                 8058 	.db #0x1F
   1895 3E                 8059 	.db #0x3E
   1896 AE                 8060 	.db #0xAE
   1897 39                 8061 	.db #0x39
   1898 7A                 8062 	.db #0x7A
   1899 43                 8063 	.db #0x43
   189A 2E                 8064 	.db #0x2E
   189B 2F                 8065 	.db #0x2F
   189C 1A                 8066 	.db #0x1A
   189D BC                 8067 	.db #0xBC
   189E FF                 8068 	.db #0xFF
   189F 2D                 8069 	.db #0x2D
   18A0 9E                 8070 	.db #0x9E
   18A1 61                 8071 	.db #0x61
   18A2 91                 8072 	.db #0x91
   18A3 3E                 8073 	.db #0x3E
   18A4 EF                 8074 	.db #0xEF
   18A5 AA                 8075 	.db #0xAA
   18A6 99                 8076 	.db #0x99
   18A7 FA                 8077 	.db #0xFA
   18A8 D4                 8078 	.db #0xD4
   18A9 12                 8079 	.db #0x12
   18AA B8                 8080 	.db #0xB8
   18AB 11                 8081 	.db #0x11
   18AC 56                 8082 	.db #0x56
   18AD 29                 8083 	.db #0x29
   18AE AB                 8084 	.db #0xAB
   18AF 1C                 8085 	.db #0x1C
   18B0 2D                 8086 	.db #0x2D
   18B1 C2                 8087 	.db #0xC2
   18B2 75                 8088 	.db #0x75
   18B3 2D                 8089 	.db #0x2D
   18B4 91                 8090 	.db #0x91
   18B5 27                 8091 	.db #0x27
   18B6 8F                 8092 	.db #0x8F
   18B7 64                 8093 	.db #0x64
   18B8 D0                 8094 	.db #0xD0
   18B9 14                 8095 	.db #0x14
   18BA E0                 8096 	.db #0xE0
   18BB 47                 8097 	.db #0x47
   18BC DB                 8098 	.db #0xDB
   18BD 76                 8099 	.db #0x76
   18BE 69                 8100 	.db #0x69
   18BF C3                 8101 	.db #0xC3
   18C0 8C                 8102 	.db #0x8C
   18C1 55                 8103 	.db #0x55
   18C2 46                 8104 	.db #0x46
   18C3 97                 8105 	.db #0x97
   18C4 BB                 8106 	.db #0xBB
   18C5 1F                 8107 	.db #0x1F
   18C6 34                 8108 	.db #0x34
   18C7 BB                 8109 	.db #0xBB
   18C8 E7                 8110 	.db #0xE7
   18C9 D9                 8111 	.db #0xD9
   18CA 46                 8112 	.db #0x46
   18CB B4                 8113 	.db #0xB4
   18CC B3                 8114 	.db #0xB3
   18CD 4A                 8115 	.db #0x4A
   18CE 7B                 8116 	.db #0x7B
   18CF 69                 8117 	.db #0x69
   18D0 D8                 8118 	.db #0xD8
   18D1 57                 8119 	.db #0x57
   18D2 F4                 8120 	.db #0xF4
   18D3 88                 8121 	.db #0x88
   18D4 FF                 8122 	.db #0xFF
   18D5 92                 8123 	.db #0x92
   18D6 0A                 8124 	.db #0x0A
   18D7 64                 8125 	.db #0x64
   18D8 9A                 8126 	.db #0x9A
   18D9 F3                 8127 	.db #0xF3
   18DA C6                 8128 	.db #0xC6
   18DB CA                 8129 	.db #0xCA
   18DC CA                 8130 	.db #0xCA
   18DD 9F                 8131 	.db #0x9F
   18DE E8                 8132 	.db #0xE8
   18DF 92                 8133 	.db #0x92
   18E0 24                 8134 	.db #0x24
   18E1 F4                 8135 	.db #0xF4
   18E2 50                 8136 	.db #0x50
   18E3 E3                 8137 	.db #0xE3
   18E4 AF                 8138 	.db #0xAF
   18E5 10                 8139 	.db #0x10
   18E6 8B                 8140 	.db #0x8B
   18E7 45                 8141 	.db #0x45
   18E8 69                 8142 	.db #0x69
   18E9 D8                 8143 	.db #0xD8
   18EA C8                 8144 	.db #0xC8
   18EB A4                 8145 	.db #0xA4
   18EC F6                 8146 	.db #0xF6
   18ED DD                 8147 	.db #0xDD
   18EE 24                 8148 	.db #0x24
   18EF F3                 8149 	.db #0xF3
   18F0 6F                 8150 	.db #0x6F
   18F1 9F                 8151 	.db #0x9F
   18F2 01                 8152 	.db #0x01
   18F3 1A                 8153 	.db #0x1A
   18F4 89                 8154 	.db #0x89
   18F5 5B                 8155 	.db #0x5B
   18F6 19                 8156 	.db #0x19
   18F7 E7                 8157 	.db #0xE7
   18F8 47                 8158 	.db #0x47
   18F9 B4                 8159 	.db #0xB4
   18FA F5                 8160 	.db #0xF5
   18FB 93                 8161 	.db #0x93
   18FC 0D                 8162 	.db #0x0D
   18FD BA                 8163 	.db #0xBA
   18FE 30                 8164 	.db #0x30
   18FF C2                 8165 	.db #0xC2
   1900 D3                 8166 	.db #0xD3
   1901 8F                 8167 	.db #0x8F
   1902 13                 8168 	.db #0x13
   1903 87                 8169 	.db #0x87
   1904 AE                 8170 	.db #0xAE
   1905 F7                 8171 	.db #0xF7
   1906 83                 8172 	.db #0x83
   1907 3A                 8173 	.db #0x3A
   1908 45                 8174 	.db #0x45
   1909 8A                 8175 	.db #0x8A
   190A 95                 8176 	.db #0x95
   190B 22                 8177 	.db #0x22
   190C F8                 8178 	.db #0xF8
   190D 58                 8179 	.db #0x58
   190E B5                 8180 	.db #0xB5
   190F 2B                 8181 	.db #0x2B
   1910 AE                 8182 	.db #0xAE
   1911 FF                 8183 	.db #0xFF
   1912 8C                 8184 	.db #0x8C
   1913 D2                 8185 	.db #0xD2
   1914 1E                 8186 	.db #0x1E
   1915 D1                 8187 	.db #0xD1
   1916 57                 8188 	.db #0x57
   1917 15                 8189 	.db #0x15
   1918 CA                 8190 	.db #0xCA
   1919 6D                 8191 	.db #0x6D
   191A C8                 8192 	.db #0xC8
   191B 5A                 8193 	.db #0x5A
   191C EB                 8194 	.db #0xEB
   191D 13                 8195 	.db #0x13
   191E 80                 8196 	.db #0x80
   191F AA                 8197 	.db #0xAA
   1920 DC                 8198 	.db #0xDC
   1921 4E                 8199 	.db #0x4E
   1922 8F                 8200 	.db #0x8F
   1923 E6                 8201 	.db #0xE6
   1924 C8                 8202 	.db #0xC8
   1925 8E                 8203 	.db #0x8E
   1926 AF                 8204 	.db #0xAF
   1927 08                 8205 	.db #0x08
   1928 F9                 8206 	.db #0xF9
   1929 2E                 8207 	.db #0x2E
   192A EA                 8208 	.db #0xEA
   192B 07                 8209 	.db #0x07
   192C 11                 8210 	.db #0x11
   192D 04                 8211 	.db #0x04
   192E EA                 8212 	.db #0xEA
   192F 4D                 8213 	.db #0x4D
   1930 A2                 8214 	.db #0xA2
   1931 7D                 8215 	.db #0x7D
   1932 F1                 8216 	.db #0xF1
   1933 21                 8217 	.db #0x21
   1934 69                 8218 	.db #0x69
   1935 05                 8219 	.db #0x05
   1936 53                 8220 	.db #0x53
   1937 AF                 8221 	.db #0xAF
   1938 ED                 8222 	.db #0xED
   1939 97                 8223 	.db #0x97
   193A D8                 8224 	.db #0xD8
   193B 0C                 8225 	.db #0x0C
   193C 5B                 8226 	.db #0x5B
   193D 84                 8227 	.db #0x84
   193E 54                 8228 	.db #0x54
   193F 3D                 8229 	.db #0x3D
   1940 7C                 8230 	.db #0x7C
   1941 FC                 8231 	.db #0xFC
   1942 58                 8232 	.db #0x58
   1943 0E                 8233 	.db #0x0E
   1944 B7                 8234 	.db #0xB7
   1945 84                 8235 	.db #0x84
   1946 F8                 8236 	.db #0xF8
   1947 30                 8237 	.db #0x30
   1948 18                 8238 	.db #0x18
   1949 91                 8239 	.db #0x91
   194A 81                 8240 	.db #0x81
   194B CE                 8241 	.db #0xCE
   194C 54                 8242 	.db #0x54
   194D 66                 8243 	.db #0x66
   194E 0E                 8244 	.db #0x0E
   194F E0                 8245 	.db #0xE0
   1950 C9                 8246 	.db #0xC9
   1951 01                 8247 	.db #0x01
   1952 BA                 8248 	.db #0xBA
   1953 BE                 8249 	.db #0xBE
   1954 7A                 8250 	.db #0x7A
   1955 B9                 8251 	.db #0xB9
   1956 68                 8252 	.db #0x68
   1957 1A                 8253 	.db #0x1A
   1958 CB                 8254 	.db #0xCB
   1959 81                 8255 	.db #0x81
   195A FE                 8256 	.db #0xFE
   195B 49                 8257 	.db #0x49
   195C EA                 8258 	.db #0xEA
   195D 8F                 8259 	.db #0x8F
   195E 0E                 8260 	.db #0x0E
   195F 5D                 8261 	.db #0x5D
   1960 52                 8262 	.db #0x52
   1961 F9                 8263 	.db #0xF9
   1962 7B                 8264 	.db #0x7B
   1963 3C                 8265 	.db #0x3C
   1964 6D                 8266 	.db #0x6D
   1965 61                 8267 	.db #0x61
   1966 B4                 8268 	.db #0xB4
   1967 89                 8269 	.db #0x89
   1968 B0                 8270 	.db #0xB0
   1969 67                 8271 	.db #0x67
   196A E4                 8272 	.db #0xE4
   196B 8F                 8273 	.db #0x8F
   196C 7D                 8274 	.db #0x7D
   196D AB                 8275 	.db #0xAB
   196E 05                 8276 	.db #0x05
   196F 9F                 8277 	.db #0x9F
   1970 8C                 8278 	.db #0x8C
   1971 9E                 8279 	.db #0x9E
   1972 51                 8280 	.db #0x51
   1973 45                 8281 	.db #0x45
   1974 35                 8282 	.db #0x35
   1975 D1                 8283 	.db #0xD1
   1976 AE                 8284 	.db #0xAE
   1977 A4                 8285 	.db #0xA4
   1978 CA                 8286 	.db #0xCA
   1979 0F                 8287 	.db #0x0F
   197A 64                 8288 	.db #0x64
   197B 15                 8289 	.db #0x15
   197C 19                 8290 	.db #0x19
   197D D1                 8291 	.db #0xD1
   197E B2                 8292 	.db #0xB2
   197F 5B                 8293 	.db #0x5B
   1980 4D                 8294 	.db #0x4D
   1981 5D                 8295 	.db #0x5D
   1982 0D                 8296 	.db #0x0D
   1983 07                 8297 	.db #0x07
   1984 91                 8298 	.db #0x91
   1985 11                 8299 	.db #0x11
   1986 D4                 8300 	.db #0xD4
   1987 BB                 8301 	.db #0xBB
   1988 90                 8302 	.db #0x90
   1989 67                 8303 	.db #0x67
   198A 41                 8304 	.db #0x41
   198B 9B                 8305 	.db #0x9B
   198C 8C                 8306 	.db #0x8C
   198D 4C                 8307 	.db #0x4C
   198E 57                 8308 	.db #0x57
   198F A0                 8309 	.db #0xA0
   1990 7C                 8310 	.db #0x7C
   1991 13                 8311 	.db #0x13
   1992 23                 8312 	.db #0x23
   1993 48                 8313 	.db #0x48
   1994 51                 8314 	.db #0x51
   1995 1C                 8315 	.db #0x1C
   1996 05                 8316 	.db #0x05
   1997 C9                 8317 	.db #0xC9
   1998 CA                 8318 	.db #0xCA
   1999 D6                 8319 	.db #0xD6
   199A 3F                 8320 	.db #0x3F
   199B 95                 8321 	.db #0x95
   199C AE                 8322 	.db #0xAE
   199D AE                 8323 	.db #0xAE
   199E F0                 8324 	.db #0xF0
   199F AB                 8325 	.db #0xAB
   19A0 80                 8326 	.db #0x80
   19A1 F3                 8327 	.db #0xF3
   19A2 01                 8328 	.db #0x01
   19A3 6C                 8329 	.db #0x6C
   19A4 6A                 8330 	.db #0x6A
   19A5 2C                 8331 	.db #0x2C
   19A6 4F                 8332 	.db #0x4F
   19A7 14                 8333 	.db #0x14
   19A8 A7                 8334 	.db #0xA7
   19A9 3D                 8335 	.db #0x3D
   19AA C8                 8336 	.db #0xC8
   19AB 0E                 8337 	.db #0x0E
   19AC 6D                 8338 	.db #0x6D
   19AD BC                 8339 	.db #0xBC
   19AE 2C                 8340 	.db #0x2C
   19AF 60                 8341 	.db #0x60
   19B0 8A                 8342 	.db #0x8A
   19B1 E7                 8343 	.db #0xE7
   19B2 35                 8344 	.db #0x35
   19B3 D5                 8345 	.db #0xD5
   19B4 7D                 8346 	.db #0x7D
   19B5 2D                 8347 	.db #0x2D
   19B6 D4                 8348 	.db #0xD4
   19B7 0D                 8349 	.db #0x0D
   19B8 3A                 8350 	.db #0x3A
   19B9 25                 8351 	.db #0x25
   19BA DB                 8352 	.db #0xDB
   19BB 64                 8353 	.db #0x64
   19BC 34                 8354 	.db #0x34
   19BD 7A                 8355 	.db #0x7A
   19BE E2                 8356 	.db #0xE2
   19BF 31                 8357 	.db #0x31
   19C0 E8                 8358 	.db #0xE8
   19C1 E7                 8359 	.db #0xE7
   19C2 CC                 8360 	.db #0xCC
   19C3 EE                 8361 	.db #0xEE
   19C4 2E                 8362 	.db #0x2E
   19C5 0D                 8363 	.db #0x0D
   19C6 55                 8364 	.db #0x55
   19C7 B4                 8365 	.db #0xB4
   19C8 6D                 8366 	.db #0x6D
   19C9 2E                 8367 	.db #0x2E
   19CA 82                 8368 	.db #0x82
   19CB B1                 8369 	.db #0xB1
   19CC 91                 8370 	.db #0x91
   19CD C9                 8371 	.db #0xC9
   19CE 79                 8372 	.db #0x79
   19CF 64                 8373 	.db #0x64
   19D0 5C                 8374 	.db #0x5C
   19D1 8A                 8375 	.db #0x8A
   19D2 87                 8376 	.db #0x87
   19D3 3C                 8377 	.db #0x3C
   19D4 49                 8378 	.db #0x49
   19D5 FD                 8379 	.db #0xFD
   19D6 D3                 8380 	.db #0xD3
   19D7 B0                 8381 	.db #0xB0
   19D8 8F                 8382 	.db #0x8F
   19D9 39                 8383 	.db #0x39
   19DA 78                 8384 	.db #0x78
   19DB 20                 8385 	.db #0x20
   19DC 71                 8386 	.db #0x71
   19DD 4B                 8387 	.db #0x4B
   19DE AC                 8388 	.db #0xAC
   19DF 0A                 8389 	.db #0x0A
   19E0 C4                 8390 	.db #0xC4
   19E1 35                 8391 	.db #0x35
   19E2 72                 8392 	.db #0x72
   19E3 B1                 8393 	.db #0xB1
   19E4 92                 8394 	.db #0x92
   19E5 FE                 8395 	.db #0xFE
   19E6 9E                 8396 	.db #0x9E
   19E7 2C                 8397 	.db #0x2C
   19E8 CD                 8398 	.db #0xCD
   19E9 FD                 8399 	.db #0xFD
   19EA D6                 8400 	.db #0xD6
   19EB 6F                 8401 	.db #0x6F
   19EC 87                 8402 	.db #0x87
   19ED 1C                 8403 	.db #0x1C
   19EE 9D                 8404 	.db #0x9D
   19EF 88                 8405 	.db #0x88
   19F0 F1                 8406 	.db #0xF1
   19F1 86                 8407 	.db #0x86
   19F2 30                 8408 	.db #0x30
   19F3 66                 8409 	.db #0x66
   19F4 A9                 8410 	.db #0xA9
   19F5 ED                 8411 	.db #0xED
   19F6 4E                 8412 	.db #0x4E
   19F7 8A                 8413 	.db #0x8A
   19F8 0A                 8414 	.db #0x0A
   19F9 59                 8415 	.db #0x59
   19FA E3                 8416 	.db #0xE3
   19FB D1                 8417 	.db #0xD1
   19FC 3C                 8418 	.db #0x3C
   19FD 73                 8419 	.db #0x73
   19FE 62                 8420 	.db #0x62
   19FF 16                 8421 	.db #0x16
   1A00 F9                 8422 	.db #0xF9
   1A01 C9                 8423 	.db #0xC9
   1A02 4D                 8424 	.db #0x4D
   1A03 8B                 8425 	.db #0x8B
   1A04 FC                 8426 	.db #0xFC
   1A05 5D                 8427 	.db #0x5D
   1A06 93                 8428 	.db #0x93
   1A07 C9                 8429 	.db #0xC9
   1A08 9A                 8430 	.db #0x9A
   1A09 A0                 8431 	.db #0xA0
   1A0A 64                 8432 	.db #0x64
   1A0B B4                 8433 	.db #0xB4
   1A0C 8F                 8434 	.db #0x8F
   1A0D B3                 8435 	.db #0xB3
   1A0E C2                 8436 	.db #0xC2
   1A0F FA                 8437 	.db #0xFA
   1A10 5F                 8438 	.db #0x5F
   1A11 51                 8439 	.db #0x51
   1A12 CC                 8440 	.db #0xCC
   1A13 F6                 8441 	.db #0xF6
   1A14 8B                 8442 	.db #0x8B
   1A15 04                 8443 	.db #0x04
   1A16 0C                 8444 	.db #0x0C
   1A17 C7                 8445 	.db #0xC7
   1A18 4B                 8446 	.db #0x4B
   1A19 53                 8447 	.db #0x53
   1A1A BB                 8448 	.db #0xBB
   1A1B B1                 8449 	.db #0xB1
   1A1C D8                 8450 	.db #0xD8
   1A1D D5                 8451 	.db #0xD5
   1A1E 9A                 8452 	.db #0x9A
   1A1F DC                 8453 	.db #0xDC
   1A20 96                 8454 	.db #0x96
   1A21 0A                 8455 	.db #0x0A
   1A22 C8                 8456 	.db #0xC8
   1A23 30                 8457 	.db #0x30
   1A24 85                 8458 	.db #0x85
   1A25 26                 8459 	.db #0x26
   1A26 E3                 8460 	.db #0xE3
   1A27 DD                 8461 	.db #0xDD
   1A28 C1                 8462 	.db #0xC1
   1A29 A4                 8463 	.db #0xA4
   1A2A 11                 8464 	.db #0x11
   1A2B CF                 8465 	.db #0xCF
   1A2C 87                 8466 	.db #0x87
   1A2D 20                 8467 	.db #0x20
   1A2E 66                 8468 	.db #0x66
   1A2F 0F                 8469 	.db #0x0F
   1A30 6F                 8470 	.db #0x6F
   1A31 54                 8471 	.db #0x54
   1A32 01                 8472 	.db #0x01
   1A33 6C                 8473 	.db #0x6C
   1A34 E7                 8474 	.db #0xE7
   1A35 13                 8475 	.db #0x13
   1A36 0D                 8476 	.db #0x0D
   1A37 09                 8477 	.db #0x09
   1A38 37                 8478 	.db #0x37
   1A39 29                 8479 	.db #0x29
   1A3A 66                 8480 	.db #0x66
   1A3B 4A                 8481 	.db #0x4A
   1A3C 4D                 8482 	.db #0x4D
   1A3D 79                 8483 	.db #0x79
   1A3E A1                 8484 	.db #0xA1
   1A3F 62                 8485 	.db #0x62
   1A40 26                 8486 	.db #0x26
   1A41 C8                 8487 	.db #0xC8
   1A42 80                 8488 	.db #0x80
   1A43 DB                 8489 	.db #0xDB
   1A44 DF                 8490 	.db #0xDF
   1A45 C5                 8491 	.db #0xC5
   1A46 6A                 8492 	.db #0x6A
   1A47 8F                 8493 	.db #0x8F
   1A48 12                 8494 	.db #0x12
   1A49 69                 8495 	.db #0x69
   1A4A 7B                 8496 	.db #0x7B
   1A4B 92                 8497 	.db #0x92
   1A4C BA                 8498 	.db #0xBA
   1A4D 4B                 8499 	.db #0x4B
   1A4E 5F                 8500 	.db #0x5F
   1A4F 58                 8501 	.db #0x58
   1A50 8C                 8502 	.db #0x8C
   1A51 86                 8503 	.db #0x86
   1A52 97                 8504 	.db #0x97
   1A53 99                 8505 	.db #0x99
   1A54 A5                 8506 	.db #0xA5
   1A55 6B                 8507 	.db #0x6B
   1A56 85                 8508 	.db #0x85
   1A57 E4                 8509 	.db #0xE4
   1A58 89                 8510 	.db #0x89
   1A59 60                 8511 	.db #0x60
   1A5A A9                 8512 	.db #0xA9
   1A5B 2A                 8513 	.db #0x2A
   1A5C 9F                 8514 	.db #0x9F
   1A5D 91                 8515 	.db #0x91
   1A5E 29                 8516 	.db #0x29
   1A5F 73                 8517 	.db #0x73
   1A60 3B                 8518 	.db #0x3B
   1A61 37                 8519 	.db #0x37
   1A62 B5                 8520 	.db #0xB5
   1A63 6C                 8521 	.db #0x6C
   1A64 65                 8522 	.db #0x65
   1A65 CC                 8523 	.db #0xCC
   1A66 19                 8524 	.db #0x19
   1A67 5F                 8525 	.db #0x5F
   1A68 BB                 8526 	.db #0xBB
   1A69 7B                 8527 	.db #0x7B
   1A6A 1C                 8528 	.db #0x1C
   1A6B 44                 8529 	.db #0x44
   1A6C AD                 8530 	.db #0xAD
   1A6D 22                 8531 	.db #0x22
   1A6E 24                 8532 	.db #0x24
   1A6F FB                 8533 	.db #0xFB
   1A70 2E                 8534 	.db #0x2E
   1A71 E4                 8535 	.db #0xE4
   1A72 C1                 8536 	.db #0xC1
   1A73 CB                 8537 	.db #0xCB
   1A74 0C                 8538 	.db #0x0C
   1A75 5E                 8539 	.db #0x5E
   1A76 89                 8540 	.db #0x89
   1A77 8E                 8541 	.db #0x8E
   1A78 9A                 8542 	.db #0x9A
   1A79 72                 8543 	.db #0x72
   1A7A 60                 8544 	.db #0x60
   1A7B 2F                 8545 	.db #0x2F
   1A7C DF                 8546 	.db #0xDF
   1A7D 62                 8547 	.db #0x62
   1A7E EE                 8548 	.db #0xEE
   1A7F F1                 8549 	.db #0xF1
   1A80 FD                 8550 	.db #0xFD
   1A81 38                 8551 	.db #0x38
   1A82 0A                 8552 	.db #0x0A
   1A83 A1                 8553 	.db #0xA1
   1A84 5C                 8554 	.db #0x5C
   1A85 4D                 8555 	.db #0x4D
   1A86 FC                 8556 	.db #0xFC
   1A87 6B                 8557 	.db #0x6B
   1A88 AC                 8558 	.db #0xAC
   1A89 FA                 8559 	.db #0xFA
   1A8A D1                 8560 	.db #0xD1
   1A8B 2C                 8561 	.db #0x2C
   1A8C 83                 8562 	.db #0x83
   1A8D 56                 8563 	.db #0x56
   1A8E A4                 8564 	.db #0xA4
   1A8F E6                 8565 	.db #0xE6
   1A90 C8                 8566 	.db #0xC8
   1A91 59                 8567 	.db #0x59
   1A92 3A                 8568 	.db #0x3A
   1A93 37                 8569 	.db #0x37
   1A94 B5                 8570 	.db #0xB5
   1A95 50                 8571 	.db #0x50
   1A96 D3                 8572 	.db #0xD3
   1A97 23                 8573 	.db #0x23
   1A98 06                 8574 	.db #0x06
   1A99 51                 8575 	.db #0x51
   1A9A 37                 8576 	.db #0x37
   1A9B 3B                 8577 	.db #0x3B
   1A9C 17                 8578 	.db #0x17
   1A9D 0D                 8579 	.db #0x0D
   1A9E DD                 8580 	.db #0xDD
   1A9F 0D                 8581 	.db #0x0D
   1AA0 3B                 8582 	.db #0x3B
   1AA1 DD                 8583 	.db #0xDD
   1AA2 BE                 8584 	.db #0xBE
   1AA3 25                 8585 	.db #0x25
   1AA4 E4                 8586 	.db #0xE4
   1AA5 26                 8587 	.db #0x26
   1AA6 55                 8588 	.db #0x55
   1AA7 4F                 8589 	.db #0x4F
   1AA8 50                 8590 	.db #0x50
   1AA9 3F                 8591 	.db #0x3F
   1AAA 0E                 8592 	.db #0x0E
   1AAB 38                 8593 	.db #0x38
   1AAC 08                 8594 	.db #0x08
   1AAD 5D                 8595 	.db #0x5D
   1AAE F3                 8596 	.db #0xF3
   1AAF B7                 8597 	.db #0xB7
   1AB0 84                 8598 	.db #0x84
   1AB1 2E                 8599 	.db #0x2E
   1AB2 25                 8600 	.db #0x25
   1AB3 6E                 8601 	.db #0x6E
   1AB4 D7                 8602 	.db #0xD7
   1AB5 86                 8603 	.db #0x86
   1AB6 D8                 8604 	.db #0xD8
   1AB7 7B                 8605 	.db #0x7B
   1AB8 EC                 8606 	.db #0xEC
   1AB9 FA                 8607 	.db #0xFA
   1ABA 2D                 8608 	.db #0x2D
   1ABB 57                 8609 	.db #0x57
   1ABC 0C                 8610 	.db #0x0C
   1ABD 8D                 8611 	.db #0x8D
   1ABE 41                 8612 	.db #0x41
   1ABF D8                 8613 	.db #0xD8
   1AC0 F1                 8614 	.db #0xF1
   1AC1 DE                 8615 	.db #0xDE
   1AC2 17                 8616 	.db #0x17
   1AC3 BD                 8617 	.db #0xBD
   1AC4 EE                 8618 	.db #0xEE
   1AC5 C4                 8619 	.db #0xC4
   1AC6 62                 8620 	.db #0x62
   1AC7 5F                 8621 	.db #0x5F
   1AC8 1E                 8622 	.db #0x1E
   1AC9 6C                 8623 	.db #0x6C
   1ACA DC                 8624 	.db #0xDC
   1ACB 21                 8625 	.db #0x21
   1ACC 1B                 8626 	.db #0x1B
   1ACD 99                 8627 	.db #0x99
   1ACE 06                 8628 	.db #0x06
   1ACF DE                 8629 	.db #0xDE
   1AD0 AA                 8630 	.db #0xAA
   1AD1 C7                 8631 	.db #0xC7
   1AD2 DF                 8632 	.db #0xDF
   1AD3 B7                 8633 	.db #0xB7
   1AD4 61                 8634 	.db #0x61
   1AD5 68                 8635 	.db #0x68
   1AD6 9F                 8636 	.db #0x9F
   1AD7 59                 8637 	.db #0x59
   1AD8 83                 8638 	.db #0x83
   1AD9 7E                 8639 	.db #0x7E
   1ADA B3                 8640 	.db #0xB3
   1ADB F6                 8641 	.db #0xF6
   1ADC 7C                 8642 	.db #0x7C
   1ADD 57                 8643 	.db #0x57
   1ADE E4                 8644 	.db #0xE4
   1ADF 7D                 8645 	.db #0x7D
   1AE0 BE                 8646 	.db #0xBE
   1AE1 16                 8647 	.db #0x16
   1AE2 17                 8648 	.db #0x17
   1AE3 C8                 8649 	.db #0xC8
   1AE4 30                 8650 	.db #0x30
   1AE5 EE                 8651 	.db #0xEE
   1AE6 4D                 8652 	.db #0x4D
   1AE7 55                 8653 	.db #0x55
   1AE8 7A                 8654 	.db #0x7A
   1AE9 E8                 8655 	.db #0xE8
   1AEA 61                 8656 	.db #0x61
   1AEB 1A                 8657 	.db #0x1A
   1AEC 18                 8658 	.db #0x18
   1AED F7                 8659 	.db #0xF7
   1AEE 5D                 8660 	.db #0x5D
   1AEF 72                 8661 	.db #0x72
   1AF0 83                 8662 	.db #0x83
   1AF1 5C                 8663 	.db #0x5C
   1AF2 2E                 8664 	.db #0x2E
   1AF3 BA                 8665 	.db #0xBA
   1AF4 E0                 8666 	.db #0xE0
   1AF5 A5                 8667 	.db #0xA5
   1AF6 EB                 8668 	.db #0xEB
   1AF7 72                 8669 	.db #0x72
   1AF8 7F                 8670 	.db #0x7F
   1AF9 D0                 8671 	.db #0xD0
   1AFA 1B                 8672 	.db #0x1B
   1AFB BC                 8673 	.db #0xBC
   1AFC 7A                 8674 	.db #0x7A
   1AFD C7                 8675 	.db #0xC7
   1AFE A6                 8676 	.db #0xA6
   1AFF 76                 8677 	.db #0x76
   1B00 BF                 8678 	.db #0xBF
   1B01 9C                 8679 	.db #0x9C
   1B02 C8                 8680 	.db #0xC8
   1B03 35                 8681 	.db #0x35
   1B04 11                 8682 	.db #0x11
   1B05 12                 8683 	.db #0x12
   1B06 BE                 8684 	.db #0xBE
   1B07 54                 8685 	.db #0x54
   1B08 57                 8686 	.db #0x57
   1B09 9A                 8687 	.db #0x9A
   1B0A AF                 8688 	.db #0xAF
   1B0B 27                 8689 	.db #0x27
   1B0C 86                 8690 	.db #0x86
   1B0D 0F                 8691 	.db #0x0F
   1B0E 20                 8692 	.db #0x20
   1B0F 46                 8693 	.db #0x46
   1B10 69                 8694 	.db #0x69
   1B11 B5                 8695 	.db #0xB5
   1B12 DD                 8696 	.db #0xDD
   1B13 D0                 8697 	.db #0xD0
   1B14 8F                 8698 	.db #0x8F
   1B15 45                 8699 	.db #0x45
   1B16 DB                 8700 	.db #0xDB
   1B17 AC                 8701 	.db #0xAC
   1B18 7F                 8702 	.db #0x7F
   1B19 EF                 8703 	.db #0xEF
   1B1A 4A                 8704 	.db #0x4A
   1B1B 8E                 8705 	.db #0x8E
   1B1C 79                 8706 	.db #0x79
   1B1D 78                 8707 	.db #0x78
   1B1E 1C                 8708 	.db #0x1C
   1B1F 92                 8709 	.db #0x92
   1B20 B1                 8710 	.db #0xB1
   1B21 10                 8711 	.db #0x10
   1B22 8D                 8712 	.db #0x8D
   1B23 81                 8713 	.db #0x81
   1B24 00                 8714 	.db #0x00
   1B25 F2                 8715 	.db #0xF2
   1B26 E4                 8716 	.db #0xE4
   1B27 65                 8717 	.db #0x65
   1B28 56                 8718 	.db #0x56
   1B29 E9                 8719 	.db #0xE9
   1B2A 94                 8720 	.db #0x94
   1B2B B9                 8721 	.db #0xB9
   1B2C AB                 8722 	.db #0xAB
   1B2D E7                 8723 	.db #0xE7
   1B2E AC                 8724 	.db #0xAC
   1B2F D7                 8725 	.db #0xD7
   1B30 95                 8726 	.db #0x95
   1B31 B6                 8727 	.db #0xB6
   1B32 F7                 8728 	.db #0xF7
   1B33 EB                 8729 	.db #0xEB
   1B34 15                 8730 	.db #0x15
   1B35 52                 8731 	.db #0x52
   1B36 21                 8732 	.db #0x21
   1B37 D0                 8733 	.db #0xD0
   1B38 BA                 8734 	.db #0xBA
   1B39 09                 8735 	.db #0x09
   1B3A 4D                 8736 	.db #0x4D
   1B3B 88                 8737 	.db #0x88
   1B3C 65                 8738 	.db #0x65
   1B3D 3E                 8739 	.db #0x3E
   1B3E 0D                 8740 	.db #0x0D
   1B3F DF                 8741 	.db #0xDF
   1B40 77                 8742 	.db #0x77
   1B41 7A                 8743 	.db #0x7A
   1B42 BB                 8744 	.db #0xBB
   1B43 31                 8745 	.db #0x31
   1B44 E8                 8746 	.db #0xE8
   1B45 40                 8747 	.db #0x40
   1B46 00                 8748 	.db #0x00
   1B47 31                 8749 	.db #0x31
   1B48 0B                 8750 	.db #0x0B
   1B49 5C                 8751 	.db #0x5C
   1B4A 12                 8752 	.db #0x12
   1B4B 5A                 8753 	.db #0x5A
   1B4C 82                 8754 	.db #0x82
   1B4D AA                 8755 	.db #0xAA
   1B4E 74                 8756 	.db #0x74
   1B4F 82                 8757 	.db #0x82
   1B50 DD                 8758 	.db #0xDD
   1B51 B8                 8759 	.db #0xB8
   1B52 8B                 8760 	.db #0x8B
   1B53 A3                 8761 	.db #0xA3
   1B54 BE                 8762 	.db #0xBE
   1B55 44                 8763 	.db #0x44
   1B56 02                 8764 	.db #0x02
   1B57 B0                 8765 	.db #0xB0
   1B58 F9                 8766 	.db #0xF9
   1B59 F9                 8767 	.db #0xF9
   1B5A BB                 8768 	.db #0xBB
   1B5B F9                 8769 	.db #0xF9
   1B5C D5                 8770 	.db #0xD5
   1B5D A5                 8771 	.db #0xA5
   1B5E E8                 8772 	.db #0xE8
   1B5F CD                 8773 	.db #0xCD
   1B60 C9                 8774 	.db #0xC9
   1B61 0D                 8775 	.db #0x0D
   1B62 8A                 8776 	.db #0x8A
   1B63 FE                 8777 	.db #0xFE
   1B64 AB                 8778 	.db #0xAB
   1B65 0C                 8779 	.db #0x0C
   1B66 C2                 8780 	.db #0xC2
   1B67 DE                 8781 	.db #0xDE
   1B68 A8                 8782 	.db #0xA8
   1B69 30                 8783 	.db #0x30
   1B6A 02                 8784 	.db #0x02
   1B6B 7F                 8785 	.db #0x7F
   1B6C E9                 8786 	.db #0xE9
   1B6D B8                 8787 	.db #0xB8
   1B6E CA                 8788 	.db #0xCA
   1B6F 2B                 8789 	.db #0x2B
   1B70 C5                 8790 	.db #0xC5
   1B71 AE                 8791 	.db #0xAE
   1B72 29                 8792 	.db #0x29
   1B73 7B                 8793 	.db #0x7B
   1B74 F4                 8794 	.db #0xF4
   1B75 32                 8795 	.db #0x32
   1B76 60                 8796 	.db #0x60
   1B77 F5                 8797 	.db #0xF5
   1B78 B3                 8798 	.db #0xB3
   1B79 14                 8799 	.db #0x14
   1B7A 79                 8800 	.db #0x79
   1B7B 75                 8801 	.db #0x75
   1B7C DA                 8802 	.db #0xDA
   1B7D D0                 8803 	.db #0xD0
   1B7E 70                 8804 	.db #0x70
   1B7F 74                 8805 	.db #0x74
   1B80 A8                 8806 	.db #0xA8
   1B81 E4                 8807 	.db #0xE4
   1B82 6A                 8808 	.db #0x6A
   1B83 52                 8809 	.db #0x52
   1B84 4D                 8810 	.db #0x4D
   1B85 0B                 8811 	.db #0x0B
   1B86 15                 8812 	.db #0x15
   1B87 E7                 8813 	.db #0xE7
   1B88 18                 8814 	.db #0x18
   1B89 D9                 8815 	.db #0xD9
   1B8A 88                 8816 	.db #0x88
   1B8B 10                 8817 	.db #0x10
   1B8C 0F                 8818 	.db #0x0F
   1B8D E4                 8819 	.db #0xE4
   1B8E 19                 8820 	.db #0x19
   1B8F 31                 8821 	.db #0x31
   1B90 AA                 8822 	.db #0xAA
   1B91 A2                 8823 	.db #0xA2
   1B92 59                 8824 	.db #0x59
   1B93 31                 8825 	.db #0x31
   1B94 70                 8826 	.db #0x70
   1B95 C9                 8827 	.db #0xC9
   1B96 9B                 8828 	.db #0x9B
   1B97 BF                 8829 	.db #0xBF
   1B98 DB                 8830 	.db #0xDB
   1B99 9F                 8831 	.db #0x9F
   1B9A 68                 8832 	.db #0x68
   1B9B 42                 8833 	.db #0x42
   1B9C CB                 8834 	.db #0xCB
   1B9D 70                 8835 	.db #0x70
   1B9E 66                 8836 	.db #0x66
   1B9F 05                 8837 	.db #0x05
   1BA0 8C                 8838 	.db #0x8C
   1BA1 89                 8839 	.db #0x89
   1BA2 62                 8840 	.db #0x62
   1BA3 C7                 8841 	.db #0xC7
   1BA4 3F                 8842 	.db #0x3F
   1BA5 55                 8843 	.db #0x55
   1BA6 23                 8844 	.db #0x23
   1BA7 26                 8845 	.db #0x26
   1BA8 28                 8846 	.db #0x28
   1BA9 BB                 8847 	.db #0xBB
   1BAA 4C                 8848 	.db #0x4C
   1BAB A5                 8849 	.db #0xA5
   1BAC D0                 8850 	.db #0xD0
   1BAD 9D                 8851 	.db #0x9D
   1BAE 30                 8852 	.db #0x30
   1BAF 13                 8853 	.db #0x13
   1BB0 99                 8854 	.db #0x99
   1BB1 1E                 8855 	.db #0x1E
   1BB2 5A                 8856 	.db #0x5A
   1BB3 BE                 8857 	.db #0xBE
   1BB4 F7                 8858 	.db #0xF7
   1BB5 D4                 8859 	.db #0xD4
   1BB6 51                 8860 	.db #0x51
   1BB7 61                 8861 	.db #0x61
   1BB8 D5                 8862 	.db #0xD5
   1BB9 6E                 8863 	.db #0x6E
   1BBA 44                 8864 	.db #0x44
   1BBB A2                 8865 	.db #0xA2
   1BBC 08                 8866 	.db #0x08
   1BBD 96                 8867 	.db #0x96
   1BBE 10                 8868 	.db #0x10
   1BBF 9A                 8869 	.db #0x9A
   1BC0 0E                 8870 	.db #0x0E
   1BC1 D5                 8871 	.db #0xD5
   1BC2 CD                 8872 	.db #0xCD
   1BC3 D6                 8873 	.db #0xD6
   1BC4 ED                 8874 	.db #0xED
   1BC5 D4                 8875 	.db #0xD4
   1BC6 5A                 8876 	.db #0x5A
   1BC7 1B                 8877 	.db #0x1B
   1BC8 91                 8878 	.db #0x91
   1BC9 33                 8879 	.db #0x33
   1BCA 12                 8880 	.db #0x12
   1BCB 35                 8881 	.db #0x35
   1BCC B7                 8882 	.db #0xB7
   1BCD 3C                 8883 	.db #0x3C
   1BCE 73                 8884 	.db #0x73
   1BCF 16                 8885 	.db #0x16
   1BD0 DD                 8886 	.db #0xDD
   1BD1 39                 8887 	.db #0x39
   1BD2 F4                 8888 	.db #0xF4
   1BD3 3B                 8889 	.db #0x3B
   1BD4 C2                 8890 	.db #0xC2
   1BD5 81                 8891 	.db #0x81
   1BD6 48                 8892 	.db #0x48
   1BD7 58                 8893 	.db #0x58
   1BD8 A1                 8894 	.db #0xA1
   1BD9 B3                 8895 	.db #0xB3
   1BDA 4C                 8896 	.db #0x4C
   1BDB 6E                 8897 	.db #0x6E
   1BDC 88                 8898 	.db #0x88
   1BDD DB                 8899 	.db #0xDB
   1BDE 03                 8900 	.db #0x03
   1BDF 48                 8901 	.db #0x48
   1BE0 34                 8902 	.db #0x34
   1BE1 5D                 8903 	.db #0x5D
   1BE2 67                 8904 	.db #0x67
   1BE3 32                 8905 	.db #0x32
   1BE4 CA                 8906 	.db #0xCA
   1BE5 43                 8907 	.db #0x43
   1BE6 E5                 8908 	.db #0xE5
   1BE7 F5                 8909 	.db #0xF5
   1BE8 E6                 8910 	.db #0xE6
   1BE9 66                 8911 	.db #0x66
   1BEA D6                 8912 	.db #0xD6
   1BEB F5                 8913 	.db #0xF5
   1BEC 95                 8914 	.db #0x95
   1BED 8D                 8915 	.db #0x8D
   1BEE B6                 8916 	.db #0xB6
   1BEF 5E                 8917 	.db #0x5E
   1BF0 70                 8918 	.db #0x70
   1BF1 35                 8919 	.db #0x35
   1BF2 AF                 8920 	.db #0xAF
   1BF3 DD                 8921 	.db #0xDD
   1BF4 22                 8922 	.db #0x22
   1BF5 AA                 8923 	.db #0xAA
   1BF6 5F                 8924 	.db #0x5F
   1BF7 6F                 8925 	.db #0x6F
   1BF8 AB                 8926 	.db #0xAB
   1BF9 B0                 8927 	.db #0xB0
   1BFA 9C                 8928 	.db #0x9C
   1BFB 7E                 8929 	.db #0x7E
   1BFC 33                 8930 	.db #0x33
   1BFD 88                 8931 	.db #0x88
   1BFE 20                 8932 	.db #0x20
   1BFF 79                 8933 	.db #0x79
   1C00 36                 8934 	.db #0x36
   1C01 4A                 8935 	.db #0x4A
   1C02 3E                 8936 	.db #0x3E
   1C03 5A                 8937 	.db #0x5A
   1C04 B6                 8938 	.db #0xB6
   1C05 A0                 8939 	.db #0xA0
   1C06 8B                 8940 	.db #0x8B
   1C07 29                 8941 	.db #0x29
   1C08 67                 8942 	.db #0x67
   1C09 68                 8943 	.db #0x68
   1C0A 07                 8944 	.db #0x07
   1C0B 52                 8945 	.db #0x52
   1C0C D6                 8946 	.db #0xD6
   1C0D B1                 8947 	.db #0xB1
   1C0E 2E                 8948 	.db #0x2E
   1C0F D5                 8949 	.db #0xD5
   1C10 41                 8950 	.db #0x41
   1C11 F6                 8951 	.db #0xF6
   1C12 15                 8952 	.db #0x15
   1C13 50                 8953 	.db #0x50
   1C14 AA                 8954 	.db #0xAA
   1C15 5B                 8955 	.db #0x5B
   1C16 21                 8956 	.db #0x21
   1C17 A2                 8957 	.db #0xA2
   1C18 99                 8958 	.db #0x99
   1C19 1C                 8959 	.db #0x1C
   1C1A 9C                 8960 	.db #0x9C
   1C1B FC                 8961 	.db #0xFC
   1C1C 21                 8962 	.db #0x21
   1C1D 90                 8963 	.db #0x90
   1C1E E2                 8964 	.db #0xE2
   1C1F 9A                 8965 	.db #0x9A
   1C20 0A                 8966 	.db #0x0A
   1C21 2B                 8967 	.db #0x2B
   1C22 C8                 8968 	.db #0xC8
   1C23 DD                 8969 	.db #0xDD
   1C24 2E                 8970 	.db #0x2E
   1C25 E2                 8971 	.db #0xE2
   1C26 97                 8972 	.db #0x97
   1C27 3A                 8973 	.db #0x3A
   1C28 B8                 8974 	.db #0xB8
   1C29 CC                 8975 	.db #0xCC
   1C2A 88                 8976 	.db #0x88
   1C2B C5                 8977 	.db #0xC5
   1C2C E1                 8978 	.db #0xE1
   1C2D 64                 8979 	.db #0x64
   1C2E 1F                 8980 	.db #0x1F
   1C2F C5                 8981 	.db #0xC5
   1C30 DD                 8982 	.db #0xDD
   1C31 0E                 8983 	.db #0x0E
   1C32 37                 8984 	.db #0x37
   1C33 10                 8985 	.db #0x10
   1C34 5C                 8986 	.db #0x5C
   1C35 65                 8987 	.db #0x65
   1C36 58                 8988 	.db #0x58
   1C37 F7                 8989 	.db #0xF7
   1C38 AC                 8990 	.db #0xAC
   1C39 30                 8991 	.db #0x30
   1C3A FE                 8992 	.db #0xFE
   1C3B E1                 8993 	.db #0xE1
   1C3C 65                 8994 	.db #0x65
   1C3D 4E                 8995 	.db #0x4E
   1C3E FB                 8996 	.db #0xFB
   1C3F FA                 8997 	.db #0xFA
   1C40 29                 8998 	.db #0x29
   1C41 42                 8999 	.db #0x42
   1C42 5A                 9000 	.db #0x5A
   1C43 1B                 9001 	.db #0x1B
   1C44 4F                 9002 	.db #0x4F
   1C45 64                 9003 	.db #0x64
   1C46 A4                 9004 	.db #0xA4
   1C47 73                 9005 	.db #0x73
   1C48 50                 9006 	.db #0x50
   1C49 9E                 9007 	.db #0x9E
   1C4A 16                 9008 	.db #0x16
   1C4B F4                 9009 	.db #0xF4
   1C4C C4                 9010 	.db #0xC4
   1C4D 24                 9011 	.db #0x24
   1C4E D3                 9012 	.db #0xD3
   1C4F BC                 9013 	.db #0xBC
   1C50 18                 9014 	.db #0x18
   1C51 69                 9015 	.db #0x69
   1C52 A7                 9016 	.db #0xA7
   1C53 92                 9017 	.db #0x92
   1C54 F4                 9018 	.db #0xF4
   1C55 13                 9019 	.db #0x13
   1C56 3A                 9020 	.db #0x3A
   1C57 9B                 9021 	.db #0x9B
   1C58 23                 9022 	.db #0x23
   1C59 11                 9023 	.db #0x11
   1C5A 32                 9024 	.db #0x32
   1C5B 1B                 9025 	.db #0x1B
   1C5C E6                 9026 	.db #0xE6
   1C5D 23                 9027 	.db #0x23
   1C5E 38                 9028 	.db #0x38
   1C5F DC                 9029 	.db #0xDC
   1C60 3B                 9030 	.db #0x3B
   1C61 16                 9031 	.db #0x16
   1C62 9D                 9032 	.db #0x9D
   1C63 C0                 9033 	.db #0xC0
   1C64 B6                 9034 	.db #0xB6
   1C65 1C                 9035 	.db #0x1C
   1C66 60                 9036 	.db #0x60
   1C67 1E                 9037 	.db #0x1E
   1C68 DB                 9038 	.db #0xDB
   1C69 9B                 9039 	.db #0x9B
   1C6A 5F                 9040 	.db #0x5F
   1C6B 2D                 9041 	.db #0x2D
   1C6C 11                 9042 	.db #0x11
   1C6D EA                 9043 	.db #0xEA
   1C6E 9F                 9044 	.db #0x9F
   1C6F 07                 9045 	.db #0x07
   1C70 03                 9046 	.db #0x03
   1C71 BB                 9047 	.db #0xBB
   1C72 3B                 9048 	.db #0x3B
   1C73 3B                 9049 	.db #0x3B
   1C74 DD                 9050 	.db #0xDD
   1C75 39                 9051 	.db #0x39
   1C76 62                 9052 	.db #0x62
   1C77 B9                 9053 	.db #0xB9
   1C78 59                 9054 	.db #0x59
   1C79 DB                 9055 	.db #0xDB
   1C7A 36                 9056 	.db #0x36
   1C7B BC                 9057 	.db #0xBC
   1C7C D3                 9058 	.db #0xD3
   1C7D B6                 9059 	.db #0xB6
   1C7E 7A                 9060 	.db #0x7A
   1C7F CF                 9061 	.db #0xCF
   1C80 4E                 9062 	.db #0x4E
   1C81 F3                 9063 	.db #0xF3
   1C82 95                 9064 	.db #0x95
   1C83 80                 9065 	.db #0x80
   1C84 3B                 9066 	.db #0x3B
   1C85 89                 9067 	.db #0x89
   1C86 5D                 9068 	.db #0x5D
   1C87 9C                 9069 	.db #0x9C
   1C88 0A                 9070 	.db #0x0A
   1C89 0D                 9071 	.db #0x0D
   1C8A 0D                 9072 	.db #0x0D
   1C8B 53                 9073 	.db #0x53
   1C8C D3                 9074 	.db #0xD3
   1C8D 6B                 9075 	.db #0x6B
   1C8E EC                 9076 	.db #0xEC
   1C8F 87                 9077 	.db #0x87
   1C90 5D                 9078 	.db #0x5D
   1C91 E2                 9079 	.db #0xE2
   1C92 17                 9080 	.db #0x17
   1C93 41                 9081 	.db #0x41
   1C94 85                 9082 	.db #0x85
   1C95 0A                 9083 	.db #0x0A
   1C96 DE                 9084 	.db #0xDE
   1C97 8B                 9085 	.db #0x8B
   1C98 37                 9086 	.db #0x37
   1C99 7B                 9087 	.db #0x7B
   1C9A 6D                 9088 	.db #0x6D
   1C9B 5C                 9089 	.db #0x5C
   1C9C 7A                 9090 	.db #0x7A
   1C9D 36                 9091 	.db #0x36
   1C9E 6E                 9092 	.db #0x6E
   1C9F 0D                 9093 	.db #0x0D
   1CA0 93                 9094 	.db #0x93
   1CA1 4D                 9095 	.db #0x4D
   1CA2 8B                 9096 	.db #0x8B
   1CA3 7F                 9097 	.db #0x7F
   1CA4 D1                 9098 	.db #0xD1
   1CA5 78                 9099 	.db #0x78
   1CA6 03                 9100 	.db #0x03
   1CA7 2C                 9101 	.db #0x2C
   1CA8 F2                 9102 	.db #0xF2
   1CA9 D7                 9103 	.db #0xD7
   1CAA E2                 9104 	.db #0xE2
   1CAB 31                 9105 	.db #0x31
   1CAC 83                 9106 	.db #0x83
   1CAD 5C                 9107 	.db #0x5C
   1CAE EE                 9108 	.db #0xEE
   1CAF 7D                 9109 	.db #0x7D
   1CB0 C9                 9110 	.db #0xC9
   1CB1 FE                 9111 	.db #0xFE
   1CB2 C9                 9112 	.db #0xC9
   1CB3 B5                 9113 	.db #0xB5
   1CB4 F7                 9114 	.db #0xF7
   1CB5 9D                 9115 	.db #0x9D
   1CB6 12                 9116 	.db #0x12
   1CB7 5A                 9117 	.db #0x5A
   1CB8 48                 9118 	.db #0x48
   1CB9 FC                 9119 	.db #0xFC
   1CBA 26                 9120 	.db #0x26
   1CBB 88                 9121 	.db #0x88
   1CBC 46                 9122 	.db #0x46
   1CBD 04                 9123 	.db #0x04
   1CBE FA                 9124 	.db #0xFA
   1CBF 67                 9125 	.db #0x67
   1CC0 71                 9126 	.db #0x71
   1CC1 08                 9127 	.db #0x08
   1CC2 7C                 9128 	.db #0x7C
   1CC3 46                 9129 	.db #0x46
   1CC4 78                 9130 	.db #0x78
   1CC5 A1                 9131 	.db #0xA1
   1CC6 6B                 9132 	.db #0x6B
   1CC7 0B                 9133 	.db #0x0B
   1CC8 54                 9134 	.db #0x54
   1CC9 B0                 9135 	.db #0xB0
   1CCA AD                 9136 	.db #0xAD
   1CCB 33                 9137 	.db #0x33
   1CCC CF                 9138 	.db #0xCF
   1CCD 91                 9139 	.db #0x91
   1CCE 0E                 9140 	.db #0x0E
   1CCF 97                 9141 	.db #0x97
   1CD0 3C                 9142 	.db #0x3C
   1CD1 53                 9143 	.db #0x53
   1CD2 A4                 9144 	.db #0xA4
   1CD3 C4                 9145 	.db #0xC4
   1CD4 39                 9146 	.db #0x39
   1CD5 35                 9147 	.db #0x35
   1CD6 1A                 9148 	.db #0x1A
   1CD7 30                 9149 	.db #0x30
   1CD8 4D                 9150 	.db #0x4D
   1CD9 3F                 9151 	.db #0x3F
   1CDA D2                 9152 	.db #0xD2
   1CDB 53                 9153 	.db #0x53
   1CDC 5E                 9154 	.db #0x5E
   1CDD B8                 9155 	.db #0xB8
   1CDE 1B                 9156 	.db #0x1B
   1CDF 84                 9157 	.db #0x84
   1CE0 61                 9158 	.db #0x61
   1CE1 23                 9159 	.db #0x23
   1CE2 59                 9160 	.db #0x59
   1CE3 FD                 9161 	.db #0xFD
   1CE4 D7                 9162 	.db #0xD7
   1CE5 7E                 9163 	.db #0x7E
   1CE6 E7                 9164 	.db #0xE7
   1CE7 B3                 9165 	.db #0xB3
   1CE8 20                 9166 	.db #0x20
   1CE9 9F                 9167 	.db #0x9F
   1CEA 97                 9168 	.db #0x97
   1CEB DD                 9169 	.db #0xDD
   1CEC A7                 9170 	.db #0xA7
   1CED 56                 9171 	.db #0x56
   1CEE F5                 9172 	.db #0xF5
   1CEF D8                 9173 	.db #0xD8
   1CF0 69                 9174 	.db #0x69
   1CF1 26                 9175 	.db #0x26
   1CF2 F8                 9176 	.db #0xF8
   1CF3 96                 9177 	.db #0x96
   1CF4 2D                 9178 	.db #0x2D
   1CF5 8C                 9179 	.db #0x8C
   1CF6 22                 9180 	.db #0x22
   1CF7 CC                 9181 	.db #0xCC
   1CF8 B8                 9182 	.db #0xB8
   1CF9 8F                 9183 	.db #0x8F
   1CFA AC                 9184 	.db #0xAC
   1CFB 7D                 9185 	.db #0x7D
   1CFC A9                 9186 	.db #0xA9
   1CFD 74                 9187 	.db #0x74
   1CFE C2                 9188 	.db #0xC2
   1CFF 07                 9189 	.db #0x07
   1D00 C9                 9190 	.db #0xC9
   1D01 82                 9191 	.db #0x82
   1D02 CE                 9192 	.db #0xCE
   1D03 89                 9193 	.db #0x89
   1D04 99                 9194 	.db #0x99
   1D05 74                 9195 	.db #0x74
   1D06 59                 9196 	.db #0x59
   1D07 5A                 9197 	.db #0x5A
   1D08 4A                 9198 	.db #0x4A
   1D09 8A                 9199 	.db #0x8A
   1D0A 55                 9200 	.db #0x55
   1D0B 7F                 9201 	.db #0x7F
   1D0C E3                 9202 	.db #0xE3
   1D0D 80                 9203 	.db #0x80
   1D0E 41                 9204 	.db #0x41
   1D0F AF                 9205 	.db #0xAF
   1D10 D6                 9206 	.db #0xD6
   1D11 83                 9207 	.db #0x83
   1D12 64                 9208 	.db #0x64
   1D13 B1                 9209 	.db #0xB1
   1D14 5F                 9210 	.db #0x5F
   1D15 BF                 9211 	.db #0xBF
   1D16 69                 9212 	.db #0x69
   1D17 DF                 9213 	.db #0xDF
   1D18 B9                 9214 	.db #0xB9
   1D19 75                 9215 	.db #0x75
   1D1A 84                 9216 	.db #0x84
   1D1B 99                 9217 	.db #0x99
   1D1C 58                 9218 	.db #0x58
   1D1D A9                 9219 	.db #0xA9
   1D1E CD                 9220 	.db #0xCD
   1D1F 14                 9221 	.db #0x14
   1D20 C6                 9222 	.db #0xC6
   1D21 47                 9223 	.db #0x47
   1D22 31                 9224 	.db #0x31
   1D23 7E                 9225 	.db #0x7E
   1D24 8C                 9226 	.db #0x8C
   1D25 4D                 9227 	.db #0x4D
   1D26 37                 9228 	.db #0x37
   1D27 9D                 9229 	.db #0x9D
   1D28 3A                 9230 	.db #0x3A
   1D29 7A                 9231 	.db #0x7A
   1D2A 99                 9232 	.db #0x99
   1D2B 97                 9233 	.db #0x97
   1D2C EC                 9234 	.db #0xEC
   1D2D 78                 9235 	.db #0x78
   1D2E 76                 9236 	.db #0x76
   1D2F 72                 9237 	.db #0x72
   1D30 75                 9238 	.db #0x75
   1D31 54                 9239 	.db #0x54
   1D32 28                 9240 	.db #0x28
   1D33 80                 9241 	.db #0x80
   1D34 2E                 9242 	.db #0x2E
   1D35 E9                 9243 	.db #0xE9
   1D36 71                 9244 	.db #0x71
   1D37 10                 9245 	.db #0x10
   1D38 8E                 9246 	.db #0x8E
   1D39 26                 9247 	.db #0x26
   1D3A 5A                 9248 	.db #0x5A
   1D3B 28                 9249 	.db #0x28
   1D3C 24                 9250 	.db #0x24
   1D3D 95                 9251 	.db #0x95
   1D3E C0                 9252 	.db #0xC0
   1D3F 44                 9253 	.db #0x44
   1D40 AF                 9254 	.db #0xAF
   1D41 83                 9255 	.db #0x83
   1D42 36                 9256 	.db #0x36
   1D43 4A                 9257 	.db #0x4A
   1D44 87                 9258 	.db #0x87
   1D45 26                 9259 	.db #0x26
   1D46 A1                 9260 	.db #0xA1
   1D47 82                 9261 	.db #0x82
   1D48 3C                 9262 	.db #0x3C
   1D49 13                 9263 	.db #0x13
   1D4A 70                 9264 	.db #0x70
   1D4B A3                 9265 	.db #0xA3
   1D4C FA                 9266 	.db #0xFA
   1D4D ED                 9267 	.db #0xED
   1D4E 24                 9268 	.db #0x24
   1D4F BB                 9269 	.db #0xBB
   1D50 08                 9270 	.db #0x08
   1D51 CC                 9271 	.db #0xCC
   1D52 2B                 9272 	.db #0x2B
   1D53 79                 9273 	.db #0x79
   1D54 79                 9274 	.db #0x79
   1D55 47                 9275 	.db #0x47
   1D56 DE                 9276 	.db #0xDE
   1D57 D1                 9277 	.db #0xD1
   1D58 FC                 9278 	.db #0xFC
   1D59 C2                 9279 	.db #0xC2
   1D5A 5B                 9280 	.db #0x5B
   1D5B E0                 9281 	.db #0xE0
   1D5C 5F                 9282 	.db #0x5F
   1D5D 96                 9283 	.db #0x96
   1D5E CB                 9284 	.db #0xCB
   1D5F 6B                 9285 	.db #0x6B
   1D60 C7                 9286 	.db #0xC7
   1D61 4C                 9287 	.db #0x4C
   1D62 45                 9288 	.db #0x45
   1D63 98                 9289 	.db #0x98
   1D64 7E                 9290 	.db #0x7E
   1D65 2F                 9291 	.db #0x2F
   1D66 01                 9292 	.db #0x01
   1D67 4A                 9293 	.db #0x4A
   1D68 BE                 9294 	.db #0xBE
   1D69 4E                 9295 	.db #0x4E
   1D6A FE                 9296 	.db #0xFE
   1D6B 53                 9297 	.db #0x53
   1D6C 3A                 9298 	.db #0x3A
   1D6D DA                 9299 	.db #0xDA
   1D6E 57                 9300 	.db #0x57
   1D6F BB                 9301 	.db #0xBB
   1D70 9B                 9302 	.db #0x9B
   1D71 98                 9303 	.db #0x98
   1D72 DD                 9304 	.db #0xDD
   1D73 3E                 9305 	.db #0x3E
   1D74 47                 9306 	.db #0x47
   1D75 BA                 9307 	.db #0xBA
   1D76 4A                 9308 	.db #0x4A
   1D77 DA                 9309 	.db #0xDA
   1D78 BB                 9310 	.db #0xBB
   1D79 C5                 9311 	.db #0xC5
   1D7A 1A                 9312 	.db #0x1A
   1D7B 0B                 9313 	.db #0x0B
   1D7C 2A                 9314 	.db #0x2A
   1D7D 97                 9315 	.db #0x97
   1D7E 32                 9316 	.db #0x32
   1D7F EB                 9317 	.db #0xEB
   1D80 F2                 9318 	.db #0xF2
   1D81 7F                 9319 	.db #0x7F
   1D82 2A                 9320 	.db #0x2A
   1D83 A9                 9321 	.db #0xA9
   1D84 C7                 9322 	.db #0xC7
   1D85 65                 9323 	.db #0x65
   1D86 1B                 9324 	.db #0x1B
   1D87 94                 9325 	.db #0x94
   1D88 87                 9326 	.db #0x87
   1D89 61                 9327 	.db #0x61
   1D8A F2                 9328 	.db #0xF2
   1D8B A1                 9329 	.db #0xA1
   1D8C 08                 9330 	.db #0x08
   1D8D A8                 9331 	.db #0xA8
   1D8E BC                 9332 	.db #0xBC
   1D8F BE                 9333 	.db #0xBE
   1D90 F1                 9334 	.db #0xF1
   1D91 F0                 9335 	.db #0xF0
   1D92 31                 9336 	.db #0x31
   1D93 EE                 9337 	.db #0xEE
   1D94 27                 9338 	.db #0x27
   1D95 F6                 9339 	.db #0xF6
   1D96 DF                 9340 	.db #0xDF
   1D97 0D                 9341 	.db #0x0D
   1D98 19                 9342 	.db #0x19
   1D99 DC                 9343 	.db #0xDC
   1D9A 33                 9344 	.db #0x33
   1D9B 0F                 9345 	.db #0x0F
   1D9C 86                 9346 	.db #0x86
   1D9D B5                 9347 	.db #0xB5
   1D9E FA                 9348 	.db #0xFA
   1D9F 8B                 9349 	.db #0x8B
   1DA0 4B                 9350 	.db #0x4B
   1DA1 CE                 9351 	.db #0xCE
   1DA2 28                 9352 	.db #0x28
   1DA3 97                 9353 	.db #0x97
   1DA4 36                 9354 	.db #0x36
   1DA5 FC                 9355 	.db #0xFC
   1DA6 B5                 9356 	.db #0xB5
   1DA7 C6                 9357 	.db #0xC6
   1DA8 7F                 9358 	.db #0x7F
   1DA9 D9                 9359 	.db #0xD9
   1DAA FC                 9360 	.db #0xFC
   1DAB 2D                 9361 	.db #0x2D
   1DAC 6B                 9362 	.db #0x6B
   1DAD 29                 9363 	.db #0x29
   1DAE 7F                 9364 	.db #0x7F
   1DAF 50                 9365 	.db #0x50
   1DB0 E5                 9366 	.db #0xE5
   1DB1 0A                 9367 	.db #0x0A
   1DB2 37                 9368 	.db #0x37
   1DB3 A4                 9369 	.db #0xA4
   1DB4 82                 9370 	.db #0x82
   1DB5 CD                 9371 	.db #0xCD
   1DB6 BE                 9372 	.db #0xBE
   1DB7 FC                 9373 	.db #0xFC
   1DB8 60                 9374 	.db #0x60
   1DB9 A5                 9375 	.db #0xA5
   1DBA A7                 9376 	.db #0xA7
   1DBB 49                 9377 	.db #0x49
   1DBC 87                 9378 	.db #0x87
   1DBD B6                 9379 	.db #0xB6
   1DBE FB                 9380 	.db #0xFB
   1DBF D1                 9381 	.db #0xD1
   1DC0 69                 9382 	.db #0x69
   1DC1 84                 9383 	.db #0x84
   1DC2 AE                 9384 	.db #0xAE
   1DC3 A5                 9385 	.db #0xA5
   1DC4 7F                 9386 	.db #0x7F
   1DC5 5C                 9387 	.db #0x5C
   1DC6 21                 9388 	.db #0x21
   1DC7 A2                 9389 	.db #0xA2
   1DC8 25                 9390 	.db #0x25
   1DC9 9E                 9391 	.db #0x9E
   1DCA 66                 9392 	.db #0x66
   1DCB 70                 9393 	.db #0x70
   1DCC C4                 9394 	.db #0xC4
   1DCD EC                 9395 	.db #0xEC
   1DCE CB                 9396 	.db #0xCB
   1DCF 4E                 9397 	.db #0x4E
   1DD0 5E                 9398 	.db #0x5E
   1DD1 EF                 9399 	.db #0xEF
   1DD2 7F                 9400 	.db #0x7F
   1DD3 6F                 9401 	.db #0x6F
   1DD4 FE                 9402 	.db #0xFE
   1DD5 CC                 9403 	.db #0xCC
   1DD6 FC                 9404 	.db #0xFC
   1DD7 65                 9405 	.db #0x65
   1DD8 11                 9406 	.db #0x11
   1DD9 AD                 9407 	.db #0xAD
   1DDA 2A                 9408 	.db #0x2A
   1DDB E1                 9409 	.db #0xE1
   1DDC 70                 9410 	.db #0x70
   1DDD F2                 9411 	.db #0xF2
   1DDE 9A                 9412 	.db #0x9A
   1DDF F2                 9413 	.db #0xF2
   1DE0 9E                 9414 	.db #0x9E
   1DE1 04                 9415 	.db #0x04
   1DE2 09                 9416 	.db #0x09
   1DE3 BB                 9417 	.db #0xBB
   1DE4 3F                 9418 	.db #0x3F
   1DE5 9C                 9419 	.db #0x9C
   1DE6 2C                 9420 	.db #0x2C
   1DE7 33                 9421 	.db #0x33
   1DE8 1D                 9422 	.db #0x1D
   1DE9 15                 9423 	.db #0x15
   1DEA F7                 9424 	.db #0xF7
   1DEB 76                 9425 	.db #0x76
   1DEC 3B                 9426 	.db #0x3B
   1DED 87                 9427 	.db #0x87
   1DEE 6B                 9428 	.db #0x6B
   1DEF 36                 9429 	.db #0x36
   1DF0 C8                 9430 	.db #0xC8
   1DF1 92                 9431 	.db #0x92
   1DF2 A1                 9432 	.db #0xA1
   1DF3 09                 9433 	.db #0x09
   1DF4 BC                 9434 	.db #0xBC
   1DF5 6E                 9435 	.db #0x6E
   1DF6 F8                 9436 	.db #0xF8
   1DF7 AA                 9437 	.db #0xAA
   1DF8 D6                 9438 	.db #0xD6
   1DF9 9C                 9439 	.db #0x9C
   1DFA 8F                 9440 	.db #0x8F
   1DFB DF                 9441 	.db #0xDF
   1DFC C4                 9442 	.db #0xC4
   1DFD 53                 9443 	.db #0x53
   1DFE 5A                 9444 	.db #0x5A
   1DFF 28                 9445 	.db #0x28
   1E00 AC                 9446 	.db #0xAC
   1E01 1E                 9447 	.db #0x1E
   1E02 D0                 9448 	.db #0xD0
   1E03 43                 9449 	.db #0x43
   1E04 81                 9450 	.db #0x81
   1E05 B7                 9451 	.db #0xB7
   1E06 A1                 9452 	.db #0xA1
   1E07 F4                 9453 	.db #0xF4
   1E08 AF                 9454 	.db #0xAF
   1E09 7F                 9455 	.db #0x7F
   1E0A 34                 9456 	.db #0x34
   1E0B 46                 9457 	.db #0x46
   1E0C 1F                 9458 	.db #0x1F
   1E0D 89                 9459 	.db #0x89
   1E0E 15                 9460 	.db #0x15
   1E0F 7D                 9461 	.db #0x7D
   1E10 DB                 9462 	.db #0xDB
   1E11 7D                 9463 	.db #0x7D
   1E12 9D                 9464 	.db #0x9D
   1E13 C1                 9465 	.db #0xC1
   1E14 5D                 9466 	.db #0x5D
   1E15 88                 9467 	.db #0x88
   1E16 3E                 9468 	.db #0x3E
   1E17 E1                 9469 	.db #0xE1
   1E18 6F                 9470 	.db #0x6F
   1E19 68                 9471 	.db #0x68
   1E1A 89                 9472 	.db #0x89
   1E1B C9                 9473 	.db #0xC9
   1E1C 44                 9474 	.db #0x44
   1E1D 79                 9475 	.db #0x79
   1E1E 81                 9476 	.db #0x81
   1E1F 9E                 9477 	.db #0x9E
   1E20 9C                 9478 	.db #0x9C
   1E21 B4                 9479 	.db #0xB4
   1E22 7A                 9480 	.db #0x7A
   1E23 BD                 9481 	.db #0xBD
   1E24 59                 9482 	.db #0x59
   1E25 04                 9483 	.db #0x04
   1E26 F0                 9484 	.db #0xF0
   1E27 80                 9485 	.db #0x80
   1E28 B7                 9486 	.db #0xB7
   1E29 52                 9487 	.db #0x52
   1E2A D3                 9488 	.db #0xD3
   1E2B ED                 9489 	.db #0xED
   1E2C 7F                 9490 	.db #0x7F
   1E2D 89                 9491 	.db #0x89
   1E2E AD                 9492 	.db #0xAD
   1E2F 09                 9493 	.db #0x09
   1E30 7D                 9494 	.db #0x7D
   1E31 D9                 9495 	.db #0xD9
   1E32 E5                 9496 	.db #0xE5
   1E33 98                 9497 	.db #0x98
   1E34 BF                 9498 	.db #0xBF
   1E35 53                 9499 	.db #0x53
   1E36 F3                 9500 	.db #0xF3
   1E37 63                 9501 	.db #0x63
   1E38 7C                 9502 	.db #0x7C
   1E39 73                 9503 	.db #0x73
   1E3A 94                 9504 	.db #0x94
   1E3B 2A                 9505 	.db #0x2A
   1E3C DF                 9506 	.db #0xDF
   1E3D 78                 9507 	.db #0x78
   1E3E E9                 9508 	.db #0xE9
   1E3F 0E                 9509 	.db #0x0E
   1E40 4D                 9510 	.db #0x4D
   1E41 EA                 9511 	.db #0xEA
   1E42 82                 9512 	.db #0x82
   1E43 86                 9513 	.db #0x86
   1E44 A7                 9514 	.db #0xA7
   1E45 D7                 9515 	.db #0xD7
   1E46 96                 9516 	.db #0x96
   1E47 1C                 9517 	.db #0x1C
   1E48 68                 9518 	.db #0x68
   1E49 4B                 9519 	.db #0x4B
   1E4A 26                 9520 	.db #0x26
   1E4B 3B                 9521 	.db #0x3B
   1E4C 21                 9522 	.db #0x21
   1E4D CF                 9523 	.db #0xCF
   1E4E 45                 9524 	.db #0x45
   1E4F B8                 9525 	.db #0xB8
   1E50 82                 9526 	.db #0x82
   1E51 B8                 9527 	.db #0xB8
   1E52 68                 9528 	.db #0x68
   1E53 60                 9529 	.db #0x60
   1E54 77                 9530 	.db #0x77
   1E55 E8                 9531 	.db #0xE8
   1E56 B1                 9532 	.db #0xB1
   1E57 63                 9533 	.db #0x63
   1E58 EB                 9534 	.db #0xEB
   1E59 19                 9535 	.db #0x19
   1E5A AB                 9536 	.db #0xAB
   1E5B 57                 9537 	.db #0x57
   1E5C 35                 9538 	.db #0x35
   1E5D EC                 9539 	.db #0xEC
   1E5E 0F                 9540 	.db #0x0F
   1E5F 7B                 9541 	.db #0x7B
   1E60 91                 9542 	.db #0x91
   1E61 0C                 9543 	.db #0x0C
   1E62 B7                 9544 	.db #0xB7
   1E63 5B                 9545 	.db #0x5B
   1E64 54                 9546 	.db #0x54
   1E65 E8                 9547 	.db #0xE8
   1E66 0A                 9548 	.db #0x0A
   1E67 36                 9549 	.db #0x36
   1E68 CE                 9550 	.db #0xCE
   1E69 59                 9551 	.db #0x59
   1E6A 12                 9552 	.db #0x12
   1E6B 08                 9553 	.db #0x08
   1E6C 7F                 9554 	.db #0x7F
   1E6D 3B                 9555 	.db #0x3B
   1E6E B3                 9556 	.db #0xB3
   1E6F 63                 9557 	.db #0x63
   1E70 8E                 9558 	.db #0x8E
   1E71 AC                 9559 	.db #0xAC
   1E72 65                 9560 	.db #0x65
   1E73 15                 9561 	.db #0x15
   1E74 5D                 9562 	.db #0x5D
   1E75 E2                 9563 	.db #0xE2
   1E76 35                 9564 	.db #0x35
   1E77 1A                 9565 	.db #0x1A
   1E78 30                 9566 	.db #0x30
   1E79 3E                 9567 	.db #0x3E
   1E7A 85                 9568 	.db #0x85
   1E7B A5                 9569 	.db #0xA5
   1E7C F6                 9570 	.db #0xF6
   1E7D 1D                 9571 	.db #0x1D
   1E7E 0B                 9572 	.db #0x0B
   1E7F D2                 9573 	.db #0xD2
   1E80 9E                 9574 	.db #0x9E
   1E81 24                 9575 	.db #0x24
   1E82 50                 9576 	.db #0x50
   1E83 13                 9577 	.db #0x13
   1E84 2D                 9578 	.db #0x2D
   1E85 C3                 9579 	.db #0xC3
   1E86 24                 9580 	.db #0x24
   1E87 40                 9581 	.db #0x40
   1E88 CC                 9582 	.db #0xCC
   1E89 9C                 9583 	.db #0x9C
   1E8A AA                 9584 	.db #0xAA
   1E8B 57                 9585 	.db #0x57
   1E8C FB                 9586 	.db #0xFB
   1E8D 02                 9587 	.db #0x02
   1E8E 75                 9588 	.db #0x75
   1E8F EE                 9589 	.db #0xEE
   1E90 60                 9590 	.db #0x60
   1E91 9B                 9591 	.db #0x9B
   1E92 A1                 9592 	.db #0xA1
   1E93 C3                 9593 	.db #0xC3
   1E94 4B                 9594 	.db #0x4B
   1E95 22                 9595 	.db #0x22
   1E96 AB                 9596 	.db #0xAB
   1E97 67                 9597 	.db #0x67
   1E98 D7                 9598 	.db #0xD7
   1E99 E2                 9599 	.db #0xE2
   1E9A A8                 9600 	.db #0xA8
   1E9B 7C                 9601 	.db #0x7C
   1E9C E1                 9602 	.db #0xE1
   1E9D A2                 9603 	.db #0xA2
   1E9E D0                 9604 	.db #0xD0
   1E9F 19                 9605 	.db #0x19
   1EA0 5E                 9606 	.db #0x5E
   1EA1 46                 9607 	.db #0x46
   1EA2 42                 9608 	.db #0x42
   1EA3 AB                 9609 	.db #0xAB
   1EA4 34                 9610 	.db #0x34
   1EA5 4F                 9611 	.db #0x4F
   1EA6 21                 9612 	.db #0x21
   1EA7 80                 9613 	.db #0x80
   1EA8 3D                 9614 	.db #0x3D
   1EA9 CC                 9615 	.db #0xCC
   1EAA 11                 9616 	.db #0x11
   1EAB 61                 9617 	.db #0x61
   1EAC 0A                 9618 	.db #0x0A
   1EAD 41                 9619 	.db #0x41
   1EAE AA                 9620 	.db #0xAA
   1EAF 90                 9621 	.db #0x90
   1EB0 50                 9622 	.db #0x50
   1EB1 26                 9623 	.db #0x26
   1EB2 67                 9624 	.db #0x67
   1EB3 1A                 9625 	.db #0x1A
   1EB4 BB                 9626 	.db #0xBB
   1EB5 29                 9627 	.db #0x29
   1EB6 B7                 9628 	.db #0xB7
   1EB7 20                 9629 	.db #0x20
   1EB8 C0                 9630 	.db #0xC0
   1EB9 9F                 9631 	.db #0x9F
   1EBA F0                 9632 	.db #0xF0
   1EBB 8B                 9633 	.db #0x8B
   1EBC DD                 9634 	.db #0xDD
   1EBD FB                 9635 	.db #0xFB
   1EBE C6                 9636 	.db #0xC6
   1EBF C0                 9637 	.db #0xC0
   1EC0 A7                 9638 	.db #0xA7
   1EC1 A8                 9639 	.db #0xA8
   1EC2 88                 9640 	.db #0x88
   1EC3 71                 9641 	.db #0x71
   1EC4 31                 9642 	.db #0x31
   1EC5 7B                 9643 	.db #0x7B
   1EC6 E6                 9644 	.db #0xE6
   1EC7 04                 9645 	.db #0x04
   1EC8 7C                 9646 	.db #0x7C
   1EC9 82                 9647 	.db #0x82
   1ECA 66                 9648 	.db #0x66
   1ECB D4                 9649 	.db #0xD4
   1ECC AA                 9650 	.db #0xAA
   1ECD 2D                 9651 	.db #0x2D
   1ECE 75                 9652 	.db #0x75
   1ECF 09                 9653 	.db #0x09
   1ED0 57                 9654 	.db #0x57
   1ED1 CD                 9655 	.db #0xCD
   1ED2 9E                 9656 	.db #0x9E
   1ED3 12                 9657 	.db #0x12
   1ED4 5E                 9658 	.db #0x5E
   1ED5 8A                 9659 	.db #0x8A
   1ED6 01                 9660 	.db #0x01
   1ED7 4E                 9661 	.db #0x4E
   1ED8 7B                 9662 	.db #0x7B
   1ED9 21                 9663 	.db #0x21
   1EDA 16                 9664 	.db #0x16
   1EDB D0                 9665 	.db #0xD0
   1EDC 93                 9666 	.db #0x93
   1EDD 2E                 9667 	.db #0x2E
   1EDE 12                 9668 	.db #0x12
   1EDF DE                 9669 	.db #0xDE
   1EE0 7B                 9670 	.db #0x7B
   1EE1 36                 9671 	.db #0x36
   1EE2 92                 9672 	.db #0x92
   1EE3 75                 9673 	.db #0x75
   1EE4 05                 9674 	.db #0x05
   1EE5 D6                 9675 	.db #0xD6
   1EE6 20                 9676 	.db #0x20
   1EE7 45                 9677 	.db #0x45
   1EE8 FE                 9678 	.db #0xFE
   1EE9 35                 9679 	.db #0x35
   1EEA EC                 9680 	.db #0xEC
   1EEB 1C                 9681 	.db #0x1C
   1EEC 7B                 9682 	.db #0x7B
   1EED FF                 9683 	.db #0xFF
   1EEE 13                 9684 	.db #0x13
   1EEF 43                 9685 	.db #0x43
   1EF0 DD                 9686 	.db #0xDD
   1EF1 41                 9687 	.db #0x41
   1EF2 45                 9688 	.db #0x45
   1EF3 49                 9689 	.db #0x49
   1EF4 D1                 9690 	.db #0xD1
   1EF5 94                 9691 	.db #0x94
   1EF6 7B                 9692 	.db #0x7B
   1EF7 EC                 9693 	.db #0xEC
   1EF8 DE                 9694 	.db #0xDE
   1EF9 F1                 9695 	.db #0xF1
   1EFA AE                 9696 	.db #0xAE
   1EFB 63                 9697 	.db #0x63
   1EFC 55                 9698 	.db #0x55
   1EFD F8                 9699 	.db #0xF8
   1EFE 1B                 9700 	.db #0x1B
   1EFF 19                 9701 	.db #0x19
   1F00 E6                 9702 	.db #0xE6
   1F01 A4                 9703 	.db #0xA4
   1F02 7D                 9704 	.db #0x7D
   1F03 EC                 9705 	.db #0xEC
   1F04 34                 9706 	.db #0x34
   1F05 E0                 9707 	.db #0xE0
   1F06 89                 9708 	.db #0x89
   1F07 2B                 9709 	.db #0x2B
   1F08 ED                 9710 	.db #0xED
   1F09 9C                 9711 	.db #0x9C
   1F0A B8                 9712 	.db #0xB8
   1F0B A2                 9713 	.db #0xA2
   1F0C BD                 9714 	.db #0xBD
   1F0D 8C                 9715 	.db #0x8C
   1F0E B4                 9716 	.db #0xB4
   1F0F 42                 9717 	.db #0x42
   1F10 47                 9718 	.db #0x47
   1F11 7E                 9719 	.db #0x7E
   1F12 21                 9720 	.db #0x21
   1F13 01                 9721 	.db #0x01
   1F14 75                 9722 	.db #0x75
   1F15 A7                 9723 	.db #0xA7
   1F16 72                 9724 	.db #0x72
   1F17 5A                 9725 	.db #0x5A
   1F18 A6                 9726 	.db #0xA6
   1F19 01                 9727 	.db #0x01
   1F1A 9E                 9728 	.db #0x9E
   1F1B DC                 9729 	.db #0xDC
   1F1C 0A                 9730 	.db #0x0A
   1F1D 75                 9731 	.db #0x75
   1F1E A9                 9732 	.db #0xA9
   1F1F 0B                 9733 	.db #0x0B
   1F20 23                 9734 	.db #0x23
   1F21 FB                 9735 	.db #0xFB
   1F22 49                 9736 	.db #0x49
   1F23 99                 9737 	.db #0x99
   1F24 EF                 9738 	.db #0xEF
   1F25 56                 9739 	.db #0x56
   1F26 E1                 9740 	.db #0xE1
   1F27 BF                 9741 	.db #0xBF
   1F28 97                 9742 	.db #0x97
   1F29 BF                 9743 	.db #0xBF
   1F2A 66                 9744 	.db #0x66
   1F2B 08                 9745 	.db #0x08
   1F2C 0C                 9746 	.db #0x0C
   1F2D 2A                 9747 	.db #0x2A
   1F2E FE                 9748 	.db #0xFE
   1F2F B1                 9749 	.db #0xB1
   1F30 DE                 9750 	.db #0xDE
   1F31 CA                 9751 	.db #0xCA
   1F32 6A                 9752 	.db #0x6A
   1F33 A9                 9753 	.db #0xA9
   1F34 C0                 9754 	.db #0xC0
   1F35 B9                 9755 	.db #0xB9
   1F36 18                 9756 	.db #0x18
   1F37 04                 9757 	.db #0x04
   1F38 EA                 9758 	.db #0xEA
   1F39 93                 9759 	.db #0x93
   1F3A CB                 9760 	.db #0xCB
   1F3B E7                 9761 	.db #0xE7
   1F3C BA                 9762 	.db #0xBA
   1F3D F0                 9763 	.db #0xF0
   1F3E 19                 9764 	.db #0x19
   1F3F E6                 9765 	.db #0xE6
   1F40 82                 9766 	.db #0x82
   1F41 A6                 9767 	.db #0xA6
   1F42 24                 9768 	.db #0x24
   1F43 54                 9769 	.db #0x54
   1F44 58                 9770 	.db #0x58
   1F45 37                 9771 	.db #0x37
   1F46 52                 9772 	.db #0x52
   1F47 F8                 9773 	.db #0xF8
   1F48 87                 9774 	.db #0x87
   1F49 38                 9775 	.db #0x38
   1F4A 76                 9776 	.db #0x76
   1F4B 9B                 9777 	.db #0x9B
   1F4C B6                 9778 	.db #0xB6
   1F4D CB                 9779 	.db #0xCB
   1F4E 0D                 9780 	.db #0x0D
   1F4F 02                 9781 	.db #0x02
   1F50 97                 9782 	.db #0x97
   1F51 0F                 9783 	.db #0x0F
   1F52 31                 9784 	.db #0x31
   1F53 BB                 9785 	.db #0xBB
   1F54 02                 9786 	.db #0x02
   1F55 A4                 9787 	.db #0xA4
   1F56 D4                 9788 	.db #0xD4
   1F57 A1                 9789 	.db #0xA1
   1F58 EB                 9790 	.db #0xEB
   1F59 D0                 9791 	.db #0xD0
   1F5A 14                 9792 	.db #0x14
   1F5B 41                 9793 	.db #0x41
   1F5C FF                 9794 	.db #0xFF
   1F5D DF                 9795 	.db #0xDF
   1F5E A1                 9796 	.db #0xA1
   1F5F 1B                 9797 	.db #0x1B
   1F60 E2                 9798 	.db #0xE2
   1F61 D3                 9799 	.db #0xD3
   1F62 01                 9800 	.db #0x01
   1F63 83                 9801 	.db #0x83
   1F64 37                 9802 	.db #0x37
   1F65 41                 9803 	.db #0x41
   1F66 B6                 9804 	.db #0xB6
   1F67 8F                 9805 	.db #0x8F
   1F68 32                 9806 	.db #0x32
   1F69 84                 9807 	.db #0x84
   1F6A 56                 9808 	.db #0x56
   1F6B 2A                 9809 	.db #0x2A
   1F6C 94                 9810 	.db #0x94
   1F6D 56                 9811 	.db #0x56
   1F6E 41                 9812 	.db #0x41
   1F6F 97                 9813 	.db #0x97
   1F70 A7                 9814 	.db #0xA7
   1F71 8B                 9815 	.db #0x8B
   1F72 59                 9816 	.db #0x59
   1F73 13                 9817 	.db #0x13
   1F74 E6                 9818 	.db #0xE6
   1F75 F3                 9819 	.db #0xF3
   1F76 2B                 9820 	.db #0x2B
   1F77 06                 9821 	.db #0x06
   1F78 71                 9822 	.db #0x71
   1F79 2A                 9823 	.db #0x2A
   1F7A D6                 9824 	.db #0xD6
   1F7B 9C                 9825 	.db #0x9C
   1F7C 55                 9826 	.db #0x55
   1F7D C1                 9827 	.db #0xC1
   1F7E C8                 9828 	.db #0xC8
   1F7F 30                 9829 	.db #0x30
   1F80 0E                 9830 	.db #0x0E
   1F81 08                 9831 	.db #0x08
   1F82 6B                 9832 	.db #0x6B
   1F83 85                 9833 	.db #0x85
   1F84 C5                 9834 	.db #0xC5
   1F85 9E                 9835 	.db #0x9E
   1F86 56                 9836 	.db #0x56
   1F87 78                 9837 	.db #0x78
   1F88 BD                 9838 	.db #0xBD
   1F89 74                 9839 	.db #0x74
   1F8A 23                 9840 	.db #0x23
   1F8B 5E                 9841 	.db #0x5E
   1F8C 41                 9842 	.db #0x41
   1F8D CE                 9843 	.db #0xCE
   1F8E 02                 9844 	.db #0x02
   1F8F 5C                 9845 	.db #0x5C
   1F90 13                 9846 	.db #0x13
   1F91 2F                 9847 	.db #0x2F
   1F92 3A                 9848 	.db #0x3A
   1F93 54                 9849 	.db #0x54
   1F94 40                 9850 	.db #0x40
   1F95 8B                 9851 	.db #0x8B
   1F96 0E                 9852 	.db #0x0E
   1F97 BA                 9853 	.db #0xBA
   1F98 77                 9854 	.db #0x77
   1F99 E0                 9855 	.db #0xE0
   1F9A 09                 9856 	.db #0x09
   1F9B C8                 9857 	.db #0xC8
   1F9C 92                 9858 	.db #0x92
   1F9D C9                 9859 	.db #0xC9
   1F9E 07                 9860 	.db #0x07
   1F9F 80                 9861 	.db #0x80
   1FA0 01                 9862 	.db #0x01
   1FA1 8F                 9863 	.db #0x8F
   1FA2 CD                 9864 	.db #0xCD
   1FA3 BB                 9865 	.db #0xBB
   1FA4 B3                 9866 	.db #0xB3
   1FA5 89                 9867 	.db #0x89
   1FA6 0D                 9868 	.db #0x0D
   1FA7 AE                 9869 	.db #0xAE
   1FA8 A5                 9870 	.db #0xA5
   1FA9 E6                 9871 	.db #0xE6
   1FAA 52                 9872 	.db #0x52
   1FAB BC                 9873 	.db #0xBC
   1FAC 3E                 9874 	.db #0x3E
   1FAD 74                 9875 	.db #0x74
   1FAE CD                 9876 	.db #0xCD
   1FAF FF                 9877 	.db #0xFF
   1FB0 69                 9878 	.db #0x69
   1FB1 1D                 9879 	.db #0x1D
   1FB2 4B                 9880 	.db #0x4B
   1FB3 E1                 9881 	.db #0xE1
   1FB4 17                 9882 	.db #0x17
   1FB5 91                 9883 	.db #0x91
   1FB6 D9                 9884 	.db #0xD9
   1FB7 E2                 9885 	.db #0xE2
   1FB8 B2                 9886 	.db #0xB2
   1FB9 4A                 9887 	.db #0x4A
   1FBA CF                 9888 	.db #0xCF
   1FBB 74                 9889 	.db #0x74
   1FBC F1                 9890 	.db #0xF1
   1FBD 6E                 9891 	.db #0x6E
   1FBE 64                 9892 	.db #0x64
   1FBF 5F                 9893 	.db #0x5F
   1FC0 36                 9894 	.db #0x36
   1FC1 C0                 9895 	.db #0xC0
   1FC2 6A                 9896 	.db #0x6A
   1FC3 46                 9897 	.db #0x46
   1FC4 76                 9898 	.db #0x76
   1FC5 D5                 9899 	.db #0xD5
   1FC6 AD                 9900 	.db #0xAD
   1FC7 A7                 9901 	.db #0xA7
   1FC8 08                 9902 	.db #0x08
   1FC9 A9                 9903 	.db #0xA9
   1FCA 0C                 9904 	.db #0x0C
   1FCB D8                 9905 	.db #0xD8
   1FCC F9                 9906 	.db #0xF9
   1FCD 13                 9907 	.db #0x13
   1FCE EE                 9908 	.db #0xEE
   1FCF 35                 9909 	.db #0x35
   1FD0 BB                 9910 	.db #0xBB
   1FD1 00                 9911 	.db #0x00
   1FD2 34                 9912 	.db #0x34
   1FD3 CF                 9913 	.db #0xCF
   1FD4 06                 9914 	.db #0x06
   1FD5 68                 9915 	.db #0x68
   1FD6 94                 9916 	.db #0x94
   1FD7 CE                 9917 	.db #0xCE
   1FD8 33                 9918 	.db #0x33
   1FD9 7E                 9919 	.db #0x7E
   1FDA 2E                 9920 	.db #0x2E
   1FDB 71                 9921 	.db #0x71
   1FDC 6B                 9922 	.db #0x6B
   1FDD 40                 9923 	.db #0x40
   1FDE FF                 9924 	.db #0xFF
   1FDF AE                 9925 	.db #0xAE
   1FE0 86                 9926 	.db #0x86
   1FE1 1A                 9927 	.db #0x1A
   1FE2 2E                 9928 	.db #0x2E
   1FE3 55                 9929 	.db #0x55
   1FE4 7F                 9930 	.db #0x7F
   1FE5 50                 9931 	.db #0x50
   1FE6 BA                 9932 	.db #0xBA
   1FE7 E0                 9933 	.db #0xE0
   1FE8 B4                 9934 	.db #0xB4
   1FE9 8C                 9935 	.db #0x8C
   1FEA 6E                 9936 	.db #0x6E
   1FEB BD                 9937 	.db #0xBD
   1FEC CF                 9938 	.db #0xCF
   1FED F7                 9939 	.db #0xF7
   1FEE C6                 9940 	.db #0xC6
   1FEF C4                 9941 	.db #0xC4
   1FF0 6C                 9942 	.db #0x6C
   1FF1 30                 9943 	.db #0x30
   1FF2 23                 9944 	.db #0x23
   1FF3 3B                 9945 	.db #0x3B
   1FF4 EB                 9946 	.db #0xEB
   1FF5 57                 9947 	.db #0x57
   1FF6 5D                 9948 	.db #0x5D
   1FF7 EC                 9949 	.db #0xEC
   1FF8 7E                 9950 	.db #0x7E
   1FF9 54                 9951 	.db #0x54
   1FFA F2                 9952 	.db #0xF2
   1FFB 6F                 9953 	.db #0x6F
   1FFC EC                 9954 	.db #0xEC
   1FFD 9B                 9955 	.db #0x9B
   1FFE 49                 9956 	.db #0x49
   1FFF 65                 9957 	.db #0x65
   2000 F5                 9958 	.db #0xF5
   2001 FA                 9959 	.db #0xFA
   2002 FC                 9960 	.db #0xFC
   2003 A6                 9961 	.db #0xA6
   2004 4F                 9962 	.db #0x4F
   2005 AE                 9963 	.db #0xAE
   2006 63                 9964 	.db #0x63
   2007 E1                 9965 	.db #0xE1
   2008 86                 9966 	.db #0x86
   2009 98                 9967 	.db #0x98
   200A 0D                 9968 	.db #0x0D
   200B BD                 9969 	.db #0xBD
   200C 81                 9970 	.db #0x81
   200D 4B                 9971 	.db #0x4B
   200E 62                 9972 	.db #0x62
   200F 22                 9973 	.db #0x22
   2010 EE                 9974 	.db #0xEE
   2011 5C                 9975 	.db #0x5C
   2012 F5                 9976 	.db #0xF5
   2013 05                 9977 	.db #0x05
   2014 4B                 9978 	.db #0x4B
   2015 04                 9979 	.db #0x04
   2016 7E                 9980 	.db #0x7E
   2017 CD                 9981 	.db #0xCD
   2018 D7                 9982 	.db #0xD7
   2019 4C                 9983 	.db #0x4C
   201A 09                 9984 	.db #0x09
   201B AB                 9985 	.db #0xAB
   201C 66                 9986 	.db #0x66
   201D 29                 9987 	.db #0x29
   201E F0                 9988 	.db #0xF0
   201F 83                 9989 	.db #0x83
   2020 DC                 9990 	.db #0xDC
   2021 8C                 9991 	.db #0x8C
   2022 EC                 9992 	.db #0xEC
   2023 76                 9993 	.db #0x76
   2024 C8                 9994 	.db #0xC8
   2025 1F                 9995 	.db #0x1F
   2026 86                 9996 	.db #0x86
   2027 88                 9997 	.db #0x88
   2028 6F                 9998 	.db #0x6F
   2029 5D                 9999 	.db #0x5D
   202A 36                10000 	.db #0x36
   202B 53                10001 	.db #0x53
   202C B1                10002 	.db #0xB1
   202D EE                10003 	.db #0xEE
   202E 02                10004 	.db #0x02
   202F 95                10005 	.db #0x95
   2030 3B                10006 	.db #0x3B
   2031 39                10007 	.db #0x39
   2032 34                10008 	.db #0x34
   2033 87                10009 	.db #0x87
   2034 95                10010 	.db #0x95
   2035 4A                10011 	.db #0x4A
   2036 FA                10012 	.db #0xFA
   2037 68                10013 	.db #0x68
   2038 F1                10014 	.db #0xF1
   2039 21                10015 	.db #0x21
   203A 41                10016 	.db #0x41
   203B 0F                10017 	.db #0x0F
   203C 53                10018 	.db #0x53
   203D A8                10019 	.db #0xA8
   203E 8C                10020 	.db #0x8C
   203F BF                10021 	.db #0xBF
   2040 C2                10022 	.db #0xC2
   2041 33                10023 	.db #0x33
   2042 56                10024 	.db #0x56
   2043 91                10025 	.db #0x91
   2044 73                10026 	.db #0x73
   2045 06                10027 	.db #0x06
   2046 0C                10028 	.db #0x0C
   2047 8F                10029 	.db #0x8F
   2048 FB                10030 	.db #0xFB
   2049 EE                10031 	.db #0xEE
   204A 3F                10032 	.db #0x3F
   204B 17                10033 	.db #0x17
   204C 89                10034 	.db #0x89
   204D E7                10035 	.db #0xE7
   204E E6                10036 	.db #0xE6
   204F BD                10037 	.db #0xBD
   2050 01                10038 	.db #0x01
   2051 6F                10039 	.db #0x6F
   2052 46                10040 	.db #0x46
   2053 F1                10041 	.db #0xF1
   2054 D9                10042 	.db #0xD9
   2055 8A                10043 	.db #0x8A
   2056 8C                10044 	.db #0x8C
   2057 F6                10045 	.db #0xF6
   2058 A8                10046 	.db #0xA8
   2059 C9                10047 	.db #0xC9
   205A 4D                10048 	.db #0x4D
   205B 4E                10049 	.db #0x4E
   205C 21                10050 	.db #0x21
   205D DF                10051 	.db #0xDF
   205E D9                10052 	.db #0xD9
   205F 77                10053 	.db #0x77
   2060 DE                10054 	.db #0xDE
   2061 CB                10055 	.db #0xCB
   2062 B2                10056 	.db #0xB2
   2063 05                10057 	.db #0x05
   2064 EF                10058 	.db #0xEF
   2065 33                10059 	.db #0x33
   2066 D1                10060 	.db #0xD1
   2067 CE                10061 	.db #0xCE
   2068 60                10062 	.db #0x60
   2069 21                10063 	.db #0x21
   206A 67                10064 	.db #0x67
   206B 0B                10065 	.db #0x0B
   206C 93                10066 	.db #0x93
   206D E0                10067 	.db #0xE0
   206E B0                10068 	.db #0xB0
   206F 20                10069 	.db #0x20
   2070 BA                10070 	.db #0xBA
   2071 6A                10071 	.db #0x6A
   2072 90                10072 	.db #0x90
   2073 2D                10073 	.db #0x2D
   2074 C2                10074 	.db #0xC2
   2075 8E                10075 	.db #0x8E
   2076 87                10076 	.db #0x87
   2077 F5                10077 	.db #0xF5
   2078 C2                10078 	.db #0xC2
   2079 11                10079 	.db #0x11
   207A E4                10080 	.db #0xE4
   207B 18                10081 	.db #0x18
   207C F6                10082 	.db #0xF6
   207D 88                10083 	.db #0x88
   207E 47                10084 	.db #0x47
   207F 07                10085 	.db #0x07
   2080 E3                10086 	.db #0xE3
   2081 48                10087 	.db #0x48
   2082 64                10088 	.db #0x64
   2083 3D                10089 	.db #0x3D
   2084 6B                10090 	.db #0x6B
   2085 F3                10091 	.db #0xF3
   2086 50                10092 	.db #0x50
   2087 31                10093 	.db #0x31
   2088 FE                10094 	.db #0xFE
   2089 65                10095 	.db #0x65
   208A 6E                10096 	.db #0x6E
   208B E0                10097 	.db #0xE0
   208C 18                10098 	.db #0x18
   208D 66                10099 	.db #0x66
   208E D5                10100 	.db #0xD5
   208F 7E                10101 	.db #0x7E
   2090 E7                10102 	.db #0xE7
   2091 44                10103 	.db #0x44
   2092 D1                10104 	.db #0xD1
   2093 66                10105 	.db #0x66
   2094 53                10106 	.db #0x53
   2095 16                10107 	.db #0x16
   2096 75                10108 	.db #0x75
   2097 13                10109 	.db #0x13
   2098 4B                10110 	.db #0x4B
   2099 04                10111 	.db #0x04
   209A F3                10112 	.db #0xF3
   209B DD                10113 	.db #0xDD
   209C 57                10114 	.db #0x57
   209D BF                10115 	.db #0xBF
   209E 38                10116 	.db #0x38
   209F 87                10117 	.db #0x87
   20A0 9A                10118 	.db #0x9A
   20A1 D9                10119 	.db #0xD9
   20A2 B8                10120 	.db #0xB8
   20A3 F4                10121 	.db #0xF4
   20A4 FB                10122 	.db #0xFB
   20A5 4C                10123 	.db #0x4C
   20A6 57                10124 	.db #0x57
   20A7 22                10125 	.db #0x22
   20A8 BD                10126 	.db #0xBD
   20A9 C1                10127 	.db #0xC1
   20AA D3                10128 	.db #0xD3
   20AB 73                10129 	.db #0x73
   20AC BC                10130 	.db #0xBC
   20AD E4                10131 	.db #0xE4
   20AE 15                10132 	.db #0x15
   20AF 0B                10133 	.db #0x0B
   20B0 2C                10134 	.db #0x2C
   20B1 08                10135 	.db #0x08
   20B2 C3                10136 	.db #0xC3
   20B3 D1                10137 	.db #0xD1
   20B4 60                10138 	.db #0x60
   20B5 58                10139 	.db #0x58
   20B6 45                10140 	.db #0x45
   20B7 8C                10141 	.db #0x8C
   20B8 7C                10142 	.db #0x7C
   20B9 2D                10143 	.db #0x2D
   20BA 62                10144 	.db #0x62
   20BB E5                10145 	.db #0xE5
   20BC 24                10146 	.db #0x24
   20BD 43                10147 	.db #0x43
   20BE 1B                10148 	.db #0x1B
   20BF C9                10149 	.db #0xC9
   20C0 1F                10150 	.db #0x1F
   20C1 A3                10151 	.db #0xA3
   20C2 48                10152 	.db #0x48
   20C3 0D                10153 	.db #0x0D
   20C4 D0                10154 	.db #0xD0
   20C5 4C                10155 	.db #0x4C
   20C6 B6                10156 	.db #0xB6
   20C7 3F                10157 	.db #0x3F
   20C8 FF                10158 	.db #0xFF
   20C9 F7                10159 	.db #0xF7
   20CA A9                10160 	.db #0xA9
   20CB B3                10161 	.db #0xB3
   20CC 88                10162 	.db #0x88
   20CD DD                10163 	.db #0xDD
   20CE 41                10164 	.db #0x41
   20CF 55                10165 	.db #0x55
   20D0 8A                10166 	.db #0x8A
   20D1 F1                10167 	.db #0xF1
   20D2 DA                10168 	.db #0xDA
   20D3 27                10169 	.db #0x27
   20D4 9E                10170 	.db #0x9E
   20D5 B1                10171 	.db #0xB1
   20D6 A1                10172 	.db #0xA1
   20D7 8B                10173 	.db #0x8B
   20D8 CF                10174 	.db #0xCF
   20D9 C1                10175 	.db #0xC1
   20DA B1                10176 	.db #0xB1
   20DB D1                10177 	.db #0xD1
   20DC A4                10178 	.db #0xA4
   20DD 33                10179 	.db #0x33
   20DE 2E                10180 	.db #0x2E
   20DF CF                10181 	.db #0xCF
   20E0 48                10182 	.db #0x48
   20E1 BB                10183 	.db #0xBB
   20E2 59                10184 	.db #0x59
   20E3 6D                10185 	.db #0x6D
   20E4 79                10186 	.db #0x79
   20E5 FD                10187 	.db #0xFD
   20E6 8B                10188 	.db #0x8B
   20E7 77                10189 	.db #0x77
   20E8 F2                10190 	.db #0xF2
   20E9 C5                10191 	.db #0xC5
   20EA 63                10192 	.db #0x63
   20EB 4A                10193 	.db #0x4A
   20EC 19                10194 	.db #0x19
   20ED 49                10195 	.db #0x49
   20EE 6C                10196 	.db #0x6C
   20EF C5                10197 	.db #0xC5
   20F0 83                10198 	.db #0x83
   20F1 5F                10199 	.db #0x5F
   20F2 D8                10200 	.db #0xD8
   20F3 C2                10201 	.db #0xC2
   20F4 F8                10202 	.db #0xF8
   20F5 19                10203 	.db #0x19
   20F6 7A                10204 	.db #0x7A
   20F7 E3                10205 	.db #0xE3
   20F8 E5                10206 	.db #0xE5
   20F9 AC                10207 	.db #0xAC
   20FA 68                10208 	.db #0x68
   20FB 93                10209 	.db #0x93
   20FC 18                10210 	.db #0x18
   20FD D9                10211 	.db #0xD9
   20FE 7E                10212 	.db #0x7E
   20FF 45                10213 	.db #0x45
   2100 BC                10214 	.db #0xBC
   2101 EB                10215 	.db #0xEB
   2102 B2                10216 	.db #0xB2
   2103 20                10217 	.db #0x20
   2104 EB                10218 	.db #0xEB
   2105 C2                10219 	.db #0xC2
   2106 A3                10220 	.db #0xA3
   2107 36                10221 	.db #0x36
   2108 7E                10222 	.db #0x7E
   2109 67                10223 	.db #0x67
   210A 43                10224 	.db #0x43
   210B BE                10225 	.db #0xBE
   210C D3                10226 	.db #0xD3
   210D BB                10227 	.db #0xBB
   210E 86                10228 	.db #0x86
   210F 7F                10229 	.db #0x7F
   2110 81                10230 	.db #0x81
   2111 C1                10231 	.db #0xC1
   2112 63                10232 	.db #0x63
   2113 64                10233 	.db #0x64
   2114 99                10234 	.db #0x99
   2115 2F                10235 	.db #0x2F
   2116 FB                10236 	.db #0xFB
   2117 56                10237 	.db #0x56
   2118 A0                10238 	.db #0xA0
   2119 0F                10239 	.db #0x0F
   211A 05                10240 	.db #0x05
   211B C0                10241 	.db #0xC0
   211C 01                10242 	.db #0x01
   211D 3F                10243 	.db #0x3F
   211E 6E                10244 	.db #0x6E
   211F 60                10245 	.db #0x60
   2120 94                10246 	.db #0x94
   2121 24                10247 	.db #0x24
   2122 09                10248 	.db #0x09
   2123 1D                10249 	.db #0x1D
   2124 A4                10250 	.db #0xA4
   2125 C0                10251 	.db #0xC0
   2126 A3                10252 	.db #0xA3
   2127 DD                10253 	.db #0xDD
   2128 2A                10254 	.db #0x2A
   2129 F7                10255 	.db #0xF7
   212A DC                10256 	.db #0xDC
   212B CD                10257 	.db #0xCD
   212C FE                10258 	.db #0xFE
   212D 84                10259 	.db #0x84
   212E FD                10260 	.db #0xFD
   212F 3B                10261 	.db #0x3B
   2130 B5                10262 	.db #0xB5
   2131 C9                10263 	.db #0xC9
   2132 75                10264 	.db #0x75
   2133 2A                10265 	.db #0x2A
   2134 E1                10266 	.db #0xE1
   2135 23                10267 	.db #0x23
   2136 6C                10268 	.db #0x6C
   2137 60                10269 	.db #0x60
   2138 9C                10270 	.db #0x9C
   2139 3B                10271 	.db #0x3B
   213A 05                10272 	.db #0x05
   213B D5                10273 	.db #0xD5
   213C 9B                10274 	.db #0x9B
   213D 06                10275 	.db #0x06
   213E 37                10276 	.db #0x37
   213F A9                10277 	.db #0xA9
   2140 DC                10278 	.db #0xDC
   2141 2D                10279 	.db #0x2D
   2142 BB                10280 	.db #0xBB
   2143 F8                10281 	.db #0xF8
   2144 1B                10282 	.db #0x1B
   2145 3D                10283 	.db #0x3D
   2146 AC                10284 	.db #0xAC
   2147 84                10285 	.db #0x84
   2148 5D                10286 	.db #0x5D
   2149 E7                10287 	.db #0xE7
   214A 8B                10288 	.db #0x8B
   214B 57                10289 	.db #0x57
   214C 72                10290 	.db #0x72
   214D CF                10291 	.db #0xCF
   214E 4C                10292 	.db #0x4C
   214F A1                10293 	.db #0xA1
   2150 24                10294 	.db #0x24
   2151 87                10295 	.db #0x87
   2152 2F                10296 	.db #0x2F
   2153 CE                10297 	.db #0xCE
   2154 24                10298 	.db #0x24
   2155 E1                10299 	.db #0xE1
   2156 FC                10300 	.db #0xFC
   2157 DA                10301 	.db #0xDA
   2158 73                10302 	.db #0x73
   2159 C1                10303 	.db #0xC1
   215A 86                10304 	.db #0x86
   215B BA                10305 	.db #0xBA
   215C 7E                10306 	.db #0x7E
   215D 9B                10307 	.db #0x9B
   215E 54                10308 	.db #0x54
   215F D3                10309 	.db #0xD3
   2160 21                10310 	.db #0x21
   2161 42                10311 	.db #0x42
   2162 E2                10312 	.db #0xE2
   2163 B7                10313 	.db #0xB7
   2164 6C                10314 	.db #0x6C
   2165 1E                10315 	.db #0x1E
   2166 4C                10316 	.db #0x4C
   2167 0E                10317 	.db #0x0E
   2168 05                10318 	.db #0x05
   2169 EB                10319 	.db #0xEB
   216A 9E                10320 	.db #0x9E
   216B DB                10321 	.db #0xDB
   216C 0F                10322 	.db #0x0F
   216D F8                10323 	.db #0xF8
   216E D7                10324 	.db #0xD7
   216F 0C                10325 	.db #0x0C
   2170 92                10326 	.db #0x92
   2171 26                10327 	.db #0x26
   2172 20                10328 	.db #0x20
   2173 D2                10329 	.db #0xD2
   2174 C4                10330 	.db #0xC4
   2175 4E                10331 	.db #0x4E
   2176 58                10332 	.db #0x58
   2177 04                10333 	.db #0x04
   2178 B4                10334 	.db #0xB4
   2179 5C                10335 	.db #0x5C
   217A 6C                10336 	.db #0x6C
   217B 19                10337 	.db #0x19
   217C 45                10338 	.db #0x45
   217D A7                10339 	.db #0xA7
   217E 4C                10340 	.db #0x4C
   217F 5E                10341 	.db #0x5E
   2180 27                10342 	.db #0x27
   2181 36                10343 	.db #0x36
   2182 31                10344 	.db #0x31
   2183 55                10345 	.db #0x55
   2184 0E                10346 	.db #0x0E
   2185 CC                10347 	.db #0xCC
   2186 FC                10348 	.db #0xFC
   2187 9F                10349 	.db #0x9F
   2188 32                10350 	.db #0x32
   2189 9C                10351 	.db #0x9C
   218A 1F                10352 	.db #0x1F
   218B 9C                10353 	.db #0x9C
   218C 7E                10354 	.db #0x7E
   218D 99                10355 	.db #0x99
   218E 81                10356 	.db #0x81
   218F 67                10357 	.db #0x67
   2190 E3                10358 	.db #0xE3
   2191 C7                10359 	.db #0xC7
   2192 28                10360 	.db #0x28
   2193 C8                10361 	.db #0xC8
   2194 44                10362 	.db #0x44
   2195 A3                10363 	.db #0xA3
   2196 27                10364 	.db #0x27
   2197 2B                10365 	.db #0x2B
   2198 A4                10366 	.db #0xA4
   2199 01                10367 	.db #0x01
   219A 10                10368 	.db #0x10
   219B 02                10369 	.db #0x02
   219C 9B                10370 	.db #0x9B
   219D 6A                10371 	.db #0x6A
   219E A6                10372 	.db #0xA6
   219F 4B                10373 	.db #0x4B
   21A0 D4                10374 	.db #0xD4
   21A1 7C                10375 	.db #0x7C
   21A2 7A                10376 	.db #0x7A
   21A3 13                10377 	.db #0x13
   21A4 E5                10378 	.db #0xE5
   21A5 4A                10379 	.db #0x4A
   21A6 B1                10380 	.db #0xB1
   21A7 D9                10381 	.db #0xD9
   21A8 6F                10382 	.db #0x6F
   21A9 71                10383 	.db #0x71
   21AA BE                10384 	.db #0xBE
   21AB 91                10385 	.db #0x91
   21AC C2                10386 	.db #0xC2
   21AD 0B                10387 	.db #0x0B
   21AE A3                10388 	.db #0xA3
   21AF 3A                10389 	.db #0x3A
   21B0 ED                10390 	.db #0xED
   21B1 BE                10391 	.db #0xBE
   21B2 B4                10392 	.db #0xB4
   21B3 E9                10393 	.db #0xE9
   21B4 59                10394 	.db #0x59
   21B5 1F                10395 	.db #0x1F
   21B6 DB                10396 	.db #0xDB
   21B7 33                10397 	.db #0x33
   21B8 CF                10398 	.db #0xCF
   21B9 17                10399 	.db #0x17
   21BA 92                10400 	.db #0x92
   21BB E0                10401 	.db #0xE0
   21BC 4F                10402 	.db #0x4F
   21BD 74                10403 	.db #0x74
   21BE 71                10404 	.db #0x71
   21BF 3D                10405 	.db #0x3D
   21C0 C3                10406 	.db #0xC3
   21C1 FE                10407 	.db #0xFE
   21C2 89                10408 	.db #0x89
   21C3 2C                10409 	.db #0x2C
   21C4 AC                10410 	.db #0xAC
   21C5 8D                10411 	.db #0x8D
   21C6 6A                10412 	.db #0x6A
   21C7 F7                10413 	.db #0xF7
   21C8 16                10414 	.db #0x16
   21C9 EC                10415 	.db #0xEC
   21CA 77                10416 	.db #0x77
   21CB 95                10417 	.db #0x95
   21CC B3                10418 	.db #0xB3
   21CD A9                10419 	.db #0xA9
   21CE 42                10420 	.db #0x42
   21CF C0                10421 	.db #0xC0
   21D0 B4                10422 	.db #0xB4
   21D1 6F                10423 	.db #0x6F
   21D2 AC                10424 	.db #0xAC
   21D3 78                10425 	.db #0x78
   21D4 6E                10426 	.db #0x6E
   21D5 02                10427 	.db #0x02
   21D6 33                10428 	.db #0x33
   21D7 BC                10429 	.db #0xBC
   21D8 A1                10430 	.db #0xA1
   21D9 A6                10431 	.db #0xA6
   21DA 47                10432 	.db #0x47
   21DB F4                10433 	.db #0xF4
   21DC 6D                10434 	.db #0x6D
   21DD CD                10435 	.db #0xCD
   21DE 41                10436 	.db #0x41
   21DF D4                10437 	.db #0xD4
   21E0 1B                10438 	.db #0x1B
   21E1 B9                10439 	.db #0xB9
   21E2 6B                10440 	.db #0x6B
   21E3 45                10441 	.db #0x45
   21E4 BC                10442 	.db #0xBC
   21E5 11                10443 	.db #0x11
   21E6 19                10444 	.db #0x19
   21E7 55                10445 	.db #0x55
   21E8 9C                10446 	.db #0x9C
   21E9 43                10447 	.db #0x43
   21EA 30                10448 	.db #0x30
   21EB FD                10449 	.db #0xFD
   21EC 6D                10450 	.db #0x6D
   21ED D8                10451 	.db #0xD8
   21EE 90                10452 	.db #0x90
   21EF CD                10453 	.db #0xCD
   21F0 95                10454 	.db #0x95
   21F1 DC                10455 	.db #0xDC
   21F2 F9                10456 	.db #0xF9
   21F3 09                10457 	.db #0x09
   21F4 D7                10458 	.db #0xD7
   21F5 31                10459 	.db #0x31
   21F6 80                10460 	.db #0x80
   21F7 49                10461 	.db #0x49
   21F8 DD                10462 	.db #0xDD
   21F9 BC                10463 	.db #0xBC
   21FA 69                10464 	.db #0x69
   21FB 09                10465 	.db #0x09
   21FC 50                10466 	.db #0x50
   21FD C0                10467 	.db #0xC0
   21FE 1D                10468 	.db #0x1D
   21FF DC                10469 	.db #0xDC
   2200 84                10470 	.db #0x84
   2201 09                10471 	.db #0x09
   2202 CA                10472 	.db #0xCA
   2203 68                10473 	.db #0x68
   2204 2F                10474 	.db #0x2F
   2205 0F                10475 	.db #0x0F
   2206 33                10476 	.db #0x33
   2207 15                10477 	.db #0x15
   2208 C7                10478 	.db #0xC7
   2209 71                10479 	.db #0x71
   220A 06                10480 	.db #0x06
   220B 56                10481 	.db #0x56
   220C FB                10482 	.db #0xFB
   220D B6                10483 	.db #0xB6
   220E ED                10484 	.db #0xED
   220F B4                10485 	.db #0xB4
   2210 DF                10486 	.db #0xDF
   2211 BF                10487 	.db #0xBF
   2212 00                10488 	.db #0x00
   2213 A1                10489 	.db #0xA1
   2214 73                10490 	.db #0x73
   2215 B3                10491 	.db #0xB3
   2216 13                10492 	.db #0x13
   2217 59                10493 	.db #0x59
   2218 B0                10494 	.db #0xB0
   2219 EB                10495 	.db #0xEB
   221A E0                10496 	.db #0xE0
   221B E7                10497 	.db #0xE7
   221C B0                10498 	.db #0xB0
   221D 72                10499 	.db #0x72
   221E 1A                10500 	.db #0x1A
   221F C0                10501 	.db #0xC0
   2220 45                10502 	.db #0x45
   2221 6F                10503 	.db #0x6F
   2222 13                10504 	.db #0x13
   2223 D3                10505 	.db #0xD3
   2224 10                10506 	.db #0x10
   2225 CD                10507 	.db #0xCD
   2226 22                10508 	.db #0x22
   2227 BB                10509 	.db #0xBB
   2228 23                10510 	.db #0x23
   2229 3E                10511 	.db #0x3E
   222A 9D                10512 	.db #0x9D
   222B 53                10513 	.db #0x53
   222C AA                10514 	.db #0xAA
   222D C6                10515 	.db #0xC6
   222E F5                10516 	.db #0xF5
   222F B1                10517 	.db #0xB1
   2230 5E                10518 	.db #0x5E
   2231 A4                10519 	.db #0xA4
   2232 47                10520 	.db #0x47
   2233 4F                10521 	.db #0x4F
   2234 32                10522 	.db #0x32
   2235 CB                10523 	.db #0xCB
   2236 43                10524 	.db #0x43
   2237 E8                10525 	.db #0xE8
   2238 4A                10526 	.db #0x4A
   2239 40                10527 	.db #0x40
   223A 0D                10528 	.db #0x0D
   223B 3B                10529 	.db #0x3B
   223C D4                10530 	.db #0xD4
   223D D0                10531 	.db #0xD0
   223E 00                10532 	.db #0x00
   223F E8                10533 	.db #0xE8
   2240 3B                10534 	.db #0x3B
   2241 BB                10535 	.db #0xBB
   2242 A1                10536 	.db #0xA1
   2243 E8                10537 	.db #0xE8
   2244 1B                10538 	.db #0x1B
   2245 90                10539 	.db #0x90
   2246 81                10540 	.db #0x81
   2247 84                10541 	.db #0x84
   2248 1A                10542 	.db #0x1A
   2249 08                10543 	.db #0x08
   224A 34                10544 	.db #0x34
   224B C7                10545 	.db #0xC7
   224C 28                10546 	.db #0x28
   224D A0                10547 	.db #0xA0
   224E 3F                10548 	.db #0x3F
   224F BF                10549 	.db #0xBF
   2250 0D                10550 	.db #0x0D
   2251 B7                10551 	.db #0xB7
   2252 7C                10552 	.db #0x7C
   2253 92                10553 	.db #0x92
   2254 DE                10554 	.db #0xDE
   2255 A1                10555 	.db #0xA1
   2256 B3                10556 	.db #0xB3
   2257 A7                10557 	.db #0xA7
   2258 85                10558 	.db #0x85
   2259 86                10559 	.db #0x86
   225A 8B                10560 	.db #0x8B
   225B 30                10561 	.db #0x30
   225C DD                10562 	.db #0xDD
   225D 21                10563 	.db #0x21
   225E 37                10564 	.db #0x37
   225F 12                10565 	.db #0x12
   2260 82                10566 	.db #0x82
   2261 B0                10567 	.db #0xB0
   2262 E3                10568 	.db #0xE3
   2263 B5                10569 	.db #0xB5
   2264 CE                10570 	.db #0xCE
   2265 F1                10571 	.db #0xF1
   2266 95                10572 	.db #0x95
   2267 B0                10573 	.db #0xB0
   2268 C8                10574 	.db #0xC8
   2269 51                10575 	.db #0x51
   226A F5                10576 	.db #0xF5
   226B 8C                10577 	.db #0x8C
   226C 46                10578 	.db #0x46
   226D 91                10579 	.db #0x91
   226E 53                10580 	.db #0x53
   226F A1                10581 	.db #0xA1
   2270 B5                10582 	.db #0xB5
   2271 49                10583 	.db #0x49
   2272 0D                10584 	.db #0x0D
   2273 05                10585 	.db #0x05
   2274 29                10586 	.db #0x29
   2275 1D                10587 	.db #0x1D
   2276 9D                10588 	.db #0x9D
   2277 28                10589 	.db #0x28
   2278 C4                10590 	.db #0xC4
   2279 06                10591 	.db #0x06
   227A 56                10592 	.db #0x56
   227B E2                10593 	.db #0xE2
   227C 6E                10594 	.db #0x6E
   227D FE                10595 	.db #0xFE
   227E 27                10596 	.db #0x27
   227F 54                10597 	.db #0x54
   2280 84                10598 	.db #0x84
   2281 11                10599 	.db #0x11
   2282 B6                10600 	.db #0xB6
   2283 EA                10601 	.db #0xEA
   2284 A3                10602 	.db #0xA3
   2285 8D                10603 	.db #0x8D
   2286 73                10604 	.db #0x73
   2287 DA                10605 	.db #0xDA
   2288 92                10606 	.db #0x92
   2289 F2                10607 	.db #0xF2
   228A 4A                10608 	.db #0x4A
   228B D1                10609 	.db #0xD1
   228C 5A                10610 	.db #0x5A
   228D 6E                10611 	.db #0x6E
   228E BB                10612 	.db #0xBB
   228F 03                10613 	.db #0x03
   2290 EB                10614 	.db #0xEB
   2291 17                10615 	.db #0x17
   2292 F4                10616 	.db #0xF4
   2293 FA                10617 	.db #0xFA
   2294 84                10618 	.db #0x84
   2295 64                10619 	.db #0x64
   2296 96                10620 	.db #0x96
   2297 06                10621 	.db #0x06
   2298 FB                10622 	.db #0xFB
   2299 6D                10623 	.db #0x6D
   229A EE                10624 	.db #0xEE
   229B CD                10625 	.db #0xCD
   229C FB                10626 	.db #0xFB
   229D 68                10627 	.db #0x68
   229E 24                10628 	.db #0x24
   229F 0F                10629 	.db #0x0F
   22A0 2D                10630 	.db #0x2D
   22A1 8E                10631 	.db #0x8E
   22A2 03                10632 	.db #0x03
   22A3 C8                10633 	.db #0xC8
   22A4 E0                10634 	.db #0xE0
   22A5 93                10635 	.db #0x93
   22A6 1A                10636 	.db #0x1A
   22A7 2C                10637 	.db #0x2C
   22A8 EB                10638 	.db #0xEB
   22A9 18                10639 	.db #0x18
   22AA 22                10640 	.db #0x22
   22AB D3                10641 	.db #0xD3
   22AC 75                10642 	.db #0x75
   22AD 3E                10643 	.db #0x3E
   22AE 28                10644 	.db #0x28
   22AF 10                10645 	.db #0x10
   22B0 B8                10646 	.db #0xB8
   22B1 09                10647 	.db #0x09
   22B2 4B                10648 	.db #0x4B
   22B3 8A                10649 	.db #0x8A
   22B4 69                10650 	.db #0x69
   22B5 69                10651 	.db #0x69
   22B6 02                10652 	.db #0x02
   22B7 F1                10653 	.db #0xF1
   22B8 D4                10654 	.db #0xD4
   22B9 33                10655 	.db #0x33
   22BA C0                10656 	.db #0xC0
   22BB BA                10657 	.db #0xBA
   22BC 01                10658 	.db #0x01
   22BD F4                10659 	.db #0xF4
   22BE 37                10660 	.db #0x37
   22BF 69                10661 	.db #0x69
   22C0 8D                10662 	.db #0x8D
   22C1 25                10663 	.db #0x25
   22C2 DC                10664 	.db #0xDC
   22C3 2D                10665 	.db #0x2D
   22C4 FB                10666 	.db #0xFB
   22C5 3E                10667 	.db #0x3E
   22C6 A7                10668 	.db #0xA7
   22C7 17                10669 	.db #0x17
   22C8 1A                10670 	.db #0x1A
   22C9 19                10671 	.db #0x19
   22CA DD                10672 	.db #0xDD
   22CB 61                10673 	.db #0x61
   22CC 5A                10674 	.db #0x5A
   22CD 18                10675 	.db #0x18
   22CE 38                10676 	.db #0x38
   22CF F9                10677 	.db #0xF9
   22D0 55                10678 	.db #0x55
   22D1 92                10679 	.db #0x92
   22D2 A5                10680 	.db #0xA5
   22D3 AE                10681 	.db #0xAE
   22D4 70                10682 	.db #0x70
   22D5 F9                10683 	.db #0xF9
   22D6 15                10684 	.db #0x15
   22D7 61                10685 	.db #0x61
   22D8 CA                10686 	.db #0xCA
   22D9 EC                10687 	.db #0xEC
   22DA B9                10688 	.db #0xB9
   22DB F4                10689 	.db #0xF4
   22DC F6                10690 	.db #0xF6
   22DD 38                10691 	.db #0x38
   22DE 3A                10692 	.db #0x3A
   22DF D4                10693 	.db #0xD4
   22E0 CB                10694 	.db #0xCB
   22E1 D7                10695 	.db #0xD7
   22E2 B1                10696 	.db #0xB1
   22E3 34                10697 	.db #0x34
   22E4 6A                10698 	.db #0x6A
   22E5 27                10699 	.db #0x27
   22E6 CD                10700 	.db #0xCD
   22E7 7F                10701 	.db #0x7F
   22E8 8F                10702 	.db #0x8F
   22E9 70                10703 	.db #0x70
   22EA B3                10704 	.db #0xB3
   22EB 4F                10705 	.db #0x4F
   22EC 62                10706 	.db #0x62
   22ED 72                10707 	.db #0x72
   22EE 1E                10708 	.db #0x1E
   22EF 2E                10709 	.db #0x2E
   22F0 DF                10710 	.db #0xDF
   22F1 CE                10711 	.db #0xCE
   22F2 74                10712 	.db #0x74
   22F3 93                10713 	.db #0x93
   22F4 A5                10714 	.db #0xA5
   22F5 93                10715 	.db #0x93
   22F6 01                10716 	.db #0x01
   22F7 F9                10717 	.db #0xF9
   22F8 32                10718 	.db #0x32
   22F9 69                10719 	.db #0x69
   22FA 7C                10720 	.db #0x7C
   22FB 5F                10721 	.db #0x5F
   22FC FA                10722 	.db #0xFA
   22FD A9                10723 	.db #0xA9
   22FE 23                10724 	.db #0x23
   22FF 89                10725 	.db #0x89
   2300 48                10726 	.db #0x48
   2301 D6                10727 	.db #0xD6
   2302 A0                10728 	.db #0xA0
   2303 98                10729 	.db #0x98
   2304 E7                10730 	.db #0xE7
   2305 47                10731 	.db #0x47
   2306 16                10732 	.db #0x16
   2307 BE                10733 	.db #0xBE
   2308 46                10734 	.db #0x46
   2309 89                10735 	.db #0x89
   230A 93                10736 	.db #0x93
   230B 2A                10737 	.db #0x2A
   230C 7B                10738 	.db #0x7B
   230D C1                10739 	.db #0xC1
   230E 9E                10740 	.db #0x9E
   230F E5                10741 	.db #0xE5
   2310 0A                10742 	.db #0x0A
   2311 A6                10743 	.db #0xA6
   2312 52                10744 	.db #0x52
   2313 EF                10745 	.db #0xEF
   2314 66                10746 	.db #0x66
   2315 EC                10747 	.db #0xEC
   2316 05                10748 	.db #0x05
   2317 74                10749 	.db #0x74
   2318 BA                10750 	.db #0xBA
   2319 FB                10751 	.db #0xFB
   231A 4F                10752 	.db #0x4F
   231B B2                10753 	.db #0xB2
   231C 28                10754 	.db #0x28
   231D 60                10755 	.db #0x60
   231E A0                10756 	.db #0xA0
   231F CB                10757 	.db #0xCB
   2320 64                10758 	.db #0x64
   2321 3C                10759 	.db #0x3C
   2322 3C                10760 	.db #0x3C
   2323 6E                10761 	.db #0x6E
   2324 2F                10762 	.db #0x2F
   2325 03                10763 	.db #0x03
   2326 FF                10764 	.db #0xFF
   2327 7F                10765 	.db #0x7F
   2328 72                10766 	.db #0x72
   2329 F4                10767 	.db #0xF4
   232A FE                10768 	.db #0xFE
   232B 1D                10769 	.db #0x1D
   232C E5                10770 	.db #0xE5
   232D 82                10771 	.db #0x82
   232E 5C                10772 	.db #0x5C
   232F D4                10773 	.db #0xD4
   2330 26                10774 	.db #0x26
   2331 C7                10775 	.db #0xC7
   2332 47                10776 	.db #0x47
   2333 E1                10777 	.db #0xE1
   2334 42                10778 	.db #0x42
   2335 0F                10779 	.db #0x0F
   2336 C2                10780 	.db #0xC2
   2337 7A                10781 	.db #0x7A
   2338 B4                10782 	.db #0xB4
   2339 8C                10783 	.db #0x8C
   233A 2C                10784 	.db #0x2C
   233B F0                10785 	.db #0xF0
   233C 38                10786 	.db #0x38
   233D EC                10787 	.db #0xEC
   233E BF                10788 	.db #0xBF
   233F 60                10789 	.db #0x60
   2340 B8                10790 	.db #0xB8
   2341 63                10791 	.db #0x63
   2342 C4                10792 	.db #0xC4
   2343 44                10793 	.db #0x44
   2344 14                10794 	.db #0x14
   2345 59                10795 	.db #0x59
   2346 8D                10796 	.db #0x8D
   2347 E8                10797 	.db #0xE8
   2348 74                10798 	.db #0x74
   2349 25                10799 	.db #0x25
   234A 02                10800 	.db #0x02
   234B 35                10801 	.db #0x35
   234C 20                10802 	.db #0x20
   234D C0                10803 	.db #0xC0
   234E 5E                10804 	.db #0x5E
   234F 3D                10805 	.db #0x3D
   2350 8A                10806 	.db #0x8A
   2351 99                10807 	.db #0x99
   2352 8E                10808 	.db #0x8E
   2353 F2                10809 	.db #0xF2
   2354 0E                10810 	.db #0x0E
   2355 C4                10811 	.db #0xC4
   2356 82                10812 	.db #0x82
   2357 67                10813 	.db #0x67
   2358 46                10814 	.db #0x46
   2359 ED                10815 	.db #0xED
   235A CE                10816 	.db #0xCE
   235B 7C                10817 	.db #0x7C
   235C 30                10818 	.db #0x30
   235D 4D                10819 	.db #0x4D
   235E 25                10820 	.db #0x25
   235F C8                10821 	.db #0xC8
   2360 F1                10822 	.db #0xF1
   2361 DA                10823 	.db #0xDA
   2362 B8                10824 	.db #0xB8
   2363 CE                10825 	.db #0xCE
   2364 E9                10826 	.db #0xE9
   2365 A0                10827 	.db #0xA0
   2366 EC                10828 	.db #0xEC
   2367 C3                10829 	.db #0xC3
   2368 FB                10830 	.db #0xFB
   2369 87                10831 	.db #0x87
   236A 0B                10832 	.db #0x0B
   236B 34                10833 	.db #0x34
   236C 80                10834 	.db #0x80
   236D 5B                10835 	.db #0x5B
   236E 92                10836 	.db #0x92
   236F 7E                10837 	.db #0x7E
   2370 48                10838 	.db #0x48
   2371 2C                10839 	.db #0x2C
   2372 E3                10840 	.db #0xE3
   2373 A2                10841 	.db #0xA2
   2374 DC                10842 	.db #0xDC
   2375 A7                10843 	.db #0xA7
   2376 EE                10844 	.db #0xEE
   2377 C3                10845 	.db #0xC3
   2378 42                10846 	.db #0x42
   2379 5A                10847 	.db #0x5A
   237A BE                10848 	.db #0xBE
   237B 7B                10849 	.db #0x7B
   237C 0C                10850 	.db #0x0C
   237D 0E                10851 	.db #0x0E
   237E 85                10852 	.db #0x85
   237F FF                10853 	.db #0xFF
   2380 F4                10854 	.db #0xF4
   2381 DD                10855 	.db #0xDD
   2382 AF                10856 	.db #0xAF
   2383 F9                10857 	.db #0xF9
   2384 81                10858 	.db #0x81
   2385 D1                10859 	.db #0xD1
   2386 D4                10860 	.db #0xD4
   2387 A4                10861 	.db #0xA4
   2388 AA                10862 	.db #0xAA
   2389 CC                10863 	.db #0xCC
   238A 39                10864 	.db #0x39
   238B 48                10865 	.db #0x48
   238C D6                10866 	.db #0xD6
   238D DC                10867 	.db #0xDC
   238E 5B                10868 	.db #0x5B
   238F 8C                10869 	.db #0x8C
   2390 99                10870 	.db #0x99
   2391 4B                10871 	.db #0x4B
   2392 5F                10872 	.db #0x5F
   2393 82                10873 	.db #0x82
   2394 2F                10874 	.db #0x2F
   2395 56                10875 	.db #0x56
   2396 34                10876 	.db #0x34
   2397 C3                10877 	.db #0xC3
   2398 8D                10878 	.db #0x8D
   2399 84                10879 	.db #0x84
   239A 86                10880 	.db #0x86
   239B 13                10881 	.db #0x13
   239C F2                10882 	.db #0xF2
   239D 62                10883 	.db #0x62
   239E 94                10884 	.db #0x94
   239F F9                10885 	.db #0xF9
   23A0 DE                10886 	.db #0xDE
   23A1 13                10887 	.db #0x13
   23A2 A1                10888 	.db #0xA1
   23A3 54                10889 	.db #0x54
   23A4 4F                10890 	.db #0x4F
   23A5 B3                10891 	.db #0xB3
   23A6 22                10892 	.db #0x22
   23A7 88                10893 	.db #0x88
   23A8 1F                10894 	.db #0x1F
   23A9 EF                10895 	.db #0xEF
   23AA CB                10896 	.db #0xCB
   23AB 5C                10897 	.db #0x5C
   23AC 38                10898 	.db #0x38
   23AD 7B                10899 	.db #0x7B
   23AE 0A                10900 	.db #0x0A
   23AF 64                10901 	.db #0x64
   23B0 99                10902 	.db #0x99
   23B1 04                10903 	.db #0x04
   23B2 B7                10904 	.db #0xB7
   23B3 42                10905 	.db #0x42
   23B4 E0                10906 	.db #0xE0
   23B5 19                10907 	.db #0x19
   23B6 9F                10908 	.db #0x9F
   23B7 F0                10909 	.db #0xF0
   23B8 E9                10910 	.db #0xE9
   23B9 D3                10911 	.db #0xD3
   23BA B6                10912 	.db #0xB6
   23BB 08                10913 	.db #0x08
   23BC 59                10914 	.db #0x59
   23BD FC                10915 	.db #0xFC
   23BE 60                10916 	.db #0x60
   23BF 70                10917 	.db #0x70
   23C0 17                10918 	.db #0x17
   23C1 F8                10919 	.db #0xF8
   23C2 C1                10920 	.db #0xC1
   23C3 0D                10921 	.db #0x0D
   23C4 48                10922 	.db #0x48
   23C5 81                10923 	.db #0x81
   23C6 29                10924 	.db #0x29
   23C7 F7                10925 	.db #0xF7
   23C8 25                10926 	.db #0x25
   23C9 5C                10927 	.db #0x5C
   23CA DD                10928 	.db #0xDD
   23CB D9                10929 	.db #0xD9
   23CC 11                10930 	.db #0x11
   23CD 29                10931 	.db #0x29
   23CE 89                10932 	.db #0x89
   23CF A4                10933 	.db #0xA4
   23D0 FF                10934 	.db #0xFF
   23D1 7A                10935 	.db #0x7A
   23D2 66                10936 	.db #0x66
   23D3 D3                10937 	.db #0xD3
   23D4 3F                10938 	.db #0x3F
   23D5 68                10939 	.db #0x68
   23D6 1D                10940 	.db #0x1D
   23D7 B8                10941 	.db #0xB8
   23D8 DF                10942 	.db #0xDF
   23D9 24                10943 	.db #0x24
   23DA 54                10944 	.db #0x54
   23DB 12                10945 	.db #0x12
   23DC 28                10946 	.db #0x28
   23DD B3                10947 	.db #0xB3
   23DE 98                10948 	.db #0x98
   23DF B5                10949 	.db #0xB5
   23E0 6D                10950 	.db #0x6D
   23E1 29                10951 	.db #0x29
   23E2 D6                10952 	.db #0xD6
   23E3 D4                10953 	.db #0xD4
   23E4 C2                10954 	.db #0xC2
   23E5 9D                10955 	.db #0x9D
   23E6 45                10956 	.db #0x45
   23E7 87                10957 	.db #0x87
   23E8 1E                10958 	.db #0x1E
   23E9 45                10959 	.db #0x45
   23EA 2B                10960 	.db #0x2B
   23EB 78                10961 	.db #0x78
   23EC 7C                10962 	.db #0x7C
   23ED AD                10963 	.db #0xAD
   23EE 0F                10964 	.db #0x0F
   23EF 9E                10965 	.db #0x9E
   23F0 F9                10966 	.db #0xF9
   23F1 DB                10967 	.db #0xDB
   23F2 4A                10968 	.db #0x4A
   23F3 04                10969 	.db #0x04
   23F4 F3                10970 	.db #0xF3
   23F5 06                10971 	.db #0x06
   23F6 93                10972 	.db #0x93
   23F7 3B                10973 	.db #0x3B
   23F8 5C                10974 	.db #0x5C
   23F9 B9                10975 	.db #0xB9
   23FA D8                10976 	.db #0xD8
   23FB CB                10977 	.db #0xCB
   23FC 26                10978 	.db #0x26
   23FD 8D                10979 	.db #0x8D
   23FE 03                10980 	.db #0x03
   23FF 79                10981 	.db #0x79
   2400 30                10982 	.db #0x30
   2401 37                10983 	.db #0x37
   2402 28                10984 	.db #0x28
   2403 35                10985 	.db #0x35
   2404 7C                10986 	.db #0x7C
   2405 5B                10987 	.db #0x5B
   2406 D1                10988 	.db #0xD1
   2407 8C                10989 	.db #0x8C
   2408 8C                10990 	.db #0x8C
   2409 1D                10991 	.db #0x1D
   240A 37                10992 	.db #0x37
   240B 94                10993 	.db #0x94
   240C 5A                10994 	.db #0x5A
   240D FE                10995 	.db #0xFE
   240E DD                10996 	.db #0xDD
   240F 3B                10997 	.db #0x3B
   2410 C3                10998 	.db #0xC3
   2411 30                10999 	.db #0x30
   2412 F1                11000 	.db #0xF1
   2413 9D                11001 	.db #0x9D
   2414 B3                11002 	.db #0xB3
   2415 24                11003 	.db #0x24
   2416 4E                11004 	.db #0x4E
   2417 80                11005 	.db #0x80
   2418 CB                11006 	.db #0xCB
   2419 ED                11007 	.db #0xED
   241A EC                11008 	.db #0xEC
   241B 25                11009 	.db #0x25
   241C 06                11010 	.db #0x06
   241D C3                11011 	.db #0xC3
   241E 11                11012 	.db #0x11
   241F 04                11013 	.db #0x04
   2420 19                11014 	.db #0x19
   2421 36                11015 	.db #0x36
   2422 6B                11016 	.db #0x6B
   2423 24                11017 	.db #0x24
   2424 F8                11018 	.db #0xF8
   2425 4D                11019 	.db #0x4D
   2426 4D                11020 	.db #0x4D
   2427 DC                11021 	.db #0xDC
   2428 68                11022 	.db #0x68
   2429 B5                11023 	.db #0xB5
   242A 95                11024 	.db #0x95
   242B 20                11025 	.db #0x20
   242C 77                11026 	.db #0x77
   242D 7A                11027 	.db #0x7A
   242E 85                11028 	.db #0x85
   242F EB                11029 	.db #0xEB
   2430 9F                11030 	.db #0x9F
   2431 04                11031 	.db #0x04
   2432 22                11032 	.db #0x22
   2433 2A                11033 	.db #0x2A
   2434 7D                11034 	.db #0x7D
   2435 9E                11035 	.db #0x9E
   2436 EA                11036 	.db #0xEA
   2437 2E                11037 	.db #0x2E
   2438 ED                11038 	.db #0xED
   2439 1F                11039 	.db #0x1F
   243A DA                11040 	.db #0xDA
   243B 79                11041 	.db #0x79
   243C D1                11042 	.db #0xD1
   243D 8E                11043 	.db #0x8E
   243E AE                11044 	.db #0xAE
   243F 7A                11045 	.db #0x7A
   2440 B9                11046 	.db #0xB9
   2441 EC                11047 	.db #0xEC
   2442 49                11048 	.db #0x49
   2443 70                11049 	.db #0x70
   2444 FA                11050 	.db #0xFA
   2445 1D                11051 	.db #0x1D
   2446 C1                11052 	.db #0xC1
   2447 F5                11053 	.db #0xF5
   2448 5E                11054 	.db #0x5E
   2449 64                11055 	.db #0x64
   244A A3                11056 	.db #0xA3
   244B 92                11057 	.db #0x92
   244C C5                11058 	.db #0xC5
   244D 04                11059 	.db #0x04
   244E EB                11060 	.db #0xEB
   244F 0B                11061 	.db #0x0B
   2450 73                11062 	.db #0x73
   2451 60                11063 	.db #0x60
   2452 CC                11064 	.db #0xCC
   2453 A4                11065 	.db #0xA4
   2454 26                11066 	.db #0x26
   2455 2B                11067 	.db #0x2B
   2456 DE                11068 	.db #0xDE
   2457 D2                11069 	.db #0xD2
   2458 D5                11070 	.db #0xD5
   2459 24                11071 	.db #0x24
   245A EC                11072 	.db #0xEC
   245B 07                11073 	.db #0x07
   245C 6D                11074 	.db #0x6D
   245D 5F                11075 	.db #0x5F
   245E 51                11076 	.db #0x51
   245F D5                11077 	.db #0xD5
   2460 D3                11078 	.db #0xD3
   2461 EA                11079 	.db #0xEA
   2462 F7                11080 	.db #0xF7
   2463 61                11081 	.db #0x61
   2464 AD                11082 	.db #0xAD
   2465 0E                11083 	.db #0x0E
   2466 41                11084 	.db #0x41
   2467 99                11085 	.db #0x99
   2468 41                11086 	.db #0x41
   2469 BB                11087 	.db #0xBB
   246A 71                11088 	.db #0x71
   246B EC                11089 	.db #0xEC
   246C E3                11090 	.db #0xE3
   246D F3                11091 	.db #0xF3
   246E FE                11092 	.db #0xFE
   246F 36                11093 	.db #0x36
   2470 79                11094 	.db #0x79
   2471 82                11095 	.db #0x82
   2472 33                11096 	.db #0x33
   2473 20                11097 	.db #0x20
   2474 6E                11098 	.db #0x6E
   2475 72                11099 	.db #0x72
   2476 5D                11100 	.db #0x5D
   2477 0A                11101 	.db #0x0A
   2478 56                11102 	.db #0x56
   2479 4D                11103 	.db #0x4D
   247A A7                11104 	.db #0xA7
   247B 07                11105 	.db #0x07
   247C DC                11106 	.db #0xDC
   247D DA                11107 	.db #0xDA
   247E 06                11108 	.db #0x06
   247F FF                11109 	.db #0xFF
   2480 01                11110 	.db #0x01
   2481 75                11111 	.db #0x75
   2482 09                11112 	.db #0x09
   2483 B5                11113 	.db #0xB5
   2484 CE                11114 	.db #0xCE
   2485 BE                11115 	.db #0xBE
   2486 A5                11116 	.db #0xA5
   2487 2E                11117 	.db #0x2E
   2488 3F                11118 	.db #0x3F
   2489 70                11119 	.db #0x70
   248A C8                11120 	.db #0xC8
   248B 04                11121 	.db #0x04
   248C CB                11122 	.db #0xCB
   248D C9                11123 	.db #0xC9
   248E 5E                11124 	.db #0x5E
   248F E6                11125 	.db #0xE6
   2490 38                11126 	.db #0x38
   2491 F1                11127 	.db #0xF1
   2492 F9                11128 	.db #0xF9
   2493 D9                11129 	.db #0xD9
   2494 9B                11130 	.db #0x9B
   2495 0F                11131 	.db #0x0F
   2496 CD                11132 	.db #0xCD
   2497 F7                11133 	.db #0xF7
   2498 B8                11134 	.db #0xB8
   2499 14                11135 	.db #0x14
   249A D5                11136 	.db #0xD5
   249B 6E                11137 	.db #0x6E
   249C D2                11138 	.db #0xD2
   249D DF                11139 	.db #0xDF
   249E F6                11140 	.db #0xF6
   249F 4A                11141 	.db #0x4A
   24A0 CA                11142 	.db #0xCA
   24A1 2B                11143 	.db #0x2B
   24A2 BB                11144 	.db #0xBB
   24A3 5D                11145 	.db #0x5D
   24A4 94                11146 	.db #0x94
   24A5 67                11147 	.db #0x67
   24A6 55                11148 	.db #0x55
   24A7 10                11149 	.db #0x10
   24A8 49                11150 	.db #0x49
   24A9 5B                11151 	.db #0x5B
   24AA 7B                11152 	.db #0x7B
   24AB C5                11153 	.db #0xC5
   24AC C9                11154 	.db #0xC9
   24AD 82                11155 	.db #0x82
   24AE 43                11156 	.db #0x43
   24AF 6B                11157 	.db #0x6B
   24B0 98                11158 	.db #0x98
   24B1 58                11159 	.db #0x58
   24B2 CE                11160 	.db #0xCE
   24B3 78                11161 	.db #0x78
   24B4 69                11162 	.db #0x69
   24B5 92                11163 	.db #0x92
   24B6 A0                11164 	.db #0xA0
   24B7 85                11165 	.db #0x85
   24B8 85                11166 	.db #0x85
   24B9 B0                11167 	.db #0xB0
   24BA F6                11168 	.db #0xF6
   24BB 84                11169 	.db #0x84
   24BC 37                11170 	.db #0x37
   24BD 68                11171 	.db #0x68
   24BE 3C                11172 	.db #0x3C
   24BF F2                11173 	.db #0xF2
   24C0 E3                11174 	.db #0xE3
   24C1 05                11175 	.db #0x05
   24C2 ED                11176 	.db #0xED
   24C3 F4                11177 	.db #0xF4
   24C4 45                11178 	.db #0x45
   24C5 74                11179 	.db #0x74
   24C6 5D                11180 	.db #0x5D
   24C7 1A                11181 	.db #0x1A
   24C8 F7                11182 	.db #0xF7
   24C9 33                11183 	.db #0x33
   24CA 70                11184 	.db #0x70
   24CB B5                11185 	.db #0xB5
   24CC 67                11186 	.db #0x67
   24CD B1                11187 	.db #0xB1
   24CE E8                11188 	.db #0xE8
   24CF F1                11189 	.db #0xF1
   24D0 1F                11190 	.db #0x1F
   24D1 10                11191 	.db #0x10
   24D2 71                11192 	.db #0x71
   24D3 D1                11193 	.db #0xD1
   24D4 07                11194 	.db #0x07
   24D5 5B                11195 	.db #0x5B
   24D6 1B                11196 	.db #0x1B
   24D7 45                11197 	.db #0x45
   24D8 82                11198 	.db #0x82
   24D9 F5                11199 	.db #0xF5
   24DA 55                11200 	.db #0x55
   24DB 72                11201 	.db #0x72
   24DC 71                11202 	.db #0x71
   24DD 3E                11203 	.db #0x3E
   24DE A0                11204 	.db #0xA0
   24DF EC                11205 	.db #0xEC
   24E0 82                11206 	.db #0x82
   24E1 1C                11207 	.db #0x1C
   24E2 F8                11208 	.db #0xF8
   24E3 B3                11209 	.db #0xB3
   24E4 94                11210 	.db #0x94
   24E5 83                11211 	.db #0x83
   24E6 5A                11212 	.db #0x5A
   24E7 CD                11213 	.db #0xCD
   24E8 83                11214 	.db #0x83
   24E9 55                11215 	.db #0x55
   24EA 97                11216 	.db #0x97
   24EB 90                11217 	.db #0x90
   24EC 79                11218 	.db #0x79
   24ED B5                11219 	.db #0xB5
   24EE 7A                11220 	.db #0x7A
   24EF 52                11221 	.db #0x52
   24F0 EA                11222 	.db #0xEA
   24F1 53                11223 	.db #0x53
   24F2 28                11224 	.db #0x28
   24F3 E2                11225 	.db #0xE2
   24F4 ED                11226 	.db #0xED
   24F5 AE                11227 	.db #0xAE
   24F6 E2                11228 	.db #0xE2
   24F7 35                11229 	.db #0x35
   24F8 51                11230 	.db #0x51
   24F9 57                11231 	.db #0x57
   24FA 8C                11232 	.db #0x8C
   24FB AA                11233 	.db #0xAA
   24FC 11                11234 	.db #0x11
   24FD FA                11235 	.db #0xFA
   24FE BB                11236 	.db #0xBB
   24FF 1F                11237 	.db #0x1F
   2500 05                11238 	.db #0x05
   2501 D1                11239 	.db #0xD1
   2502 A7                11240 	.db #0xA7
   2503 31                11241 	.db #0x31
   2504 C8                11242 	.db #0xC8
   2505 B6                11243 	.db #0xB6
   2506 DA                11244 	.db #0xDA
   2507 DD                11245 	.db #0xDD
   2508 58                11246 	.db #0x58
   2509 92                11247 	.db #0x92
   250A 42                11248 	.db #0x42
   250B 4A                11249 	.db #0x4A
   250C 70                11250 	.db #0x70
   250D DD                11251 	.db #0xDD
   250E DB                11252 	.db #0xDB
   250F 2E                11253 	.db #0x2E
   2510 E5                11254 	.db #0xE5
   2511 35                11255 	.db #0x35
   2512 1C                11256 	.db #0x1C
   2513 26                11257 	.db #0x26
   2514 7E                11258 	.db #0x7E
   2515 12                11259 	.db #0x12
   2516 39                11260 	.db #0x39
   2517 3C                11261 	.db #0x3C
   2518 2B                11262 	.db #0x2B
   2519 74                11263 	.db #0x74
   251A E4                11264 	.db #0xE4
   251B B6                11265 	.db #0xB6
   251C AD                11266 	.db #0xAD
   251D 88                11267 	.db #0x88
   251E A8                11268 	.db #0xA8
   251F 37                11269 	.db #0x37
   2520 13                11270 	.db #0x13
   2521 84                11271 	.db #0x84
   2522 40                11272 	.db #0x40
   2523 0B                11273 	.db #0x0B
   2524 5B                11274 	.db #0x5B
   2525 13                11275 	.db #0x13
   2526 61                11276 	.db #0x61
   2527 1E                11277 	.db #0x1E
   2528 A8                11278 	.db #0xA8
   2529 EE                11279 	.db #0xEE
   252A AE                11280 	.db #0xAE
   252B F2                11281 	.db #0xF2
   252C 0A                11282 	.db #0x0A
   252D 81                11283 	.db #0x81
   252E EC                11284 	.db #0xEC
   252F D2                11285 	.db #0xD2
   2530 0E                11286 	.db #0x0E
   2531 F9                11287 	.db #0xF9
   2532 05                11288 	.db #0x05
   2533 01                11289 	.db #0x01
   2534 21                11290 	.db #0x21
   2535 72                11291 	.db #0x72
   2536 28                11292 	.db #0x28
   2537 2E                11293 	.db #0x2E
   2538 75                11294 	.db #0x75
   2539 07                11295 	.db #0x07
   253A CE                11296 	.db #0xCE
   253B DE                11297 	.db #0xDE
   253C 27                11298 	.db #0x27
   253D D3                11299 	.db #0xD3
   253E D4                11300 	.db #0xD4
   253F 1A                11301 	.db #0x1A
   2540 DF                11302 	.db #0xDF
   2541 74                11303 	.db #0x74
   2542 58                11304 	.db #0x58
   2543 17                11305 	.db #0x17
   2544 1A                11306 	.db #0x1A
   2545 48                11307 	.db #0x48
   2546 87                11308 	.db #0x87
   2547 56                11309 	.db #0x56
   2548 B7                11310 	.db #0xB7
   2549 F2                11311 	.db #0xF2
   254A 28                11312 	.db #0x28
   254B E3                11313 	.db #0xE3
   254C D1                11314 	.db #0xD1
   254D F4                11315 	.db #0xF4
   254E 92                11316 	.db #0x92
   254F E5                11317 	.db #0xE5
   2550 BC                11318 	.db #0xBC
   2551 68                11319 	.db #0x68
   2552 DD                11320 	.db #0xDD
   2553 EA                11321 	.db #0xEA
   2554 7B                11322 	.db #0x7B
   2555 93                11323 	.db #0x93
   2556 A6                11324 	.db #0xA6
   2557 B9                11325 	.db #0xB9
   2558 72                11326 	.db #0x72
   2559 80                11327 	.db #0x80
   255A 5B                11328 	.db #0x5B
   255B 4B                11329 	.db #0x4B
   255C 57                11330 	.db #0x57
   255D 7B                11331 	.db #0x7B
   255E 7B                11332 	.db #0x7B
   255F 2F                11333 	.db #0x2F
   2560 3A                11334 	.db #0x3A
   2561 EA                11335 	.db #0xEA
   2562 3C                11336 	.db #0x3C
   2563 0D                11337 	.db #0x0D
   2564 8A                11338 	.db #0x8A
   2565 AC                11339 	.db #0xAC
   2566 91                11340 	.db #0x91
   2567 05                11341 	.db #0x05
   2568 A8                11342 	.db #0xA8
   2569 39                11343 	.db #0x39
   256A 32                11344 	.db #0x32
   256B 1D                11345 	.db #0x1D
   256C 87                11346 	.db #0x87
   256D 79                11347 	.db #0x79
   256E ED                11348 	.db #0xED
   256F A2                11349 	.db #0xA2
   2570 96                11350 	.db #0x96
   2571 38                11351 	.db #0x38
   2572 C1                11352 	.db #0xC1
   2573 8D                11353 	.db #0x8D
   2574 DF                11354 	.db #0xDF
   2575 B9                11355 	.db #0xB9
   2576 82                11356 	.db #0x82
   2577 E8                11357 	.db #0xE8
   2578 C3                11358 	.db #0xC3
   2579 05                11359 	.db #0x05
   257A F7                11360 	.db #0xF7
   257B 9C                11361 	.db #0x9C
   257C 33                11362 	.db #0x33
   257D 9E                11363 	.db #0x9E
   257E 20                11364 	.db #0x20
   257F CD                11365 	.db #0xCD
   2580 63                11366 	.db #0x63
   2581 38                11367 	.db #0x38
   2582 C4                11368 	.db #0xC4
   2583 A6                11369 	.db #0xA6
   2584 BA                11370 	.db #0xBA
   2585 C9                11371 	.db #0xC9
   2586 35                11372 	.db #0x35
   2587 6A                11373 	.db #0x6A
   2588 83                11374 	.db #0x83
   2589 CF                11375 	.db #0xCF
   258A F7                11376 	.db #0xF7
   258B 4B                11377 	.db #0x4B
   258C CC                11378 	.db #0xCC
   258D 24                11379 	.db #0x24
   258E 6F                11380 	.db #0x6F
   258F D0                11381 	.db #0xD0
   2590 1A                11382 	.db #0x1A
   2591 D9                11383 	.db #0xD9
   2592 6D                11384 	.db #0x6D
   2593 78                11385 	.db #0x78
   2594 AB                11386 	.db #0xAB
   2595 55                11387 	.db #0x55
   2596 8A                11388 	.db #0x8A
   2597 B3                11389 	.db #0xB3
   2598 8B                11390 	.db #0x8B
   2599 33                11391 	.db #0x33
   259A 21                11392 	.db #0x21
   259B 1E                11393 	.db #0x1E
   259C 0C                11394 	.db #0x0C
   259D D2                11395 	.db #0xD2
   259E 8D                11396 	.db #0x8D
   259F 36                11397 	.db #0x36
   25A0 71                11398 	.db #0x71
   25A1 24                11399 	.db #0x24
   25A2 7D                11400 	.db #0x7D
   25A3 AD                11401 	.db #0xAD
   25A4 15                11402 	.db #0x15
   25A5 88                11403 	.db #0x88
   25A6 EF                11404 	.db #0xEF
   25A7 EF                11405 	.db #0xEF
   25A8 A8                11406 	.db #0xA8
   25A9 11                11407 	.db #0x11
   25AA 6F                11408 	.db #0x6F
   25AB 03                11409 	.db #0x03
   25AC F4                11410 	.db #0xF4
   25AD 16                11411 	.db #0x16
   25AE B3                11412 	.db #0xB3
   25AF E9                11413 	.db #0xE9
   25B0 28                11414 	.db #0x28
   25B1 61                11415 	.db #0x61
   25B2 1B                11416 	.db #0x1B
   25B3 5C                11417 	.db #0x5C
   25B4 1C                11418 	.db #0x1C
   25B5 F9                11419 	.db #0xF9
   25B6 DE                11420 	.db #0xDE
   25B7 5C                11421 	.db #0x5C
   25B8 EB                11422 	.db #0xEB
   25B9 1F                11423 	.db #0x1F
   25BA 63                11424 	.db #0x63
   25BB 93                11425 	.db #0x93
   25BC F8                11426 	.db #0xF8
   25BD B0                11427 	.db #0xB0
   25BE 09                11428 	.db #0x09
   25BF 87                11429 	.db #0x87
   25C0 4B                11430 	.db #0x4B
   25C1 CE                11431 	.db #0xCE
   25C2 AA                11432 	.db #0xAA
   25C3 1C                11433 	.db #0x1C
   25C4 61                11434 	.db #0x61
   25C5 D0                11435 	.db #0xD0
   25C6 17                11436 	.db #0x17
   25C7 DA                11437 	.db #0xDA
   25C8 A5                11438 	.db #0xA5
   25C9 B5                11439 	.db #0xB5
   25CA 05                11440 	.db #0x05
   25CB E2                11441 	.db #0xE2
   25CC D8                11442 	.db #0xD8
   25CD C4                11443 	.db #0xC4
   25CE BE                11444 	.db #0xBE
   25CF D1                11445 	.db #0xD1
   25D0 18                11446 	.db #0x18
   25D1 78                11447 	.db #0x78
   25D2 13                11448 	.db #0x13
   25D3 45                11449 	.db #0x45
   25D4 2B                11450 	.db #0x2B
   25D5 5B                11451 	.db #0x5B
   25D6 D2                11452 	.db #0xD2
   25D7 46                11453 	.db #0x46
   25D8 05                11454 	.db #0x05
   25D9 7F                11455 	.db #0x7F
   25DA FF                11456 	.db #0xFF
   25DB 8B                11457 	.db #0x8B
   25DC FF                11458 	.db #0xFF
   25DD E8                11459 	.db #0xE8
   25DE CF                11460 	.db #0xCF
   25DF BB                11461 	.db #0xBB
   25E0 99                11462 	.db #0x99
   25E1 B2                11463 	.db #0xB2
   25E2 E5                11464 	.db #0xE5
   25E3 28                11465 	.db #0x28
   25E4 31                11466 	.db #0x31
   25E5 7A                11467 	.db #0x7A
   25E6 59                11468 	.db #0x59
   25E7 D7                11469 	.db #0xD7
   25E8 8D                11470 	.db #0x8D
   25E9 9F                11471 	.db #0x9F
   25EA 9F                11472 	.db #0x9F
   25EB 71                11473 	.db #0x71
   25EC 31                11474 	.db #0x31
   25ED CA                11475 	.db #0xCA
   25EE DA                11476 	.db #0xDA
   25EF F7                11477 	.db #0xF7
   25F0 9C                11478 	.db #0x9C
   25F1 D7                11479 	.db #0xD7
   25F2 C8                11480 	.db #0xC8
   25F3 AF                11481 	.db #0xAF
   25F4 C2                11482 	.db #0xC2
   25F5 B7                11483 	.db #0xB7
   25F6 19                11484 	.db #0x19
   25F7 30                11485 	.db #0x30
   25F8 5B                11486 	.db #0x5B
   25F9 C5                11487 	.db #0xC5
   25FA F2                11488 	.db #0xF2
   25FB AA                11489 	.db #0xAA
   25FC 7F                11490 	.db #0x7F
   25FD 6A                11491 	.db #0x6A
   25FE 88                11492 	.db #0x88
   25FF 17                11493 	.db #0x17
   2600 4A                11494 	.db #0x4A
   2601 B0                11495 	.db #0xB0
   2602 E6                11496 	.db #0xE6
   2603 D8                11497 	.db #0xD8
   2604 42                11498 	.db #0x42
   2605 74                11499 	.db #0x74
   2606 01                11500 	.db #0x01
   2607 AA                11501 	.db #0xAA
   2608 CF                11502 	.db #0xCF
   2609 7F                11503 	.db #0x7F
   260A 87                11504 	.db #0x87
   260B 7D                11505 	.db #0x7D
   260C AF                11506 	.db #0xAF
   260D 93                11507 	.db #0x93
   260E BA                11508 	.db #0xBA
   260F 46                11509 	.db #0x46
   2610 18                11510 	.db #0x18
   2611 9B                11511 	.db #0x9B
   2612 F9                11512 	.db #0xF9
   2613 D2                11513 	.db #0xD2
   2614 14                11514 	.db #0x14
   2615 8C                11515 	.db #0x8C
   2616 8F                11516 	.db #0x8F
   2617 71                11517 	.db #0x71
   2618 80                11518 	.db #0x80
   2619 A6                11519 	.db #0xA6
   261A F7                11520 	.db #0xF7
   261B 86                11521 	.db #0x86
   261C FF                11522 	.db #0xFF
   261D 23                11523 	.db #0x23
   261E 00                11524 	.db #0x00
   261F 99                11525 	.db #0x99
   2620 80                11526 	.db #0x80
   2621 0B                11527 	.db #0x0B
   2622 62                11528 	.db #0x62
   2623 53                11529 	.db #0x53
   2624 FA                11530 	.db #0xFA
   2625 C2                11531 	.db #0xC2
   2626 FB                11532 	.db #0xFB
   2627 C7                11533 	.db #0xC7
   2628 09                11534 	.db #0x09
   2629 88                11535 	.db #0x88
   262A FC                11536 	.db #0xFC
   262B 24                11537 	.db #0x24
   262C 02                11538 	.db #0x02
   262D CE                11539 	.db #0xCE
   262E 63                11540 	.db #0x63
   262F AC                11541 	.db #0xAC
   2630 05                11542 	.db #0x05
   2631 E4                11543 	.db #0xE4
   2632 13                11544 	.db #0x13
   2633 DB                11545 	.db #0xDB
   2634 F5                11546 	.db #0xF5
   2635 77                11547 	.db #0x77
   2636 FD                11548 	.db #0xFD
   2637 BD                11549 	.db #0xBD
   2638 E5                11550 	.db #0xE5
   2639 AD                11551 	.db #0xAD
   263A 34                11552 	.db #0x34
   263B 84                11553 	.db #0x84
   263C 47                11554 	.db #0x47
   263D 99                11555 	.db #0x99
   263E F7                11556 	.db #0xF7
   263F C9                11557 	.db #0xC9
   2640 6A                11558 	.db #0x6A
   2641 09                11559 	.db #0x09
   2642 87                11560 	.db #0x87
   2643 07                11561 	.db #0x07
   2644 6B                11562 	.db #0x6B
   2645 8C                11563 	.db #0x8C
   2646 AD                11564 	.db #0xAD
   2647 75                11565 	.db #0x75
   2648 AB                11566 	.db #0xAB
   2649 3C                11567 	.db #0x3C
   264A 8A                11568 	.db #0x8A
   264B E9                11569 	.db #0xE9
   264C FF                11570 	.db #0xFF
   264D 17                11571 	.db #0x17
   264E 8B                11572 	.db #0x8B
   264F 5D                11573 	.db #0x5D
   2650 8D                11574 	.db #0x8D
   2651 2E                11575 	.db #0x2E
   2652 73                11576 	.db #0x73
   2653 8E                11577 	.db #0x8E
   2654 69                11578 	.db #0x69
   2655 BC                11579 	.db #0xBC
   2656 B5                11580 	.db #0xB5
   2657 79                11581 	.db #0x79
   2658 B1                11582 	.db #0xB1
   2659 6A                11583 	.db #0x6A
   265A 55                11584 	.db #0x55
   265B 96                11585 	.db #0x96
   265C 3B                11586 	.db #0x3B
   265D AC                11587 	.db #0xAC
   265E 58                11588 	.db #0x58
   265F 27                11589 	.db #0x27
   2660 25                11590 	.db #0x25
   2661 14                11591 	.db #0x14
   2662 1C                11592 	.db #0x1C
   2663 C1                11593 	.db #0xC1
   2664 55                11594 	.db #0x55
   2665 D1                11595 	.db #0xD1
   2666 98                11596 	.db #0x98
   2667 46                11597 	.db #0x46
   2668 60                11598 	.db #0x60
   2669 63                11599 	.db #0x63
   266A 92                11600 	.db #0x92
   266B D1                11601 	.db #0xD1
   266C 00                11602 	.db #0x00
   266D DA                11603 	.db #0xDA
   266E 0D                11604 	.db #0x0D
   266F 2F                11605 	.db #0x2F
   2670 6A                11606 	.db #0x6A
   2671 F6                11607 	.db #0xF6
   2672 ED                11608 	.db #0xED
   2673 FC                11609 	.db #0xFC
   2674 E8                11610 	.db #0xE8
   2675 DD                11611 	.db #0xDD
   2676 71                11612 	.db #0x71
   2677 C5                11613 	.db #0xC5
   2678 3A                11614 	.db #0x3A
   2679 58                11615 	.db #0x58
   267A 9F                11616 	.db #0x9F
   267B CA                11617 	.db #0xCA
   267C 77                11618 	.db #0x77
   267D B4                11619 	.db #0xB4
   267E CA                11620 	.db #0xCA
   267F 40                11621 	.db #0x40
   2680 84                11622 	.db #0x84
   2681 CC                11623 	.db #0xCC
   2682 6C                11624 	.db #0x6C
   2683 4A                11625 	.db #0x4A
   2684 AF                11626 	.db #0xAF
   2685 9F                11627 	.db #0x9F
   2686 22                11628 	.db #0x22
   2687 DF                11629 	.db #0xDF
   2688 E3                11630 	.db #0xE3
   2689 DC                11631 	.db #0xDC
   268A 5F                11632 	.db #0x5F
   268B 8B                11633 	.db #0x8B
   268C D3                11634 	.db #0xD3
   268D 13                11635 	.db #0x13
   268E 0C                11636 	.db #0x0C
   268F C5                11637 	.db #0xC5
   2690 38                11638 	.db #0x38
   2691 B9                11639 	.db #0xB9
   2692 1D                11640 	.db #0x1D
   2693 54                11641 	.db #0x54
   2694 4F                11642 	.db #0x4F
   2695 01                11643 	.db #0x01
   2696 98                11644 	.db #0x98
   2697 4E                11645 	.db #0x4E
   2698 7F                11646 	.db #0x7F
   2699 0A                11647 	.db #0x0A
   269A E2                11648 	.db #0xE2
   269B C9                11649 	.db #0xC9
   269C D9                11650 	.db #0xD9
   269D 7C                11651 	.db #0x7C
   269E B3                11652 	.db #0xB3
   269F 17                11653 	.db #0x17
   26A0 C3                11654 	.db #0xC3
   26A1 1B                11655 	.db #0x1B
   26A2 41                11656 	.db #0x41
   26A3 E4                11657 	.db #0xE4
   26A4 AE                11658 	.db #0xAE
   26A5 2A                11659 	.db #0x2A
   26A6 D9                11660 	.db #0xD9
   26A7 A4                11661 	.db #0xA4
   26A8 3A                11662 	.db #0x3A
   26A9 9F                11663 	.db #0x9F
   26AA 18                11664 	.db #0x18
   26AB A4                11665 	.db #0xA4
   26AC 5A                11666 	.db #0x5A
   26AD 42                11667 	.db #0x42
   26AE 32                11668 	.db #0x32
   26AF 86                11669 	.db #0x86
   26B0 F9                11670 	.db #0xF9
   26B1 EB                11671 	.db #0xEB
   26B2 7D                11672 	.db #0x7D
   26B3 1A                11673 	.db #0x1A
   26B4 DE                11674 	.db #0xDE
   26B5 F7                11675 	.db #0xF7
   26B6 CA                11676 	.db #0xCA
   26B7 2B                11677 	.db #0x2B
   26B8 E5                11678 	.db #0xE5
   26B9 C5                11679 	.db #0xC5
   26BA 71                11680 	.db #0x71
   26BB 9B                11681 	.db #0x9B
   26BC CB                11682 	.db #0xCB
   26BD 4F                11683 	.db #0x4F
   26BE 4D                11684 	.db #0x4D
   26BF A5                11685 	.db #0xA5
   26C0 9B                11686 	.db #0x9B
   26C1 70                11687 	.db #0x70
   26C2 69                11688 	.db #0x69
   26C3 31                11689 	.db #0x31
   26C4 61                11690 	.db #0x61
   26C5 21                11691 	.db #0x21
   26C6 C6                11692 	.db #0xC6
   26C7 53                11693 	.db #0x53
   26C8 48                11694 	.db #0x48
   26C9 89                11695 	.db #0x89
   26CA 52                11696 	.db #0x52
   26CB 46                11697 	.db #0x46
   26CC 6E                11698 	.db #0x6E
   26CD 8C                11699 	.db #0x8C
   26CE 08                11700 	.db #0x08
   26CF EE                11701 	.db #0xEE
   26D0 C8                11702 	.db #0xC8
   26D1 98                11703 	.db #0x98
   26D2 AB                11704 	.db #0xAB
   26D3 28                11705 	.db #0x28
   26D4 53                11706 	.db #0x53
   26D5 C4                11707 	.db #0xC4
   26D6 3A                11708 	.db #0x3A
   26D7 02                11709 	.db #0x02
   26D8 48                11710 	.db #0x48
   26D9 B7                11711 	.db #0xB7
   26DA 4E                11712 	.db #0x4E
   26DB 03                11713 	.db #0x03
   26DC 4F                11714 	.db #0x4F
   26DD DF                11715 	.db #0xDF
   26DE 73                11716 	.db #0x73
   26DF DE                11717 	.db #0xDE
   26E0 0C                11718 	.db #0x0C
   26E1 07                11719 	.db #0x07
   26E2 23                11720 	.db #0x23
   26E3 B9                11721 	.db #0xB9
   26E4 AE                11722 	.db #0xAE
   26E5 D8                11723 	.db #0xD8
   26E6 C1                11724 	.db #0xC1
   26E7 FA                11725 	.db #0xFA
   26E8 61                11726 	.db #0x61
   26E9 27                11727 	.db #0x27
   26EA 81                11728 	.db #0x81
   26EB 7A                11729 	.db #0x7A
   26EC AD                11730 	.db #0xAD
   26ED 31                11731 	.db #0x31
   26EE D3                11732 	.db #0xD3
   26EF C3                11733 	.db #0xC3
   26F0 81                11734 	.db #0x81
   26F1 A1                11735 	.db #0xA1
   26F2 5F                11736 	.db #0x5F
   26F3 FA                11737 	.db #0xFA
   26F4 D7                11738 	.db #0xD7
   26F5 A1                11739 	.db #0xA1
   26F6 4A                11740 	.db #0x4A
   26F7 D7                11741 	.db #0xD7
   26F8 F9                11742 	.db #0xF9
   26F9 50                11743 	.db #0x50
   26FA DF                11744 	.db #0xDF
   26FB 9F                11745 	.db #0x9F
   26FC 9D                11746 	.db #0x9D
   26FD 31                11747 	.db #0x31
   26FE 46                11748 	.db #0x46
   26FF C0                11749 	.db #0xC0
   2700 FC                11750 	.db #0xFC
   2701 0C                11751 	.db #0x0C
   2702 E4                11752 	.db #0xE4
   2703 3C                11753 	.db #0x3C
   2704 9E                11754 	.db #0x9E
   2705 87                11755 	.db #0x87
   2706 84                11756 	.db #0x84
   2707 C5                11757 	.db #0xC5
   2708 05                11758 	.db #0x05
   2709 D1                11759 	.db #0xD1
   270A B4                11760 	.db #0xB4
   270B BA                11761 	.db #0xBA
   270C F2                11762 	.db #0xF2
   270D 75                11763 	.db #0x75
   270E D8                11764 	.db #0xD8
   270F 39                11765 	.db #0x39
   2710 02                11766 	.db #0x02
   2711 DD                11767 	.db #0xDD
   2712 8A                11768 	.db #0x8A
   2713 88                11769 	.db #0x88
   2714 69                11770 	.db #0x69
   2715 17                11771 	.db #0x17
   2716 D3                11772 	.db #0xD3
   2717 C7                11773 	.db #0xC7
   2718 0A                11774 	.db #0x0A
   2719 3C                11775 	.db #0x3C
   271A 97                11776 	.db #0x97
   271B 6C                11777 	.db #0x6C
   271C 3E                11778 	.db #0x3E
   271D CC                11779 	.db #0xCC
   271E B5                11780 	.db #0xB5
   271F D8                11781 	.db #0xD8
   2720 F0                11782 	.db #0xF0
   2721 F3                11783 	.db #0xF3
   2722 04                11784 	.db #0x04
   2723 DB                11785 	.db #0xDB
   2724 D8                11786 	.db #0xD8
   2725 96                11787 	.db #0x96
   2726 CB                11788 	.db #0xCB
   2727 C9                11789 	.db #0xC9
   2728 EE                11790 	.db #0xEE
   2729 1B                11791 	.db #0x1B
   272A 99                11792 	.db #0x99
   272B E9                11793 	.db #0xE9
   272C AD                11794 	.db #0xAD
   272D 98                11795 	.db #0x98
   272E BD                11796 	.db #0xBD
   272F E7                11797 	.db #0xE7
   2730 CC                11798 	.db #0xCC
   2731 23                11799 	.db #0x23
   2732 B4                11800 	.db #0xB4
   2733 C8                11801 	.db #0xC8
   2734 6C                11802 	.db #0x6C
   2735 62                11803 	.db #0x62
   2736 02                11804 	.db #0x02
   2737 82                11805 	.db #0x82
   2738 39                11806 	.db #0x39
   2739 FA                11807 	.db #0xFA
   273A DF                11808 	.db #0xDF
   273B 15                11809 	.db #0x15
   273C 27                11810 	.db #0x27
   273D C7                11811 	.db #0xC7
   273E D0                11812 	.db #0xD0
   273F 70                11813 	.db #0x70
   2740 BA                11814 	.db #0xBA
   2741 6B                11815 	.db #0x6B
   2742 83                11816 	.db #0x83
   2743 EE                11817 	.db #0xEE
   2744 07                11818 	.db #0x07
   2745 0D                11819 	.db #0x0D
   2746 68                11820 	.db #0x68
   2747 F1                11821 	.db #0xF1
   2748 CE                11822 	.db #0xCE
   2749 55                11823 	.db #0x55
   274A D9                11824 	.db #0xD9
   274B 37                11825 	.db #0x37
   274C 53                11826 	.db #0x53
   274D 27                11827 	.db #0x27
   274E 52                11828 	.db #0x52
   274F 5D                11829 	.db #0x5D
   2750 B6                11830 	.db #0xB6
   2751 33                11831 	.db #0x33
   2752 EA                11832 	.db #0xEA
   2753 78                11833 	.db #0x78
   2754 9E                11834 	.db #0x9E
   2755 52                11835 	.db #0x52
   2756 63                11836 	.db #0x63
   2757 1E                11837 	.db #0x1E
   2758 10                11838 	.db #0x10
   2759 A3                11839 	.db #0xA3
   275A 53                11840 	.db #0x53
   275B 2F                11841 	.db #0x2F
   275C C2                11842 	.db #0xC2
   275D 5B                11843 	.db #0x5B
   275E DB                11844 	.db #0xDB
   275F 69                11845 	.db #0x69
   2760 B3                11846 	.db #0xB3
   2761 D5                11847 	.db #0xD5
   2762 E9                11848 	.db #0xE9
   2763 C6                11849 	.db #0xC6
   2764 B8                11850 	.db #0xB8
   2765 FE                11851 	.db #0xFE
   2766 3E                11852 	.db #0x3E
   2767 B2                11853 	.db #0xB2
   2768 BA                11854 	.db #0xBA
   2769 80                11855 	.db #0x80
   276A C6                11856 	.db #0xC6
   276B F0                11857 	.db #0xF0
   276C 95                11858 	.db #0x95
   276D 71                11859 	.db #0x71
   276E 13                11860 	.db #0x13
   276F C4                11861 	.db #0xC4
   2770 82                11862 	.db #0x82
   2771 13                11863 	.db #0x13
   2772 B8                11864 	.db #0xB8
   2773 F6                11865 	.db #0xF6
   2774 91                11866 	.db #0x91
   2775 8A                11867 	.db #0x8A
   2776 EA                11868 	.db #0xEA
   2777 29                11869 	.db #0x29
   2778 A3                11870 	.db #0xA3
   2779 CB                11871 	.db #0xCB
   277A 5B                11872 	.db #0x5B
   277B 81                11873 	.db #0x81
   277C B4                11874 	.db #0xB4
   277D C0                11875 	.db #0xC0
   277E 24                11876 	.db #0x24
   277F B8                11877 	.db #0xB8
   2780 6E                11878 	.db #0x6E
   2781 58                11879 	.db #0x58
   2782 5E                11880 	.db #0x5E
   2783 C3                11881 	.db #0xC3
   2784 CE                11882 	.db #0xCE
   2785 86                11883 	.db #0x86
   2786 5A                11884 	.db #0x5A
   2787 22                11885 	.db #0x22
   2788 0A                11886 	.db #0x0A
   2789 9A                11887 	.db #0x9A
   278A A0                11888 	.db #0xA0
   278B 0C                11889 	.db #0x0C
   278C 84                11890 	.db #0x84
   278D A7                11891 	.db #0xA7
   278E 8E                11892 	.db #0x8E
   278F 9F                11893 	.db #0x9F
   2790 18                11894 	.db #0x18
   2791 B2                11895 	.db #0xB2
   2792 2D                11896 	.db #0x2D
   2793 FF                11897 	.db #0xFF
   2794 15                11898 	.db #0x15
   2795 07                11899 	.db #0x07
   2796 28                11900 	.db #0x28
   2797 9B                11901 	.db #0x9B
   2798 55                11902 	.db #0x55
   2799 D0                11903 	.db #0xD0
   279A 8B                11904 	.db #0x8B
   279B 90                11905 	.db #0x90
   279C D0                11906 	.db #0xD0
   279D 74                11907 	.db #0x74
   279E 43                11908 	.db #0x43
   279F 68                11909 	.db #0x68
   27A0 20                11910 	.db #0x20
   27A1 28                11911 	.db #0x28
   27A2 71                11912 	.db #0x71
   27A3 A8                11913 	.db #0xA8
   27A4 90                11914 	.db #0x90
   27A5 43                11915 	.db #0x43
   27A6 AA                11916 	.db #0xAA
   27A7 BC                11917 	.db #0xBC
   27A8 DC                11918 	.db #0xDC
   27A9 4F                11919 	.db #0x4F
   27AA 79                11920 	.db #0x79
   27AB FE                11921 	.db #0xFE
   27AC 42                11922 	.db #0x42
   27AD 75                11923 	.db #0x75
   27AE DA                11924 	.db #0xDA
   27AF 2A                11925 	.db #0x2A
   27B0 62                11926 	.db #0x62
   27B1 12                11927 	.db #0x12
   27B2 7E                11928 	.db #0x7E
   27B3 A2                11929 	.db #0xA2
   27B4 39                11930 	.db #0x39
   27B5 1D                11931 	.db #0x1D
   27B6 8F                11932 	.db #0x8F
   27B7 A6                11933 	.db #0xA6
   27B8 7C                11934 	.db #0x7C
   27B9 B1                11935 	.db #0xB1
   27BA 6A                11936 	.db #0x6A
   27BB CC                11937 	.db #0xCC
   27BC 78                11938 	.db #0x78
   27BD 0A                11939 	.db #0x0A
   27BE 8D                11940 	.db #0x8D
   27BF 5F                11941 	.db #0x5F
   27C0 94                11942 	.db #0x94
   27C1 7C                11943 	.db #0x7C
   27C2 E0                11944 	.db #0xE0
   27C3 F0                11945 	.db #0xF0
   27C4 87                11946 	.db #0x87
   27C5 F9                11947 	.db #0xF9
   27C6 3E                11948 	.db #0x3E
   27C7 2E                11949 	.db #0x2E
   27C8 88                11950 	.db #0x88
   27C9 77                11951 	.db #0x77
   27CA 12                11952 	.db #0x12
   27CB 2F                11953 	.db #0x2F
   27CC 4D                11954 	.db #0x4D
   27CD 85                11955 	.db #0x85
   27CE AF                11956 	.db #0xAF
   27CF 26                11957 	.db #0x26
   27D0 68                11958 	.db #0x68
   27D1 85                11959 	.db #0x85
   27D2 B2                11960 	.db #0xB2
   27D3 4B                11961 	.db #0x4B
   27D4 88                11962 	.db #0x88
   27D5 F3                11963 	.db #0xF3
   27D6 3D                11964 	.db #0x3D
   27D7 D5                11965 	.db #0xD5
   27D8 D8                11966 	.db #0xD8
   27D9 AF                11967 	.db #0xAF
   27DA DC                11968 	.db #0xDC
   27DB 5F                11969 	.db #0x5F
   27DC F3                11970 	.db #0xF3
   27DD 50                11971 	.db #0x50
   27DE 51                11972 	.db #0x51
   27DF CE                11973 	.db #0xCE
   27E0 AD                11974 	.db #0xAD
   27E1 89                11975 	.db #0x89
   27E2 B5                11976 	.db #0xB5
   27E3 FC                11977 	.db #0xFC
   27E4 DC                11978 	.db #0xDC
   27E5 ED                11979 	.db #0xED
   27E6 16                11980 	.db #0x16
   27E7 DB                11981 	.db #0xDB
   27E8 55                11982 	.db #0x55
   27E9 66                11983 	.db #0x66
   27EA A1                11984 	.db #0xA1
   27EB 73                11985 	.db #0x73
   27EC 8E                11986 	.db #0x8E
   27ED 74                11987 	.db #0x74
   27EE EB                11988 	.db #0xEB
   27EF 33                11989 	.db #0x33
   27F0 1C                11990 	.db #0x1C
   27F1 F0                11991 	.db #0xF0
   27F2 F9                11992 	.db #0xF9
   27F3 15                11993 	.db #0x15
   27F4 37                11994 	.db #0x37
   27F5 C0                11995 	.db #0xC0
   27F6 45                11996 	.db #0x45
   27F7 7B                11997 	.db #0x7B
   27F8 CA                11998 	.db #0xCA
   27F9 D3                11999 	.db #0xD3
   27FA E1                12000 	.db #0xE1
   27FB B5                12001 	.db #0xB5
   27FC CA                12002 	.db #0xCA
   27FD 03                12003 	.db #0x03
   27FE 19                12004 	.db #0x19
   27FF 19                12005 	.db #0x19
   2800 98                12006 	.db #0x98
   2801 C5                12007 	.db #0xC5
   2802 DE                12008 	.db #0xDE
   2803 B8                12009 	.db #0xB8
   2804 0E                12010 	.db #0x0E
   2805 16                12011 	.db #0x16
   2806 08                12012 	.db #0x08
   2807 0A                12013 	.db #0x0A
   2808 06                12014 	.db #0x06
   2809 04                12015 	.db #0x04
   280A 3E                12016 	.db #0x3E
   280B C0                12017 	.db #0xC0
   280C 3E                12018 	.db #0x3E
   280D A7                12019 	.db #0xA7
   280E 11                12020 	.db #0x11
   280F BE                12021 	.db #0xBE
   2810 BE                12022 	.db #0xBE
   2811 01                12023 	.db #0x01
   2812 FE                12024 	.db #0xFE
   2813 0C                12025 	.db #0x0C
   2814 04                12026 	.db #0x04
   2815 47                12027 	.db #0x47
   2816 F9                12028 	.db #0xF9
   2817 BF                12029 	.db #0xBF
   2818 5C                12030 	.db #0x5C
   2819 97                12031 	.db #0x97
   281A 84                12032 	.db #0x84
   281B 15                12033 	.db #0x15
   281C B0                12034 	.db #0xB0
   281D 68                12035 	.db #0x68
   281E B5                12036 	.db #0xB5
   281F B8                12037 	.db #0xB8
   2820 B7                12038 	.db #0xB7
   2821 6D                12039 	.db #0x6D
   2822 41                12040 	.db #0x41
   2823 31                12041 	.db #0x31
   2824 A2                12042 	.db #0xA2
   2825 0C                12043 	.db #0x0C
   2826 A0                12044 	.db #0xA0
   2827 64                12045 	.db #0x64
   2828 EC                12046 	.db #0xEC
   2829 30                12047 	.db #0x30
   282A 49                12048 	.db #0x49
   282B 7E                12049 	.db #0x7E
   282C 21                12050 	.db #0x21
   282D DF                12051 	.db #0xDF
   282E 70                12052 	.db #0x70
   282F 88                12053 	.db #0x88
   2830 85                12054 	.db #0x85
   2831 41                12055 	.db #0x41
   2832 D3                12056 	.db #0xD3
   2833 47                12057 	.db #0x47
   2834 A0                12058 	.db #0xA0
   2835 65                12059 	.db #0x65
   2836 85                12060 	.db #0x85
   2837 EF                12061 	.db #0xEF
   2838 5F                12062 	.db #0x5F
   2839 EB                12063 	.db #0xEB
   283A E5                12064 	.db #0xE5
   283B F6                12065 	.db #0xF6
   283C 93                12066 	.db #0x93
   283D 3A                12067 	.db #0x3A
   283E 84                12068 	.db #0x84
   283F 9D                12069 	.db #0x9D
   2840 BF                12070 	.db #0xBF
   2841 B6                12071 	.db #0xB6
   2842 4D                12072 	.db #0x4D
   2843 B5                12073 	.db #0xB5
   2844 A2                12074 	.db #0xA2
   2845 4D                12075 	.db #0x4D
   2846 64                12076 	.db #0x64
   2847 5A                12077 	.db #0x5A
   2848 EC                12078 	.db #0xEC
   2849 8E                12079 	.db #0x8E
   284A 67                12080 	.db #0x67
   284B DA                12081 	.db #0xDA
   284C 9B                12082 	.db #0x9B
   284D E6                12083 	.db #0xE6
   284E 21                12084 	.db #0x21
   284F 6E                12085 	.db #0x6E
   2850 C4                12086 	.db #0xC4
   2851 25                12087 	.db #0x25
   2852 C6                12088 	.db #0xC6
   2853 67                12089 	.db #0x67
   2854 0A                12090 	.db #0x0A
   2855 49                12091 	.db #0x49
   2856 C3                12092 	.db #0xC3
   2857 80                12093 	.db #0x80
   2858 FA                12094 	.db #0xFA
   2859 B0                12095 	.db #0xB0
   285A EC                12096 	.db #0xEC
   285B FC                12097 	.db #0xFC
   285C 2C                12098 	.db #0x2C
   285D BE                12099 	.db #0xBE
   285E 96                12100 	.db #0x96
   285F F6                12101 	.db #0xF6
   2860 B4                12102 	.db #0xB4
   2861 33                12103 	.db #0x33
   2862 F9                12104 	.db #0xF9
   2863 A8                12105 	.db #0xA8
   2864 76                12106 	.db #0x76
   2865 37                12107 	.db #0x37
   2866 3A                12108 	.db #0x3A
   2867 7D                12109 	.db #0x7D
   2868 11                12110 	.db #0x11
   2869 8B                12111 	.db #0x8B
   286A F6                12112 	.db #0xF6
   286B 70                12113 	.db #0x70
   286C 18                12114 	.db #0x18
   286D 4F                12115 	.db #0x4F
   286E A9                12116 	.db #0xA9
   286F 66                12117 	.db #0x66
   2870 6E                12118 	.db #0x6E
   2871 B4                12119 	.db #0xB4
   2872 A5                12120 	.db #0xA5
   2873 B4                12121 	.db #0xB4
   2874 86                12122 	.db #0x86
   2875 0D                12123 	.db #0x0D
   2876 9C                12124 	.db #0x9C
   2877 8F                12125 	.db #0x8F
   2878 CC                12126 	.db #0xCC
   2879 19                12127 	.db #0x19
   287A 1C                12128 	.db #0x1C
   287B 4B                12129 	.db #0x4B
   287C 9E                12130 	.db #0x9E
   287D CB                12131 	.db #0xCB
   287E FE                12132 	.db #0xFE
   287F 18                12133 	.db #0x18
   2880 FD                12134 	.db #0xFD
   2881 03                12135 	.db #0x03
   2882 C8                12136 	.db #0xC8
   2883 91                12137 	.db #0x91
   2884 0C                12138 	.db #0x0C
   2885 DD                12139 	.db #0xDD
   2886 2B                12140 	.db #0x2B
   2887 F1                12141 	.db #0xF1
   2888 E2                12142 	.db #0xE2
   2889 8E                12143 	.db #0x8E
   288A FD                12144 	.db #0xFD
   288B 8F                12145 	.db #0x8F
   288C 31                12146 	.db #0x31
   288D 77                12147 	.db #0x77
   288E 98                12148 	.db #0x98
   288F 04                12149 	.db #0x04
   2890 BD                12150 	.db #0xBD
   2891 38                12151 	.db #0x38
   2892 3C                12152 	.db #0x3C
   2893 33                12153 	.db #0x33
   2894 80                12154 	.db #0x80
   2895 39                12155 	.db #0x39
   2896 5F                12156 	.db #0x5F
   2897 0A                12157 	.db #0x0A
   2898 D9                12158 	.db #0xD9
   2899 D9                12159 	.db #0xD9
   289A 3F                12160 	.db #0x3F
   289B 2C                12161 	.db #0x2C
   289C 45                12162 	.db #0x45
   289D 39                12163 	.db #0x39
   289E 35                12164 	.db #0x35
   289F 65                12165 	.db #0x65
   28A0 1D                12166 	.db #0x1D
   28A1 16                12167 	.db #0x16
   28A2 63                12168 	.db #0x63
   28A3 67                12169 	.db #0x67
   28A4 3F                12170 	.db #0x3F
   28A5 FB                12171 	.db #0xFB
   28A6 B4                12172 	.db #0xB4
   28A7 F1                12173 	.db #0xF1
   28A8 A1                12174 	.db #0xA1
   28A9 14                12175 	.db #0x14
   28AA D1                12176 	.db #0xD1
   28AB 35                12177 	.db #0x35
   28AC E0                12178 	.db #0xE0
   28AD BB                12179 	.db #0xBB
   28AE B9                12180 	.db #0xB9
   28AF 1F                12181 	.db #0x1F
   28B0 00                12182 	.db #0x00
   28B1 83                12183 	.db #0x83
   28B2 AF                12184 	.db #0xAF
   28B3 70                12185 	.db #0x70
   28B4 73                12186 	.db #0x73
   28B5 B7                12187 	.db #0xB7
   28B6 2C                12188 	.db #0x2C
   28B7 20                12189 	.db #0x20
   28B8 2A                12190 	.db #0x2A
   28B9 72                12191 	.db #0x72
   28BA 19                12192 	.db #0x19
   28BB 0A                12193 	.db #0x0A
   28BC 2D                12194 	.db #0x2D
   28BD BF                12195 	.db #0xBF
   28BE F1                12196 	.db #0xF1
   28BF 10                12197 	.db #0x10
   28C0 BB                12198 	.db #0xBB
   28C1 3F                12199 	.db #0x3F
   28C2 EF                12200 	.db #0xEF
   28C3 FB                12201 	.db #0xFB
   28C4 E1                12202 	.db #0xE1
   28C5 00                12203 	.db #0x00
   28C6 B3                12204 	.db #0xB3
   28C7 C6                12205 	.db #0xC6
   28C8 A3                12206 	.db #0xA3
   28C9 9B                12207 	.db #0x9B
   28CA 9F                12208 	.db #0x9F
   28CB 11                12209 	.db #0x11
   28CC 04                12210 	.db #0x04
   28CD 48                12211 	.db #0x48
   28CE 91                12212 	.db #0x91
   28CF 82                12213 	.db #0x82
   28D0 2E                12214 	.db #0x2E
   28D1 E6                12215 	.db #0xE6
   28D2 FA                12216 	.db #0xFA
   28D3 74                12217 	.db #0x74
   28D4 0F                12218 	.db #0x0F
   28D5 B8                12219 	.db #0xB8
   28D6 FE                12220 	.db #0xFE
   28D7 35                12221 	.db #0x35
   28D8 41                12222 	.db #0x41
   28D9 DA                12223 	.db #0xDA
   28DA A4                12224 	.db #0xA4
   28DB 7D                12225 	.db #0x7D
   28DC 64                12226 	.db #0x64
   28DD 84                12227 	.db #0x84
   28DE 68                12228 	.db #0x68
   28DF 90                12229 	.db #0x90
   28E0 02                12230 	.db #0x02
   28E1 EF                12231 	.db #0xEF
   28E2 E8                12232 	.db #0xE8
   28E3 57                12233 	.db #0x57
   28E4 E0                12234 	.db #0xE0
   28E5 F3                12235 	.db #0xF3
   28E6 0A                12236 	.db #0x0A
   28E7 B3                12237 	.db #0xB3
   28E8 61                12238 	.db #0x61
   28E9 78                12239 	.db #0x78
   28EA A8                12240 	.db #0xA8
   28EB 01                12241 	.db #0x01
   28EC 66                12242 	.db #0x66
   28ED 3D                12243 	.db #0x3D
   28EE 89                12244 	.db #0x89
   28EF 2C                12245 	.db #0x2C
   28F0 47                12246 	.db #0x47
   28F1 B0                12247 	.db #0xB0
   28F2 1D                12248 	.db #0x1D
   28F3 A0                12249 	.db #0xA0
   28F4 B5                12250 	.db #0xB5
   28F5 5E                12251 	.db #0x5E
   28F6 DA                12252 	.db #0xDA
   28F7 AB                12253 	.db #0xAB
   28F8 C9                12254 	.db #0xC9
   28F9 7E                12255 	.db #0x7E
   28FA 1B                12256 	.db #0x1B
   28FB 4F                12257 	.db #0x4F
   28FC 5C                12258 	.db #0x5C
   28FD 80                12259 	.db #0x80
   28FE 2B                12260 	.db #0x2B
   28FF 4C                12261 	.db #0x4C
   2900 9C                12262 	.db #0x9C
   2901 DB                12263 	.db #0xDB
   2902 A0                12264 	.db #0xA0
   2903 42                12265 	.db #0x42
   2904 9E                12266 	.db #0x9E
   2905 53                12267 	.db #0x53
   2906 AC                12268 	.db #0xAC
   2907 C0                12269 	.db #0xC0
   2908 A8                12270 	.db #0xA8
   2909 6E                12271 	.db #0x6E
   290A BE                12272 	.db #0xBE
   290B 9E                12273 	.db #0x9E
   290C 95                12274 	.db #0x95
   290D 67                12275 	.db #0x67
   290E 9E                12276 	.db #0x9E
   290F CB                12277 	.db #0xCB
   2910 C7                12278 	.db #0xC7
   2911 51                12279 	.db #0x51
   2912 D7                12280 	.db #0xD7
   2913 23                12281 	.db #0x23
   2914 F7                12282 	.db #0xF7
   2915 F8                12283 	.db #0xF8
   2916 D4                12284 	.db #0xD4
   2917 75                12285 	.db #0x75
   2918 03                12286 	.db #0x03
   2919 26                12287 	.db #0x26
   291A CC                12288 	.db #0xCC
   291B E1                12289 	.db #0xE1
   291C CB                12290 	.db #0xCB
   291D 6E                12291 	.db #0x6E
   291E 1E                12292 	.db #0x1E
   291F 0C                12293 	.db #0x0C
   2920 1B                12294 	.db #0x1B
   2921 E5                12295 	.db #0xE5
   2922 DC                12296 	.db #0xDC
   2923 FE                12297 	.db #0xFE
   2924 41                12298 	.db #0x41
   2925 CC                12299 	.db #0xCC
   2926 81                12300 	.db #0x81
   2927 50                12301 	.db #0x50
   2928 56                12302 	.db #0x56
   2929 F0                12303 	.db #0xF0
   292A 26                12304 	.db #0x26
   292B 26                12305 	.db #0x26
   292C FC                12306 	.db #0xFC
   292D E5                12307 	.db #0xE5
   292E 59                12308 	.db #0x59
   292F ED                12309 	.db #0xED
   2930 13                12310 	.db #0x13
   2931 91                12311 	.db #0x91
   2932 B8                12312 	.db #0xB8
   2933 D6                12313 	.db #0xD6
   2934 F8                12314 	.db #0xF8
   2935 5F                12315 	.db #0x5F
   2936 DA                12316 	.db #0xDA
   2937 74                12317 	.db #0x74
   2938 DD                12318 	.db #0xDD
   2939 A2                12319 	.db #0xA2
   293A 1D                12320 	.db #0x1D
   293B DE                12321 	.db #0xDE
   293C D9                12322 	.db #0xD9
   293D B9                12323 	.db #0xB9
   293E FC                12324 	.db #0xFC
   293F 76                12325 	.db #0x76
   2940 7A                12326 	.db #0x7A
   2941 5E                12327 	.db #0x5E
   2942 85                12328 	.db #0x85
   2943 34                12329 	.db #0x34
   2944 0C                12330 	.db #0x0C
   2945 9D                12331 	.db #0x9D
   2946 BB                12332 	.db #0xBB
   2947 32                12333 	.db #0x32
   2948 C7                12334 	.db #0xC7
   2949 D3                12335 	.db #0xD3
   294A DE                12336 	.db #0xDE
   294B FD                12337 	.db #0xFD
   294C DE                12338 	.db #0xDE
   294D 23                12339 	.db #0x23
   294E 38                12340 	.db #0x38
   294F 18                12341 	.db #0x18
   2950 6D                12342 	.db #0x6D
   2951 AF                12343 	.db #0xAF
   2952 A5                12344 	.db #0xA5
   2953 CE                12345 	.db #0xCE
   2954 13                12346 	.db #0x13
   2955 86                12347 	.db #0x86
   2956 0A                12348 	.db #0x0A
   2957 62                12349 	.db #0x62
   2958 CD                12350 	.db #0xCD
   2959 1A                12351 	.db #0x1A
   295A D6                12352 	.db #0xD6
   295B 64                12353 	.db #0x64
   295C 0E                12354 	.db #0x0E
   295D 37                12355 	.db #0x37
   295E 60                12356 	.db #0x60
   295F 67                12357 	.db #0x67
   2960 6A                12358 	.db #0x6A
   2961 53                12359 	.db #0x53
   2962 7D                12360 	.db #0x7D
   2963 71                12361 	.db #0x71
   2964 88                12362 	.db #0x88
   2965 0B                12363 	.db #0x0B
   2966 30                12364 	.db #0x30
   2967 97                12365 	.db #0x97
   2968 7C                12366 	.db #0x7C
   2969 F8                12367 	.db #0xF8
   296A FB                12368 	.db #0xFB
   296B EE                12369 	.db #0xEE
   296C 9A                12370 	.db #0x9A
   296D 39                12371 	.db #0x39
   296E CE                12372 	.db #0xCE
   296F 82                12373 	.db #0x82
   2970 91                12374 	.db #0x91
   2971 E9                12375 	.db #0xE9
   2972 42                12376 	.db #0x42
   2973 60                12377 	.db #0x60
   2974 28                12378 	.db #0x28
   2975 3C                12379 	.db #0x3C
   2976 E6                12380 	.db #0xE6
   2977 27                12381 	.db #0x27
   2978 69                12382 	.db #0x69
   2979 61                12383 	.db #0x61
   297A A7                12384 	.db #0xA7
   297B D0                12385 	.db #0xD0
   297C 84                12386 	.db #0x84
   297D 48                12387 	.db #0x48
   297E 3A                12388 	.db #0x3A
   297F 7B                12389 	.db #0x7B
   2980 CC                12390 	.db #0xCC
   2981 9B                12391 	.db #0x9B
   2982 62                12392 	.db #0x62
   2983 1B                12393 	.db #0x1B
   2984 79                12394 	.db #0x79
   2985 88                12395 	.db #0x88
   2986 67                12396 	.db #0x67
   2987 3A                12397 	.db #0x3A
   2988 C3                12398 	.db #0xC3
   2989 C9                12399 	.db #0xC9
   298A BB                12400 	.db #0xBB
   298B 11                12401 	.db #0x11
   298C 7B                12402 	.db #0x7B
   298D 6E                12403 	.db #0x6E
   298E 3A                12404 	.db #0x3A
   298F 0C                12405 	.db #0x0C
   2990 C9                12406 	.db #0xC9
   2991 7B                12407 	.db #0x7B
   2992 0D                12408 	.db #0x0D
   2993 0C                12409 	.db #0x0C
   2994 37                12410 	.db #0x37
   2995 9B                12411 	.db #0x9B
   2996 9C                12412 	.db #0x9C
   2997 50                12413 	.db #0x50
   2998 25                12414 	.db #0x25
   2999 05                12415 	.db #0x05
   299A 41                12416 	.db #0x41
   299B 0C                12417 	.db #0x0C
   299C B4                12418 	.db #0xB4
   299D E9                12419 	.db #0xE9
   299E 85                12420 	.db #0x85
   299F 1E                12421 	.db #0x1E
   29A0 D1                12422 	.db #0xD1
   29A1 5A                12423 	.db #0x5A
   29A2 A8                12424 	.db #0xA8
   29A3 F7                12425 	.db #0xF7
   29A4 54                12426 	.db #0x54
   29A5 C7                12427 	.db #0xC7
   29A6 A2                12428 	.db #0xA2
   29A7 2F                12429 	.db #0x2F
   29A8 19                12430 	.db #0x19
   29A9 00                12431 	.db #0x00
   29AA 83                12432 	.db #0x83
   29AB 92                12433 	.db #0x92
   29AC A3                12434 	.db #0xA3
   29AD 14                12435 	.db #0x14
   29AE 3C                12436 	.db #0x3C
   29AF 71                12437 	.db #0x71
   29B0 D5                12438 	.db #0xD5
   29B1 A3                12439 	.db #0xA3
   29B2 E5                12440 	.db #0xE5
   29B3 A4                12441 	.db #0xA4
   29B4 08                12442 	.db #0x08
   29B5 F4                12443 	.db #0xF4
   29B6 C7                12444 	.db #0xC7
   29B7 58                12445 	.db #0x58
   29B8 F1                12446 	.db #0xF1
   29B9 69                12447 	.db #0x69
   29BA FC                12448 	.db #0xFC
   29BB C1                12449 	.db #0xC1
   29BC 7D                12450 	.db #0x7D
   29BD 6E                12451 	.db #0x6E
   29BE 51                12452 	.db #0x51
   29BF EB                12453 	.db #0xEB
   29C0 82                12454 	.db #0x82
   29C1 D5                12455 	.db #0xD5
   29C2 98                12456 	.db #0x98
   29C3 5E                12457 	.db #0x5E
   29C4 FA                12458 	.db #0xFA
   29C5 24                12459 	.db #0x24
   29C6 0C                12460 	.db #0x0C
   29C7 6C                12461 	.db #0x6C
   29C8 00                12462 	.db #0x00
   29C9 19                12463 	.db #0x19
   29CA 3D                12464 	.db #0x3D
   29CB A3                12465 	.db #0xA3
   29CC 64                12466 	.db #0x64
   29CD 94                12467 	.db #0x94
   29CE 0D                12468 	.db #0x0D
   29CF BC                12469 	.db #0xBC
   29D0 CC                12470 	.db #0xCC
   29D1 13                12471 	.db #0x13
   29D2 1C                12472 	.db #0x1C
   29D3 97                12473 	.db #0x97
   29D4 DD                12474 	.db #0xDD
   29D5 EB                12475 	.db #0xEB
   29D6 F8                12476 	.db #0xF8
   29D7 0D                12477 	.db #0x0D
   29D8 94                12478 	.db #0x94
   29D9 47                12479 	.db #0x47
   29DA D9                12480 	.db #0xD9
   29DB 9C                12481 	.db #0x9C
   29DC F6                12482 	.db #0xF6
   29DD 0A                12483 	.db #0x0A
   29DE 33                12484 	.db #0x33
   29DF 32                12485 	.db #0x32
   29E0 16                12486 	.db #0x16
   29E1 D4                12487 	.db #0xD4
   29E2 D0                12488 	.db #0xD0
   29E3 01                12489 	.db #0x01
   29E4 96                12490 	.db #0x96
   29E5 39                12491 	.db #0x39
   29E6 64                12492 	.db #0x64
   29E7 17                12493 	.db #0x17
   29E8 68                12494 	.db #0x68
   29E9 2B                12495 	.db #0x2B
   29EA 2E                12496 	.db #0x2E
   29EB 51                12497 	.db #0x51
   29EC E7                12498 	.db #0xE7
   29ED AD                12499 	.db #0xAD
   29EE 85                12500 	.db #0x85
   29EF 3A                12501 	.db #0x3A
   29F0 B9                12502 	.db #0xB9
   29F1 0D                12503 	.db #0x0D
   29F2 7A                12504 	.db #0x7A
   29F3 DB                12505 	.db #0xDB
   29F4 E8                12506 	.db #0xE8
   29F5 A8                12507 	.db #0xA8
   29F6 B3                12508 	.db #0xB3
   29F7 C8                12509 	.db #0xC8
   29F8 08                12510 	.db #0x08
   29F9 79                12511 	.db #0x79
   29FA 3D                12512 	.db #0x3D
   29FB 32                12513 	.db #0x32
   29FC D2                12514 	.db #0xD2
   29FD F4                12515 	.db #0xF4
   29FE 38                12516 	.db #0x38
   29FF C2                12517 	.db #0xC2
   2A00 A4                12518 	.db #0xA4
   2A01 75                12519 	.db #0x75
   2A02 36                12520 	.db #0x36
   2A03 FD                12521 	.db #0xFD
   2A04 26                12522 	.db #0x26
   2A05 8B                12523 	.db #0x8B
   2A06 17                12524 	.db #0x17
   2A07 8D                12525 	.db #0x8D
   2A08 DD                12526 	.db #0xDD
   2A09 7D                12527 	.db #0x7D
   2A0A 7A                12528 	.db #0x7A
   2A0B D9                12529 	.db #0xD9
   2A0C A2                12530 	.db #0xA2
   2A0D E5                12531 	.db #0xE5
   2A0E B8                12532 	.db #0xB8
   2A0F 6B                12533 	.db #0x6B
   2A10 4C                12534 	.db #0x4C
   2A11 83                12535 	.db #0x83
   2A12 D3                12536 	.db #0xD3
   2A13 69                12537 	.db #0x69
   2A14 97                12538 	.db #0x97
   2A15 B3                12539 	.db #0xB3
   2A16 66                12540 	.db #0x66
   2A17 CF                12541 	.db #0xCF
   2A18 EF                12542 	.db #0xEF
   2A19 5E                12543 	.db #0x5E
   2A1A 22                12544 	.db #0x22
   2A1B ED                12545 	.db #0xED
   2A1C E8                12546 	.db #0xE8
   2A1D 82                12547 	.db #0x82
   2A1E C5                12548 	.db #0xC5
   2A1F AE                12549 	.db #0xAE
   2A20 CA                12550 	.db #0xCA
   2A21 C7                12551 	.db #0xC7
   2A22 32                12552 	.db #0x32
   2A23 B8                12553 	.db #0xB8
   2A24 94                12554 	.db #0x94
   2A25 66                12555 	.db #0x66
   2A26 42                12556 	.db #0x42
   2A27 8A                12557 	.db #0x8A
   2A28 B1                12558 	.db #0xB1
   2A29 3C                12559 	.db #0x3C
   2A2A BA                12560 	.db #0xBA
   2A2B A9                12561 	.db #0xA9
   2A2C ED                12562 	.db #0xED
   2A2D 02                12563 	.db #0x02
   2A2E EB                12564 	.db #0xEB
   2A2F 5E                12565 	.db #0x5E
   2A30 5C                12566 	.db #0x5C
   2A31 06                12567 	.db #0x06
   2A32 3A                12568 	.db #0x3A
   2A33 69                12569 	.db #0x69
   2A34 F6                12570 	.db #0xF6
   2A35 2D                12571 	.db #0x2D
   2A36 0B                12572 	.db #0x0B
   2A37 7A                12573 	.db #0x7A
   2A38 1E                12574 	.db #0x1E
   2A39 4E                12575 	.db #0x4E
   2A3A B6                12576 	.db #0xB6
   2A3B 70                12577 	.db #0x70
   2A3C CF                12578 	.db #0xCF
   2A3D 08                12579 	.db #0x08
   2A3E 61                12580 	.db #0x61
   2A3F 47                12581 	.db #0x47
   2A40 72                12582 	.db #0x72
   2A41 32                12583 	.db #0x32
   2A42 28                12584 	.db #0x28
   2A43 DC                12585 	.db #0xDC
   2A44 67                12586 	.db #0x67
   2A45 17                12587 	.db #0x17
   2A46 D8                12588 	.db #0xD8
   2A47 43                12589 	.db #0x43
   2A48 CF                12590 	.db #0xCF
   2A49 40                12591 	.db #0x40
   2A4A 00                12592 	.db #0x00
   2A4B 19                12593 	.db #0x19
   2A4C 64                12594 	.db #0x64
   2A4D 89                12595 	.db #0x89
   2A4E F2                12596 	.db #0xF2
   2A4F 7A                12597 	.db #0x7A
   2A50 5B                12598 	.db #0x5B
   2A51 B6                12599 	.db #0xB6
   2A52 C4                12600 	.db #0xC4
   2A53 4C                12601 	.db #0x4C
   2A54 06                12602 	.db #0x06
   2A55 F7                12603 	.db #0xF7
   2A56 60                12604 	.db #0x60
   2A57 2F                12605 	.db #0x2F
   2A58 21                12606 	.db #0x21
   2A59 BB                12607 	.db #0xBB
   2A5A 43                12608 	.db #0x43
   2A5B E8                12609 	.db #0xE8
   2A5C 7B                12610 	.db #0x7B
   2A5D E7                12611 	.db #0xE7
   2A5E 69                12612 	.db #0x69
   2A5F 90                12613 	.db #0x90
   2A60 C4                12614 	.db #0xC4
   2A61 E7                12615 	.db #0xE7
   2A62 40                12616 	.db #0x40
   2A63 48                12617 	.db #0x48
   2A64 57                12618 	.db #0x57
   2A65 50                12619 	.db #0x50
   2A66 77                12620 	.db #0x77
   2A67 85                12621 	.db #0x85
   2A68 26                12622 	.db #0x26
   2A69 56                12623 	.db #0x56
   2A6A B2                12624 	.db #0xB2
   2A6B 2D                12625 	.db #0x2D
   2A6C 28                12626 	.db #0x28
   2A6D CD                12627 	.db #0xCD
   2A6E 8D                12628 	.db #0x8D
   2A6F D3                12629 	.db #0xD3
   2A70 6D                12630 	.db #0x6D
   2A71 3D                12631 	.db #0x3D
   2A72 BF                12632 	.db #0xBF
   2A73 EF                12633 	.db #0xEF
   2A74 0E                12634 	.db #0x0E
   2A75 60                12635 	.db #0x60
   2A76 FE                12636 	.db #0xFE
   2A77 5E                12637 	.db #0x5E
   2A78 E8                12638 	.db #0xE8
   2A79 30                12639 	.db #0x30
   2A7A 8B                12640 	.db #0x8B
   2A7B B5                12641 	.db #0xB5
   2A7C 3A                12642 	.db #0x3A
   2A7D 74                12643 	.db #0x74
   2A7E F3                12644 	.db #0xF3
   2A7F A0                12645 	.db #0xA0
   2A80 7D                12646 	.db #0x7D
   2A81 F0                12647 	.db #0xF0
   2A82 70                12648 	.db #0x70
   2A83 4E                12649 	.db #0x4E
   2A84 4C                12650 	.db #0x4C
   2A85 16                12651 	.db #0x16
   2A86 5A                12652 	.db #0x5A
   2A87 AF                12653 	.db #0xAF
   2A88 9D                12654 	.db #0x9D
   2A89 BA                12655 	.db #0xBA
   2A8A C8                12656 	.db #0xC8
   2A8B DE                12657 	.db #0xDE
   2A8C 9D                12658 	.db #0x9D
   2A8D 8A                12659 	.db #0x8A
   2A8E 80                12660 	.db #0x80
   2A8F C1                12661 	.db #0xC1
   2A90 A5                12662 	.db #0xA5
   2A91 3C                12663 	.db #0x3C
   2A92 BD                12664 	.db #0xBD
   2A93 6D                12665 	.db #0x6D
   2A94 38                12666 	.db #0x38
   2A95 76                12667 	.db #0x76
   2A96 28                12668 	.db #0x28
   2A97 13                12669 	.db #0x13
   2A98 0A                12670 	.db #0x0A
   2A99 E1                12671 	.db #0xE1
   2A9A 89                12672 	.db #0x89
   2A9B F1                12673 	.db #0xF1
   2A9C 17                12674 	.db #0x17
   2A9D 56                12675 	.db #0x56
   2A9E 9C                12676 	.db #0x9C
   2A9F 6A                12677 	.db #0x6A
   2AA0 73                12678 	.db #0x73
   2AA1 03                12679 	.db #0x03
   2AA2 12                12680 	.db #0x12
   2AA3 0A                12681 	.db #0x0A
   2AA4 D3                12682 	.db #0xD3
   2AA5 AB                12683 	.db #0xAB
   2AA6 58                12684 	.db #0x58
   2AA7 86                12685 	.db #0x86
   2AA8 42                12686 	.db #0x42
   2AA9 B6                12687 	.db #0xB6
   2AAA E5                12688 	.db #0xE5
   2AAB 98                12689 	.db #0x98
   2AAC AC                12690 	.db #0xAC
   2AAD 61                12691 	.db #0x61
   2AAE F0                12692 	.db #0xF0
   2AAF D5                12693 	.db #0xD5
   2AB0 D4                12694 	.db #0xD4
   2AB1 25                12695 	.db #0x25
   2AB2 00                12696 	.db #0x00
   2AB3 64                12697 	.db #0x64
   2AB4 EF                12698 	.db #0xEF
   2AB5 0D                12699 	.db #0x0D
   2AB6 4D                12700 	.db #0x4D
   2AB7 65                12701 	.db #0x65
   2AB8 53                12702 	.db #0x53
   2AB9 4C                12703 	.db #0x4C
   2ABA 25                12704 	.db #0x25
   2ABB D7                12705 	.db #0xD7
   2ABC 34                12706 	.db #0x34
   2ABD BB                12707 	.db #0xBB
   2ABE A6                12708 	.db #0xA6
   2ABF ED                12709 	.db #0xED
   2AC0 81                12710 	.db #0x81
   2AC1 00                12711 	.db #0x00
   2AC2 C6                12712 	.db #0xC6
   2AC3 41                12713 	.db #0x41
   2AC4 87                12714 	.db #0x87
   2AC5 09                12715 	.db #0x09
   2AC6 15                12716 	.db #0x15
   2AC7 54                12717 	.db #0x54
   2AC8 4E                12718 	.db #0x4E
   2AC9 D0                12719 	.db #0xD0
   2ACA 88                12720 	.db #0x88
   2ACB F8                12721 	.db #0xF8
   2ACC 1E                12722 	.db #0x1E
   2ACD 4B                12723 	.db #0x4B
   2ACE 2B                12724 	.db #0x2B
   2ACF 7C                12725 	.db #0x7C
   2AD0 20                12726 	.db #0x20
   2AD1 F0                12727 	.db #0xF0
   2AD2 9A                12728 	.db #0x9A
   2AD3 20                12729 	.db #0x20
   2AD4 67                12730 	.db #0x67
   2AD5 D7                12731 	.db #0xD7
   2AD6 18                12732 	.db #0x18
   2AD7 D0                12733 	.db #0xD0
   2AD8 81                12734 	.db #0x81
   2AD9 54                12735 	.db #0x54
   2ADA 05                12736 	.db #0x05
   2ADB 56                12737 	.db #0x56
   2ADC 05                12738 	.db #0x05
   2ADD 0E                12739 	.db #0x0E
   2ADE B3                12740 	.db #0xB3
   2ADF DA                12741 	.db #0xDA
   2AE0 E8                12742 	.db #0xE8
   2AE1 44                12743 	.db #0x44
   2AE2 36                12744 	.db #0x36
   2AE3 1D                12745 	.db #0x1D
   2AE4 6A                12746 	.db #0x6A
   2AE5 87                12747 	.db #0x87
   2AE6 98                12748 	.db #0x98
   2AE7 C1                12749 	.db #0xC1
   2AE8 36                12750 	.db #0x36
   2AE9 C4                12751 	.db #0xC4
   2AEA 78                12752 	.db #0x78
   2AEB F2                12753 	.db #0xF2
   2AEC 77                12754 	.db #0x77
   2AED CB                12755 	.db #0xCB
   2AEE 6E                12756 	.db #0x6E
   2AEF B4                12757 	.db #0xB4
   2AF0 FB                12758 	.db #0xFB
   2AF1 B4                12759 	.db #0xB4
   2AF2 9C                12760 	.db #0x9C
   2AF3 E4                12761 	.db #0xE4
   2AF4 2B                12762 	.db #0x2B
   2AF5 12                12763 	.db #0x12
   2AF6 A9                12764 	.db #0xA9
   2AF7 B3                12765 	.db #0xB3
   2AF8 A5                12766 	.db #0xA5
   2AF9 0A                12767 	.db #0x0A
   2AFA 04                12768 	.db #0x04
   2AFB 69                12769 	.db #0x69
   2AFC 51                12770 	.db #0x51
   2AFD 9B                12771 	.db #0x9B
   2AFE 8D                12772 	.db #0x8D
   2AFF 74                12773 	.db #0x74
   2B00 43                12774 	.db #0x43
   2B01 DC                12775 	.db #0xDC
   2B02 D8                12776 	.db #0xD8
   2B03 DB                12777 	.db #0xDB
   2B04 00                12778 	.db #0x00
   2B05 9D                12779 	.db #0x9D
   2B06 91                12780 	.db #0x91
   2B07 17                12781 	.db #0x17
   2B08 09                12782 	.db #0x09
   2B09 9E                12783 	.db #0x9E
   2B0A 83                12784 	.db #0x83
   2B0B 81                12785 	.db #0x81
   2B0C 4C                12786 	.db #0x4C
   2B0D 5D                12787 	.db #0x5D
   2B0E 99                12788 	.db #0x99
   2B0F D5                12789 	.db #0xD5
   2B10 DC                12790 	.db #0xDC
   2B11 53                12791 	.db #0x53
   2B12 82                12792 	.db #0x82
   2B13 97                12793 	.db #0x97
   2B14 73                12794 	.db #0x73
   2B15 03                12795 	.db #0x03
   2B16 D5                12796 	.db #0xD5
   2B17 75                12797 	.db #0x75
   2B18 2B                12798 	.db #0x2B
   2B19 CE                12799 	.db #0xCE
   2B1A 91                12800 	.db #0x91
   2B1B C3                12801 	.db #0xC3
   2B1C E5                12802 	.db #0xE5
   2B1D 93                12803 	.db #0x93
   2B1E 99                12804 	.db #0x99
   2B1F 7F                12805 	.db #0x7F
   2B20 AE                12806 	.db #0xAE
   2B21 1D                12807 	.db #0x1D
   2B22 DC                12808 	.db #0xDC
   2B23 03                12809 	.db #0x03
   2B24 AE                12810 	.db #0xAE
   2B25 BF                12811 	.db #0xBF
   2B26 04                12812 	.db #0x04
   2B27 24                12813 	.db #0x24
   2B28 6A                12814 	.db #0x6A
   2B29 23                12815 	.db #0x23
   2B2A A6                12816 	.db #0xA6
   2B2B C8                12817 	.db #0xC8
   2B2C 28                12818 	.db #0x28
   2B2D C4                12819 	.db #0xC4
   2B2E 9E                12820 	.db #0x9E
   2B2F BE                12821 	.db #0xBE
   2B30 D1                12822 	.db #0xD1
   2B31 DB                12823 	.db #0xDB
   2B32 E9                12824 	.db #0xE9
   2B33 F0                12825 	.db #0xF0
   2B34 CF                12826 	.db #0xCF
   2B35 A3                12827 	.db #0xA3
   2B36 C9                12828 	.db #0xC9
   2B37 6D                12829 	.db #0x6D
   2B38 23                12830 	.db #0x23
   2B39 EB                12831 	.db #0xEB
   2B3A 77                12832 	.db #0x77
   2B3B 15                12833 	.db #0x15
   2B3C 9D                12834 	.db #0x9D
   2B3D 19                12835 	.db #0x19
   2B3E 75                12836 	.db #0x75
   2B3F 46                12837 	.db #0x46
   2B40 54                12838 	.db #0x54
   2B41 86                12839 	.db #0x86
   2B42 43                12840 	.db #0x43
   2B43 EA                12841 	.db #0xEA
   2B44 E4                12842 	.db #0xE4
   2B45 C7                12843 	.db #0xC7
   2B46 9C                12844 	.db #0x9C
   2B47 92                12845 	.db #0x92
   2B48 24                12846 	.db #0x24
   2B49 43                12847 	.db #0x43
   2B4A 47                12848 	.db #0x47
   2B4B 69                12849 	.db #0x69
   2B4C 1C                12850 	.db #0x1C
   2B4D D1                12851 	.db #0xD1
   2B4E 41                12852 	.db #0x41
   2B4F CA                12853 	.db #0xCA
   2B50 11                12854 	.db #0x11
   2B51 F9                12855 	.db #0xF9
   2B52 3B                12856 	.db #0x3B
   2B53 F3                12857 	.db #0xF3
   2B54 39                12858 	.db #0x39
   2B55 25                12859 	.db #0x25
   2B56 AE                12860 	.db #0xAE
   2B57 BE                12861 	.db #0xBE
   2B58 6E                12862 	.db #0x6E
   2B59 F6                12863 	.db #0xF6
   2B5A CA                12864 	.db #0xCA
   2B5B B6                12865 	.db #0xB6
   2B5C E3                12866 	.db #0xE3
   2B5D 32                12867 	.db #0x32
   2B5E B7                12868 	.db #0xB7
   2B5F 8A                12869 	.db #0x8A
   2B60 40                12870 	.db #0x40
   2B61 E9                12871 	.db #0xE9
   2B62 6B                12872 	.db #0x6B
   2B63 B7                12873 	.db #0xB7
   2B64 55                12874 	.db #0x55
   2B65 9C                12875 	.db #0x9C
   2B66 E1                12876 	.db #0xE1
   2B67 FA                12877 	.db #0xFA
   2B68 9D                12878 	.db #0x9D
   2B69 5C                12879 	.db #0x5C
   2B6A 89                12880 	.db #0x89
   2B6B 05                12881 	.db #0x05
   2B6C C0                12882 	.db #0xC0
   2B6D FD                12883 	.db #0xFD
   2B6E 71                12884 	.db #0x71
   2B6F 9A                12885 	.db #0x9A
   2B70 8C                12886 	.db #0x8C
   2B71 5A                12887 	.db #0x5A
   2B72 C5                12888 	.db #0xC5
   2B73 B0                12889 	.db #0xB0
   2B74 61                12890 	.db #0x61
   2B75 D3                12891 	.db #0xD3
   2B76 3B                12892 	.db #0x3B
   2B77 E7                12893 	.db #0xE7
   2B78 C7                12894 	.db #0xC7
   2B79 61                12895 	.db #0x61
   2B7A 41                12896 	.db #0x41
   2B7B 3D                12897 	.db #0x3D
   2B7C 7D                12898 	.db #0x7D
   2B7D E5                12899 	.db #0xE5
   2B7E 89                12900 	.db #0x89
   2B7F 80                12901 	.db #0x80
   2B80 FB                12902 	.db #0xFB
   2B81 6C                12903 	.db #0x6C
   2B82 C4                12904 	.db #0xC4
   2B83 2A                12905 	.db #0x2A
   2B84 27                12906 	.db #0x27
   2B85 AE                12907 	.db #0xAE
   2B86 76                12908 	.db #0x76
   2B87 6F                12909 	.db #0x6F
   2B88 C8                12910 	.db #0xC8
   2B89 E7                12911 	.db #0xE7
   2B8A 35                12912 	.db #0x35
   2B8B 43                12913 	.db #0x43
   2B8C 5C                12914 	.db #0x5C
   2B8D A4                12915 	.db #0xA4
   2B8E A0                12916 	.db #0xA0
   2B8F 94                12917 	.db #0x94
   2B90 31                12918 	.db #0x31
   2B91 AB                12919 	.db #0xAB
   2B92 46                12920 	.db #0x46
   2B93 E6                12921 	.db #0xE6
   2B94 E8                12922 	.db #0xE8
   2B95 C4                12923 	.db #0xC4
   2B96 D1                12924 	.db #0xD1
   2B97 33                12925 	.db #0x33
   2B98 6C                12926 	.db #0x6C
   2B99 62                12927 	.db #0x62
   2B9A 2E                12928 	.db #0x2E
   2B9B DA                12929 	.db #0xDA
   2B9C AE                12930 	.db #0xAE
   2B9D 05                12931 	.db #0x05
   2B9E A1                12932 	.db #0xA1
   2B9F 82                12933 	.db #0x82
   2BA0 19                12934 	.db #0x19
   2BA1 A5                12935 	.db #0xA5
   2BA2 57                12936 	.db #0x57
   2BA3 AF                12937 	.db #0xAF
   2BA4 FC                12938 	.db #0xFC
   2BA5 9E                12939 	.db #0x9E
   2BA6 A0                12940 	.db #0xA0
   2BA7 FB                12941 	.db #0xFB
   2BA8 F5                12942 	.db #0xF5
   2BA9 47                12943 	.db #0x47
   2BAA 14                12944 	.db #0x14
   2BAB A3                12945 	.db #0xA3
   2BAC D3                12946 	.db #0xD3
   2BAD B8                12947 	.db #0xB8
   2BAE B5                12948 	.db #0xB5
   2BAF 36                12949 	.db #0x36
   2BB0 7D                12950 	.db #0x7D
   2BB1 A1                12951 	.db #0xA1
   2BB2 72                12952 	.db #0x72
   2BB3 C6                12953 	.db #0xC6
   2BB4 8A                12954 	.db #0x8A
   2BB5 41                12955 	.db #0x41
   2BB6 A1                12956 	.db #0xA1
   2BB7 D0                12957 	.db #0xD0
   2BB8 C3                12958 	.db #0xC3
   2BB9 85                12959 	.db #0x85
   2BBA A3                12960 	.db #0xA3
   2BBB 17                12961 	.db #0x17
   2BBC AE                12962 	.db #0xAE
   2BBD 2F                12963 	.db #0x2F
   2BBE 0A                12964 	.db #0x0A
   2BBF A9                12965 	.db #0xA9
   2BC0 AA                12966 	.db #0xAA
   2BC1 4A                12967 	.db #0x4A
   2BC2 7B                12968 	.db #0x7B
   2BC3 24                12969 	.db #0x24
   2BC4 73                12970 	.db #0x73
   2BC5 0F                12971 	.db #0x0F
   2BC6 86                12972 	.db #0x86
   2BC7 82                12973 	.db #0x82
   2BC8 3D                12974 	.db #0x3D
   2BC9 82                12975 	.db #0x82
   2BCA 45                12976 	.db #0x45
   2BCB 16                12977 	.db #0x16
   2BCC 31                12978 	.db #0x31
   2BCD 9F                12979 	.db #0x9F
   2BCE 90                12980 	.db #0x90
   2BCF 64                12981 	.db #0x64
   2BD0 80                12982 	.db #0x80
   2BD1 99                12983 	.db #0x99
   2BD2 74                12984 	.db #0x74
   2BD3 2C                12985 	.db #0x2C
   2BD4 DC                12986 	.db #0xDC
   2BD5 79                12987 	.db #0x79
   2BD6 C2                12988 	.db #0xC2
   2BD7 FE                12989 	.db #0xFE
   2BD8 2A                12990 	.db #0x2A
   2BD9 71                12991 	.db #0x71
   2BDA D7                12992 	.db #0xD7
   2BDB 7F                12993 	.db #0x7F
   2BDC 5B                12994 	.db #0x5B
   2BDD F9                12995 	.db #0xF9
   2BDE 4A                12996 	.db #0x4A
   2BDF 97                12997 	.db #0x97
   2BE0 97                12998 	.db #0x97
   2BE1 88                12999 	.db #0x88
   2BE2 CE                13000 	.db #0xCE
   2BE3 82                13001 	.db #0x82
   2BE4 25                13002 	.db #0x25
   2BE5 86                13003 	.db #0x86
   2BE6 45                13004 	.db #0x45
   2BE7 7B                13005 	.db #0x7B
   2BE8 CD                13006 	.db #0xCD
   2BE9 77                13007 	.db #0x77
   2BEA 8A                13008 	.db #0x8A
   2BEB 47                13009 	.db #0x47
   2BEC AD                13010 	.db #0xAD
   2BED 7F                13011 	.db #0x7F
   2BEE 50                13012 	.db #0x50
   2BEF 1E                13013 	.db #0x1E
   2BF0 71                13014 	.db #0x71
   2BF1 52                13015 	.db #0x52
   2BF2 5F                13016 	.db #0x5F
   2BF3 C0                13017 	.db #0xC0
   2BF4 73                13018 	.db #0x73
   2BF5 64                13019 	.db #0x64
   2BF6 30                13020 	.db #0x30
   2BF7 2E                13021 	.db #0x2E
   2BF8 66                13022 	.db #0x66
   2BF9 E0                13023 	.db #0xE0
   2BFA DA                13024 	.db #0xDA
   2BFB EE                13025 	.db #0xEE
   2BFC BB                13026 	.db #0xBB
   2BFD 4F                13027 	.db #0x4F
   2BFE 1C                13028 	.db #0x1C
   2BFF 6B                13029 	.db #0x6B
   2C00 DF                13030 	.db #0xDF
   2C01 79                13031 	.db #0x79
   2C02 DC                13032 	.db #0xDC
   2C03 FD                13033 	.db #0xFD
   2C04 B8                13034 	.db #0xB8
   2C05 3F                13035 	.db #0x3F
   2C06 6E                13036 	.db #0x6E
   2C07 F8                13037 	.db #0xF8
   2C08 9B                13038 	.db #0x9B
   2C09 36                13039 	.db #0x36
   2C0A 66                13040 	.db #0x66
   2C0B 38                13041 	.db #0x38
   2C0C B8                13042 	.db #0xB8
   2C0D AF                13043 	.db #0xAF
   2C0E 68                13044 	.db #0x68
   2C0F 8B                13045 	.db #0x8B
   2C10 DD                13046 	.db #0xDD
   2C11 AA                13047 	.db #0xAA
   2C12 50                13048 	.db #0x50
   2C13 6E                13049 	.db #0x6E
   2C14 3F                13050 	.db #0x3F
   2C15 4F                13051 	.db #0x4F
   2C16 05                13052 	.db #0x05
   2C17 07                13053 	.db #0x07
   2C18 99                13054 	.db #0x99
   2C19 B9                13055 	.db #0xB9
   2C1A 42                13056 	.db #0x42
   2C1B B2                13057 	.db #0xB2
   2C1C A9                13058 	.db #0xA9
   2C1D 9E                13059 	.db #0x9E
   2C1E CB                13060 	.db #0xCB
   2C1F D9                13061 	.db #0xD9
   2C20 16                13062 	.db #0x16
   2C21 62                13063 	.db #0x62
   2C22 42                13064 	.db #0x42
   2C23 EF                13065 	.db #0xEF
   2C24 66                13066 	.db #0x66
   2C25 99                13067 	.db #0x99
   2C26 EA                13068 	.db #0xEA
   2C27 39                13069 	.db #0x39
   2C28 95                13070 	.db #0x95
   2C29 3A                13071 	.db #0x3A
   2C2A BB                13072 	.db #0xBB
   2C2B A8                13073 	.db #0xA8
   2C2C BE                13074 	.db #0xBE
   2C2D 51                13075 	.db #0x51
   2C2E CC                13076 	.db #0xCC
   2C2F 87                13077 	.db #0x87
   2C30 D1                13078 	.db #0xD1
   2C31 21                13079 	.db #0x21
   2C32 11                13080 	.db #0x11
   2C33 93                13081 	.db #0x93
   2C34 E9                13082 	.db #0xE9
   2C35 D1                13083 	.db #0xD1
   2C36 2C                13084 	.db #0x2C
   2C37 76                13085 	.db #0x76
   2C38 C0                13086 	.db #0xC0
   2C39 D0                13087 	.db #0xD0
   2C3A 87                13088 	.db #0x87
   2C3B 9E                13089 	.db #0x9E
   2C3C 8B                13090 	.db #0x8B
   2C3D A3                13091 	.db #0xA3
   2C3E A4                13092 	.db #0xA4
   2C3F BD                13093 	.db #0xBD
   2C40 75                13094 	.db #0x75
   2C41 E9                13095 	.db #0xE9
   2C42 66                13096 	.db #0x66
   2C43 09                13097 	.db #0x09
   2C44 C1                13098 	.db #0xC1
   2C45 50                13099 	.db #0x50
   2C46 25                13100 	.db #0x25
   2C47 40                13101 	.db #0x40
   2C48 25                13102 	.db #0x25
   2C49 A5                13103 	.db #0xA5
   2C4A AD                13104 	.db #0xAD
   2C4B BF                13105 	.db #0xBF
   2C4C A9                13106 	.db #0xA9
   2C4D 74                13107 	.db #0x74
   2C4E 7A                13108 	.db #0x7A
   2C4F 63                13109 	.db #0x63
   2C50 9E                13110 	.db #0x9E
   2C51 B1                13111 	.db #0xB1
   2C52 10                13112 	.db #0x10
   2C53 DE                13113 	.db #0xDE
   2C54 17                13114 	.db #0x17
   2C55 57                13115 	.db #0x57
   2C56 5D                13116 	.db #0x5D
   2C57 1D                13117 	.db #0x1D
   2C58 BB                13118 	.db #0xBB
   2C59 89                13119 	.db #0x89
   2C5A E6                13120 	.db #0xE6
   2C5B FC                13121 	.db #0xFC
   2C5C 3F                13122 	.db #0x3F
   2C5D 0D                13123 	.db #0x0D
   2C5E 10                13124 	.db #0x10
   2C5F FD                13125 	.db #0xFD
   2C60 60                13126 	.db #0x60
   2C61 B9                13127 	.db #0xB9
   2C62 EC                13128 	.db #0xEC
   2C63 C7                13129 	.db #0xC7
   2C64 08                13130 	.db #0x08
   2C65 30                13131 	.db #0x30
   2C66 54                13132 	.db #0x54
   2C67 A7                13133 	.db #0xA7
   2C68 F5                13134 	.db #0xF5
   2C69 08                13135 	.db #0x08
   2C6A 17                13136 	.db #0x17
   2C6B 0F                13137 	.db #0x0F
   2C6C E2                13138 	.db #0xE2
   2C6D 5C                13139 	.db #0x5C
   2C6E 57                13140 	.db #0x57
   2C6F DC                13141 	.db #0xDC
   2C70 3A                13142 	.db #0x3A
   2C71 97                13143 	.db #0x97
   2C72 2E                13144 	.db #0x2E
   2C73 29                13145 	.db #0x29
   2C74 A2                13146 	.db #0xA2
   2C75 4E                13147 	.db #0x4E
   2C76 57                13148 	.db #0x57
   2C77 DD                13149 	.db #0xDD
   2C78 BB                13150 	.db #0xBB
   2C79 13                13151 	.db #0x13
   2C7A EB                13152 	.db #0xEB
   2C7B 6A                13153 	.db #0x6A
   2C7C B4                13154 	.db #0xB4
   2C7D 77                13155 	.db #0x77
   2C7E 5B                13156 	.db #0x5B
   2C7F D5                13157 	.db #0xD5
   2C80 88                13158 	.db #0x88
   2C81 71                13159 	.db #0x71
   2C82 5B                13160 	.db #0x5B
   2C83 CF                13161 	.db #0xCF
   2C84 B8                13162 	.db #0xB8
   2C85 3A                13163 	.db #0x3A
   2C86 5E                13164 	.db #0x5E
   2C87 FB                13165 	.db #0xFB
   2C88 C0                13166 	.db #0xC0
   2C89 A1                13167 	.db #0xA1
   2C8A 58                13168 	.db #0x58
   2C8B 3B                13169 	.db #0x3B
   2C8C 49                13170 	.db #0x49
   2C8D B3                13171 	.db #0xB3
   2C8E 37                13172 	.db #0x37
   2C8F 9F                13173 	.db #0x9F
   2C90 6E                13174 	.db #0x6E
   2C91 26                13175 	.db #0x26
   2C92 59                13176 	.db #0x59
   2C93 45                13177 	.db #0x45
   2C94 46                13178 	.db #0x46
   2C95 50                13179 	.db #0x50
   2C96 11                13180 	.db #0x11
   2C97 D7                13181 	.db #0xD7
   2C98 A8                13182 	.db #0xA8
   2C99 59                13183 	.db #0x59
   2C9A 36                13184 	.db #0x36
   2C9B 9C                13185 	.db #0x9C
   2C9C 63                13186 	.db #0x63
   2C9D 44                13187 	.db #0x44
   2C9E 20                13188 	.db #0x20
   2C9F 36                13189 	.db #0x36
   2CA0 CE                13190 	.db #0xCE
   2CA1 E5                13191 	.db #0xE5
   2CA2 C3                13192 	.db #0xC3
   2CA3 DC                13193 	.db #0xDC
   2CA4 07                13194 	.db #0x07
   2CA5 F4                13195 	.db #0xF4
   2CA6 B3                13196 	.db #0xB3
   2CA7 F1                13197 	.db #0xF1
   2CA8 24                13198 	.db #0x24
   2CA9 B6                13199 	.db #0xB6
   2CAA B7                13200 	.db #0xB7
   2CAB 60                13201 	.db #0x60
   2CAC 0C                13202 	.db #0x0C
   2CAD C0                13203 	.db #0xC0
   2CAE ED                13204 	.db #0xED
   2CAF DE                13205 	.db #0xDE
   2CB0 91                13206 	.db #0x91
   2CB1 D4                13207 	.db #0xD4
   2CB2 65                13208 	.db #0x65
   2CB3 32                13209 	.db #0x32
   2CB4 70                13210 	.db #0x70
   2CB5 8D                13211 	.db #0x8D
   2CB6 B7                13212 	.db #0xB7
   2CB7 3F                13213 	.db #0x3F
   2CB8 EC                13214 	.db #0xEC
   2CB9 A2                13215 	.db #0xA2
   2CBA BE                13216 	.db #0xBE
   2CBB 02                13217 	.db #0x02
   2CBC 7F                13218 	.db #0x7F
   2CBD F0                13219 	.db #0xF0
   2CBE 85                13220 	.db #0x85
   2CBF D5                13221 	.db #0xD5
   2CC0 C2                13222 	.db #0xC2
   2CC1 A6                13223 	.db #0xA6
   2CC2 87                13224 	.db #0x87
   2CC3 5D                13225 	.db #0x5D
   2CC4 34                13226 	.db #0x34
   2CC5 C6                13227 	.db #0xC6
   2CC6 C2                13228 	.db #0xC2
   2CC7 52                13229 	.db #0x52
   2CC8 89                13230 	.db #0x89
   2CC9 13                13231 	.db #0x13
   2CCA 7C                13232 	.db #0x7C
   2CCB FB                13233 	.db #0xFB
   2CCC 1A                13234 	.db #0x1A
   2CCD F5                13235 	.db #0xF5
   2CCE A4                13236 	.db #0xA4
   2CCF D6                13237 	.db #0xD6
   2CD0 B6                13238 	.db #0xB6
   2CD1 1C                13239 	.db #0x1C
   2CD2 13                13240 	.db #0x13
   2CD3 E3                13241 	.db #0xE3
   2CD4 5B                13242 	.db #0x5B
   2CD5 9F                13243 	.db #0x9F
   2CD6 DA                13244 	.db #0xDA
   2CD7 35                13245 	.db #0x35
   2CD8 8E                13246 	.db #0x8E
   2CD9 13                13247 	.db #0x13
   2CDA 21                13248 	.db #0x21
   2CDB CA                13249 	.db #0xCA
   2CDC 53                13250 	.db #0x53
   2CDD A8                13251 	.db #0xA8
   2CDE 8F                13252 	.db #0x8F
   2CDF 35                13253 	.db #0x35
   2CE0 35                13254 	.db #0x35
   2CE1 75                13255 	.db #0x75
   2CE2 70                13256 	.db #0x70
   2CE3 BB                13257 	.db #0xBB
   2CE4 F2                13258 	.db #0xF2
   2CE5 6F                13259 	.db #0x6F
   2CE6 3C                13260 	.db #0x3C
   2CE7 EC                13261 	.db #0xEC
   2CE8 97                13262 	.db #0x97
   2CE9 51                13263 	.db #0x51
   2CEA DA                13264 	.db #0xDA
   2CEB 47                13265 	.db #0x47
   2CEC 60                13266 	.db #0x60
   2CED 1A                13267 	.db #0x1A
   2CEE F9                13268 	.db #0xF9
   2CEF 35                13269 	.db #0x35
   2CF0 BA                13270 	.db #0xBA
   2CF1 4C                13271 	.db #0x4C
   2CF2 36                13272 	.db #0x36
   2CF3 57                13273 	.db #0x57
   2CF4 9B                13274 	.db #0x9B
   2CF5 17                13275 	.db #0x17
   2CF6 7C                13276 	.db #0x7C
   2CF7 0B                13277 	.db #0x0B
   2CF8 A5                13278 	.db #0xA5
   2CF9 DB                13279 	.db #0xDB
   2CFA E7                13280 	.db #0xE7
   2CFB 5D                13281 	.db #0x5D
   2CFC 92                13282 	.db #0x92
   2CFD FB                13283 	.db #0xFB
   2CFE AD                13284 	.db #0xAD
   2CFF BB                13285 	.db #0xBB
   2D00 1D                13286 	.db #0x1D
   2D01 8A                13287 	.db #0x8A
   2D02 75                13288 	.db #0x75
   2D03 62                13289 	.db #0x62
   2D04 3A                13290 	.db #0x3A
   2D05 9F                13291 	.db #0x9F
   2D06 BD                13292 	.db #0xBD
   2D07 EC                13293 	.db #0xEC
   2D08 38                13294 	.db #0x38
   2D09 E3                13295 	.db #0xE3
   2D0A F1                13296 	.db #0xF1
   2D0B FD                13297 	.db #0xFD
   2D0C C9                13298 	.db #0xC9
   2D0D A7                13299 	.db #0xA7
   2D0E F1                13300 	.db #0xF1
   2D0F 71                13301 	.db #0x71
   2D10 3F                13302 	.db #0x3F
   2D11 5F                13303 	.db #0x5F
   2D12 1E                13304 	.db #0x1E
   2D13 85                13305 	.db #0x85
   2D14 56                13306 	.db #0x56
   2D15 A3                13307 	.db #0xA3
   2D16 EE                13308 	.db #0xEE
   2D17 63                13309 	.db #0x63
   2D18 C4                13310 	.db #0xC4
   2D19 8F                13311 	.db #0x8F
   2D1A BC                13312 	.db #0xBC
   2D1B 2C                13313 	.db #0x2C
   2D1C 67                13314 	.db #0x67
   2D1D FB                13315 	.db #0xFB
   2D1E 02                13316 	.db #0x02
   2D1F 3F                13317 	.db #0x3F
   2D20 68                13318 	.db #0x68
   2D21 78                13319 	.db #0x78
   2D22 F4                13320 	.db #0xF4
   2D23 7B                13321 	.db #0x7B
   2D24 BE                13322 	.db #0xBE
   2D25 95                13323 	.db #0x95
   2D26 19                13324 	.db #0x19
   2D27 1E                13325 	.db #0x1E
   2D28 CC                13326 	.db #0xCC
   2D29 6B                13327 	.db #0x6B
   2D2A AD                13328 	.db #0xAD
   2D2B 17                13329 	.db #0x17
   2D2C 3D                13330 	.db #0x3D
   2D2D 53                13331 	.db #0x53
   2D2E EB                13332 	.db #0xEB
   2D2F E9                13333 	.db #0xE9
   2D30 BD                13334 	.db #0xBD
   2D31 F5                13335 	.db #0xF5
   2D32 72                13336 	.db #0x72
   2D33 3F                13337 	.db #0x3F
   2D34 DA                13338 	.db #0xDA
   2D35 15                13339 	.db #0x15
   2D36 40                13340 	.db #0x40
   2D37 85                13341 	.db #0x85
   2D38 73                13342 	.db #0x73
   2D39 27                13343 	.db #0x27
   2D3A C3                13344 	.db #0xC3
   2D3B 64                13345 	.db #0x64
   2D3C A7                13346 	.db #0xA7
   2D3D B3                13347 	.db #0xB3
   2D3E 23                13348 	.db #0x23
   2D3F 56                13349 	.db #0x56
   2D40 D4                13350 	.db #0xD4
   2D41 12                13351 	.db #0x12
   2D42 96                13352 	.db #0x96
   2D43 0C                13353 	.db #0x0C
   2D44 32                13354 	.db #0x32
   2D45 A1                13355 	.db #0xA1
   2D46 53                13356 	.db #0x53
   2D47 84                13357 	.db #0x84
   2D48 0C                13358 	.db #0x0C
   2D49 6F                13359 	.db #0x6F
   2D4A 7D                13360 	.db #0x7D
   2D4B D3                13361 	.db #0xD3
   2D4C BB                13362 	.db #0xBB
   2D4D 8A                13363 	.db #0x8A
   2D4E DF                13364 	.db #0xDF
   2D4F A7                13365 	.db #0xA7
   2D50 C7                13366 	.db #0xC7
   2D51 95                13367 	.db #0x95
   2D52 29                13368 	.db #0x29
   2D53 93                13369 	.db #0x93
   2D54 32                13370 	.db #0x32
   2D55 71                13371 	.db #0x71
   2D56 7D                13372 	.db #0x7D
   2D57 52                13373 	.db #0x52
   2D58 20                13374 	.db #0x20
   2D59 A8                13375 	.db #0xA8
   2D5A 3A                13376 	.db #0x3A
   2D5B C5                13377 	.db #0xC5
   2D5C DF                13378 	.db #0xDF
   2D5D DF                13379 	.db #0xDF
   2D5E 21                13380 	.db #0x21
   2D5F 51                13381 	.db #0x51
   2D60 73                13382 	.db #0x73
   2D61 39                13383 	.db #0x39
   2D62 2F                13384 	.db #0x2F
   2D63 2E                13385 	.db #0x2E
   2D64 D2                13386 	.db #0xD2
   2D65 A2                13387 	.db #0xA2
   2D66 BD                13388 	.db #0xBD
   2D67 C9                13389 	.db #0xC9
   2D68 AC                13390 	.db #0xAC
   2D69 5E                13391 	.db #0x5E
   2D6A 4E                13392 	.db #0x4E
   2D6B 7E                13393 	.db #0x7E
   2D6C 4A                13394 	.db #0x4A
   2D6D 67                13395 	.db #0x67
   2D6E D9                13396 	.db #0xD9
   2D6F 06                13397 	.db #0x06
   2D70 60                13398 	.db #0x60
   2D71 39                13399 	.db #0x39
   2D72 B1                13400 	.db #0xB1
   2D73 CE                13401 	.db #0xCE
   2D74 0C                13402 	.db #0x0C
   2D75 CC                13403 	.db #0xCC
   2D76 12                13404 	.db #0x12
   2D77 4E                13405 	.db #0x4E
   2D78 4E                13406 	.db #0x4E
   2D79 CB                13407 	.db #0xCB
   2D7A 57                13408 	.db #0x57
   2D7B 7D                13409 	.db #0x7D
   2D7C E4                13410 	.db #0xE4
   2D7D 46                13411 	.db #0x46
   2D7E AD                13412 	.db #0xAD
   2D7F 83                13413 	.db #0x83
   2D80 4A                13414 	.db #0x4A
   2D81 2C                13415 	.db #0x2C
   2D82 95                13416 	.db #0x95
   2D83 28                13417 	.db #0x28
   2D84 AA                13418 	.db #0xAA
   2D85 D5                13419 	.db #0xD5
   2D86 4C                13420 	.db #0x4C
   2D87 20                13421 	.db #0x20
   2D88 F4                13422 	.db #0xF4
   2D89 48                13423 	.db #0x48
   2D8A D6                13424 	.db #0xD6
   2D8B E4                13425 	.db #0xE4
   2D8C E8                13426 	.db #0xE8
   2D8D 0B                13427 	.db #0x0B
   2D8E 40                13428 	.db #0x40
   2D8F 05                13429 	.db #0x05
   2D90 6B                13430 	.db #0x6B
   2D91 42                13431 	.db #0x42
   2D92 63                13432 	.db #0x63
   2D93 D6                13433 	.db #0xD6
   2D94 15                13434 	.db #0x15
   2D95 30                13435 	.db #0x30
   2D96 1C                13436 	.db #0x1C
   2D97 60                13437 	.db #0x60
   2D98 C8                13438 	.db #0xC8
   2D99 7E                13439 	.db #0x7E
   2D9A B4                13440 	.db #0xB4
   2D9B B6                13441 	.db #0xB6
   2D9C A6                13442 	.db #0xA6
   2D9D 15                13443 	.db #0x15
   2D9E 36                13444 	.db #0x36
   2D9F 3A                13445 	.db #0x3A
   2DA0 75                13446 	.db #0x75
   2DA1 32                13447 	.db #0x32
   2DA2 F7                13448 	.db #0xF7
   2DA3 68                13449 	.db #0x68
   2DA4 45                13450 	.db #0x45
   2DA5 01                13451 	.db #0x01
   2DA6 B7                13452 	.db #0xB7
   2DA7 02                13453 	.db #0x02
   2DA8 2D                13454 	.db #0x2D
   2DA9 9E                13455 	.db #0x9E
   2DAA A0                13456 	.db #0xA0
   2DAB 0B                13457 	.db #0x0B
   2DAC 32                13458 	.db #0x32
   2DAD 06                13459 	.db #0x06
   2DAE 99                13460 	.db #0x99
   2DAF 22                13461 	.db #0x22
   2DB0 D8                13462 	.db #0xD8
   2DB1 09                13463 	.db #0x09
   2DB2 59                13464 	.db #0x59
   2DB3 4F                13465 	.db #0x4F
   2DB4 52                13466 	.db #0x52
   2DB5 01                13467 	.db #0x01
   2DB6 6E                13468 	.db #0x6E
   2DB7 8A                13469 	.db #0x8A
   2DB8 CB                13470 	.db #0xCB
   2DB9 84                13471 	.db #0x84
   2DBA 52                13472 	.db #0x52
   2DBB 58                13473 	.db #0x58
   2DBC 4A                13474 	.db #0x4A
   2DBD B9                13475 	.db #0xB9
   2DBE C1                13476 	.db #0xC1
   2DBF F7                13477 	.db #0xF7
   2DC0 44                13478 	.db #0x44
   2DC1 92                13479 	.db #0x92
   2DC2 28                13480 	.db #0x28
   2DC3 23                13481 	.db #0x23
   2DC4 EB                13482 	.db #0xEB
   2DC5 4D                13483 	.db #0x4D
   2DC6 9E                13484 	.db #0x9E
   2DC7 7C                13485 	.db #0x7C
   2DC8 92                13486 	.db #0x92
   2DC9 80                13487 	.db #0x80
   2DCA 44                13488 	.db #0x44
   2DCB 26                13489 	.db #0x26
   2DCC E1                13490 	.db #0xE1
   2DCD 6F                13491 	.db #0x6F
   2DCE 30                13492 	.db #0x30
   2DCF BD                13493 	.db #0xBD
   2DD0 84                13494 	.db #0x84
   2DD1 8A                13495 	.db #0x8A
   2DD2 F1                13496 	.db #0xF1
   2DD3 35                13497 	.db #0x35
   2DD4 26                13498 	.db #0x26
   2DD5 AD                13499 	.db #0xAD
   2DD6 35                13500 	.db #0x35
   2DD7 DE                13501 	.db #0xDE
   2DD8 B7                13502 	.db #0xB7
   2DD9 63                13503 	.db #0x63
   2DDA 9E                13504 	.db #0x9E
   2DDB 42                13505 	.db #0x42
   2DDC FC                13506 	.db #0xFC
   2DDD 5B                13507 	.db #0x5B
   2DDE 59                13508 	.db #0x59
   2DDF B9                13509 	.db #0xB9
   2DE0 BF                13510 	.db #0xBF
   2DE1 40                13511 	.db #0x40
   2DE2 53                13512 	.db #0x53
   2DE3 6D                13513 	.db #0x6D
   2DE4 A7                13514 	.db #0xA7
   2DE5 51                13515 	.db #0x51
   2DE6 65                13516 	.db #0x65
   2DE7 E9                13517 	.db #0xE9
   2DE8 54                13518 	.db #0x54
   2DE9 05                13519 	.db #0x05
   2DEA BF                13520 	.db #0xBF
   2DEB D4                13521 	.db #0xD4
   2DEC A0                13522 	.db #0xA0
   2DED 36                13523 	.db #0x36
   2DEE 38                13524 	.db #0x38
   2DEF 36                13525 	.db #0x36
   2DF0 BF                13526 	.db #0xBF
   2DF1 30                13527 	.db #0x30
   2DF2 0B                13528 	.db #0x0B
   2DF3 6C                13529 	.db #0x6C
   2DF4 4F                13530 	.db #0x4F
   2DF5 51                13531 	.db #0x51
   2DF6 8F                13532 	.db #0x8F
   2DF7 BE                13533 	.db #0xBE
   2DF8 9B                13534 	.db #0x9B
   2DF9 9C                13535 	.db #0x9C
   2DFA 71                13536 	.db #0x71
   2DFB EE                13537 	.db #0xEE
   2DFC 7D                13538 	.db #0x7D
   2DFD D4                13539 	.db #0xD4
   2DFE 85                13540 	.db #0x85
   2DFF BD                13541 	.db #0xBD
   2E00 C7                13542 	.db #0xC7
   2E01 2D                13543 	.db #0x2D
   2E02 EE                13544 	.db #0xEE
   2E03 35                13545 	.db #0x35
   2E04 D7                13546 	.db #0xD7
   2E05 7C                13547 	.db #0x7C
   2E06 B1                13548 	.db #0xB1
   2E07 FD                13549 	.db #0xFD
   2E08 37                13550 	.db #0x37
   2E09 91                13551 	.db #0x91
   2E0A 57                13552 	.db #0x57
   2E0B CD                13553 	.db #0xCD
   2E0C A0                13554 	.db #0xA0
   2E0D 9A                13555 	.db #0x9A
   2E0E F6                13556 	.db #0xF6
   2E0F 06                13557 	.db #0x06
   2E10 FC                13558 	.db #0xFC
   2E11 8A                13559 	.db #0x8A
   2E12 59                13560 	.db #0x59
   2E13 D0                13561 	.db #0xD0
   2E14 E0                13562 	.db #0xE0
   2E15 AC                13563 	.db #0xAC
   2E16 45                13564 	.db #0x45
   2E17 B2                13565 	.db #0xB2
   2E18 6F                13566 	.db #0x6F
   2E19 50                13567 	.db #0x50
   2E1A 00                13568 	.db #0x00
   2E1B BD                13569 	.db #0xBD
   2E1C BA                13570 	.db #0xBA
   2E1D 39                13571 	.db #0x39
   2E1E A3                13572 	.db #0xA3
   2E1F B3                13573 	.db #0xB3
   2E20 96                13574 	.db #0x96
   2E21 91                13575 	.db #0x91
   2E22 5A                13576 	.db #0x5A
   2E23 A0                13577 	.db #0xA0
   2E24 15                13578 	.db #0x15
   2E25 17                13579 	.db #0x17
   2E26 DF                13580 	.db #0xDF
   2E27 FC                13581 	.db #0xFC
   2E28 B6                13582 	.db #0xB6
   2E29 C8                13583 	.db #0xC8
   2E2A 79                13584 	.db #0x79
   2E2B D2                13585 	.db #0xD2
   2E2C FE                13586 	.db #0xFE
   2E2D CF                13587 	.db #0xCF
   2E2E 13                13588 	.db #0x13
   2E2F 1E                13589 	.db #0x1E
   2E30 79                13590 	.db #0x79
   2E31 78                13591 	.db #0x78
   2E32 D7                13592 	.db #0xD7
   2E33 66                13593 	.db #0x66
   2E34 F7                13594 	.db #0xF7
   2E35 05                13595 	.db #0x05
   2E36 97                13596 	.db #0x97
   2E37 4C                13597 	.db #0x4C
   2E38 22                13598 	.db #0x22
   2E39 CB                13599 	.db #0xCB
   2E3A F2                13600 	.db #0xF2
   2E3B C7                13601 	.db #0xC7
   2E3C C3                13602 	.db #0xC3
   2E3D 84                13603 	.db #0x84
   2E3E 97                13604 	.db #0x97
   2E3F D0                13605 	.db #0xD0
   2E40 A8                13606 	.db #0xA8
   2E41 47                13607 	.db #0x47
   2E42 BC                13608 	.db #0xBC
   2E43 43                13609 	.db #0x43
   2E44 E0                13610 	.db #0xE0
   2E45 3A                13611 	.db #0x3A
   2E46 A5                13612 	.db #0xA5
   2E47 4E                13613 	.db #0x4E
   2E48 74                13614 	.db #0x74
   2E49 F6                13615 	.db #0xF6
   2E4A BA                13616 	.db #0xBA
   2E4B 8E                13617 	.db #0x8E
   2E4C A5                13618 	.db #0xA5
   2E4D 03                13619 	.db #0x03
   2E4E F3                13620 	.db #0xF3
   2E4F 4C                13621 	.db #0x4C
   2E50 4D                13622 	.db #0x4D
   2E51 02                13623 	.db #0x02
   2E52 E1                13624 	.db #0xE1
   2E53 0A                13625 	.db #0x0A
   2E54 93                13626 	.db #0x93
   2E55 55                13627 	.db #0x55
   2E56 22                13628 	.db #0x22
   2E57 FD                13629 	.db #0xFD
   2E58 73                13630 	.db #0x73
   2E59 2F                13631 	.db #0x2F
   2E5A C6                13632 	.db #0xC6
   2E5B EE                13633 	.db #0xEE
   2E5C E9                13634 	.db #0xE9
   2E5D 45                13635 	.db #0x45
   2E5E CF                13636 	.db #0xCF
   2E5F 39                13637 	.db #0x39
   2E60 46                13638 	.db #0x46
   2E61 6C                13639 	.db #0x6C
   2E62 2B                13640 	.db #0x2B
   2E63 52                13641 	.db #0x52
   2E64 23                13642 	.db #0x23
   2E65 C2                13643 	.db #0xC2
   2E66 0D                13644 	.db #0x0D
   2E67 2C                13645 	.db #0x2C
   2E68 59                13646 	.db #0x59
   2E69 83                13647 	.db #0x83
   2E6A B4                13648 	.db #0xB4
   2E6B BA                13649 	.db #0xBA
   2E6C EA                13650 	.db #0xEA
   2E6D 82                13651 	.db #0x82
   2E6E BA                13652 	.db #0xBA
   2E6F 72                13653 	.db #0x72
   2E70 86                13654 	.db #0x86
   2E71 F6                13655 	.db #0xF6
   2E72 C6                13656 	.db #0xC6
   2E73 A7                13657 	.db #0xA7
   2E74 6B                13658 	.db #0x6B
   2E75 26                13659 	.db #0x26
   2E76 3F                13660 	.db #0x3F
   2E77 92                13661 	.db #0x92
   2E78 AB                13662 	.db #0xAB
   2E79 1F                13663 	.db #0x1F
   2E7A 92                13664 	.db #0x92
   2E7B EE                13665 	.db #0xEE
   2E7C E3                13666 	.db #0xE3
   2E7D 7F                13667 	.db #0x7F
   2E7E 6A                13668 	.db #0x6A
   2E7F 94                13669 	.db #0x94
   2E80 42                13670 	.db #0x42
   2E81 66                13671 	.db #0x66
   2E82 8E                13672 	.db #0x8E
   2E83 77                13673 	.db #0x77
   2E84 0F                13674 	.db #0x0F
   2E85 B3                13675 	.db #0xB3
   2E86 D5                13676 	.db #0xD5
   2E87 9C                13677 	.db #0x9C
   2E88 45                13678 	.db #0x45
   2E89 9F                13679 	.db #0x9F
   2E8A DF                13680 	.db #0xDF
   2E8B AE                13681 	.db #0xAE
   2E8C 23                13682 	.db #0x23
   2E8D 37                13683 	.db #0x37
   2E8E 69                13684 	.db #0x69
   2E8F 9D                13685 	.db #0x9D
   2E90 19                13686 	.db #0x19
   2E91 BE                13687 	.db #0xBE
   2E92 88                13688 	.db #0x88
   2E93 0E                13689 	.db #0x0E
   2E94 52                13690 	.db #0x52
   2E95 44                13691 	.db #0x44
   2E96 86                13692 	.db #0x86
   2E97 ED                13693 	.db #0xED
   2E98 FE                13694 	.db #0xFE
   2E99 D6                13695 	.db #0xD6
   2E9A 41                13696 	.db #0x41
   2E9B 8C                13697 	.db #0x8C
   2E9C 23                13698 	.db #0x23
   2E9D 7E                13699 	.db #0x7E
   2E9E 61                13700 	.db #0x61
   2E9F 6B                13701 	.db #0x6B
   2EA0 0A                13702 	.db #0x0A
   2EA1 DE                13703 	.db #0xDE
   2EA2 DE                13704 	.db #0xDE
   2EA3 2B                13705 	.db #0x2B
   2EA4 24                13706 	.db #0x24
   2EA5 32                13707 	.db #0x32
   2EA6 45                13708 	.db #0x45
   2EA7 1D                13709 	.db #0x1D
   2EA8 9A                13710 	.db #0x9A
   2EA9 60                13711 	.db #0x60
   2EAA 70                13712 	.db #0x70
   2EAB DD                13713 	.db #0xDD
   2EAC 31                13714 	.db #0x31
   2EAD 96                13715 	.db #0x96
   2EAE CD                13716 	.db #0xCD
   2EAF 35                13717 	.db #0x35
   2EB0 C0                13718 	.db #0xC0
   2EB1 9B                13719 	.db #0x9B
   2EB2 05                13720 	.db #0x05
   2EB3 7E                13721 	.db #0x7E
   2EB4 B9                13722 	.db #0xB9
   2EB5 DE                13723 	.db #0xDE
   2EB6 46                13724 	.db #0x46
   2EB7 B8                13725 	.db #0xB8
   2EB8 C2                13726 	.db #0xC2
   2EB9 47                13727 	.db #0x47
   2EBA 94                13728 	.db #0x94
   2EBB 0B                13729 	.db #0x0B
   2EBC 76                13730 	.db #0x76
   2EBD 4D                13731 	.db #0x4D
   2EBE DB                13732 	.db #0xDB
   2EBF C1                13733 	.db #0xC1
   2EC0 94                13734 	.db #0x94
   2EC1 25                13735 	.db #0x25
   2EC2 53                13736 	.db #0x53
   2EC3 FD                13737 	.db #0xFD
   2EC4 C3                13738 	.db #0xC3
   2EC5 C3                13739 	.db #0xC3
   2EC6 CA                13740 	.db #0xCA
   2EC7 F6                13741 	.db #0xF6
   2EC8 0C                13742 	.db #0x0C
   2EC9 83                13743 	.db #0x83
   2ECA 2B                13744 	.db #0x2B
   2ECB EC                13745 	.db #0xEC
   2ECC 1F                13746 	.db #0x1F
   2ECD 91                13747 	.db #0x91
   2ECE C6                13748 	.db #0xC6
   2ECF CD                13749 	.db #0xCD
   2ED0 12                13750 	.db #0x12
   2ED1 07                13751 	.db #0x07
   2ED2 68                13752 	.db #0x68
   2ED3 6A                13753 	.db #0x6A
   2ED4 73                13754 	.db #0x73
   2ED5 D9                13755 	.db #0xD9
   2ED6 3C                13756 	.db #0x3C
   2ED7 7E                13757 	.db #0x7E
   2ED8 2F                13758 	.db #0x2F
   2ED9 77                13759 	.db #0x77
   2EDA F3                13760 	.db #0xF3
   2EDB AD                13761 	.db #0xAD
   2EDC 33                13762 	.db #0x33
   2EDD 01                13763 	.db #0x01
   2EDE 56                13764 	.db #0x56
   2EDF 30                13765 	.db #0x30
   2EE0 34                13766 	.db #0x34
   2EE1 F5                13767 	.db #0xF5
   2EE2 44                13768 	.db #0x44
   2EE3 6E                13769 	.db #0x6E
   2EE4 C3                13770 	.db #0xC3
   2EE5 01                13771 	.db #0x01
   2EE6 C8                13772 	.db #0xC8
   2EE7 0B                13773 	.db #0x0B
   2EE8 B6                13774 	.db #0xB6
   2EE9 59                13775 	.db #0x59
   2EEA 74                13776 	.db #0x74
   2EEB CC                13777 	.db #0xCC
   2EEC D5                13778 	.db #0xD5
   2EED 8E                13779 	.db #0x8E
   2EEE E1                13780 	.db #0xE1
   2EEF 4B                13781 	.db #0x4B
   2EF0 98                13782 	.db #0x98
   2EF1 11                13783 	.db #0x11
   2EF2 9A                13784 	.db #0x9A
   2EF3 55                13785 	.db #0x55
   2EF4 6D                13786 	.db #0x6D
   2EF5 D7                13787 	.db #0xD7
   2EF6 B5                13788 	.db #0xB5
   2EF7 A4                13789 	.db #0xA4
   2EF8 5F                13790 	.db #0x5F
   2EF9 09                13791 	.db #0x09
   2EFA FF                13792 	.db #0xFF
   2EFB 8C                13793 	.db #0x8C
   2EFC BA                13794 	.db #0xBA
   2EFD E7                13795 	.db #0xE7
   2EFE 90                13796 	.db #0x90
   2EFF AB                13797 	.db #0xAB
   2F00 D6                13798 	.db #0xD6
   2F01 B3                13799 	.db #0xB3
   2F02 29                13800 	.db #0x29
   2F03 6A                13801 	.db #0x6A
   2F04 70                13802 	.db #0x70
   2F05 E8                13803 	.db #0xE8
   2F06 93                13804 	.db #0x93
   2F07 7E                13805 	.db #0x7E
   2F08 81                13806 	.db #0x81
   2F09 93                13807 	.db #0x93
   2F0A B8                13808 	.db #0xB8
   2F0B 62                13809 	.db #0x62
   2F0C 7A                13810 	.db #0x7A
   2F0D 33                13811 	.db #0x33
   2F0E C3                13812 	.db #0xC3
   2F0F D3                13813 	.db #0xD3
   2F10 B7                13814 	.db #0xB7
   2F11 E1                13815 	.db #0xE1
   2F12 0B                13816 	.db #0x0B
   2F13 D4                13817 	.db #0xD4
   2F14 0F                13818 	.db #0x0F
   2F15 1C                13819 	.db #0x1C
   2F16 94                13820 	.db #0x94
   2F17 E3                13821 	.db #0xE3
   2F18 41                13822 	.db #0x41
   2F19 9B                13823 	.db #0x9B
   2F1A E9                13824 	.db #0xE9
   2F1B EF                13825 	.db #0xEF
   2F1C AB                13826 	.db #0xAB
   2F1D 0B                13827 	.db #0x0B
   2F1E C7                13828 	.db #0xC7
   2F1F D4                13829 	.db #0xD4
   2F20 C1                13830 	.db #0xC1
   2F21 EE                13831 	.db #0xEE
   2F22 3B                13832 	.db #0x3B
   2F23 25                13833 	.db #0x25
   2F24 F7                13834 	.db #0xF7
   2F25 EE                13835 	.db #0xEE
   2F26 EA                13836 	.db #0xEA
   2F27 45                13837 	.db #0x45
   2F28 00                13838 	.db #0x00
   2F29 E5                13839 	.db #0xE5
   2F2A 69                13840 	.db #0x69
   2F2B AF                13841 	.db #0xAF
   2F2C A9                13842 	.db #0xA9
   2F2D BE                13843 	.db #0xBE
   2F2E D1                13844 	.db #0xD1
   2F2F F8                13845 	.db #0xF8
   2F30 C6                13846 	.db #0xC6
   2F31 82                13847 	.db #0x82
   2F32 91                13848 	.db #0x91
   2F33 87                13849 	.db #0x87
   2F34 A3                13850 	.db #0xA3
   2F35 CA                13851 	.db #0xCA
   2F36 0A                13852 	.db #0x0A
   2F37 3E                13853 	.db #0x3E
   2F38 4F                13854 	.db #0x4F
   2F39 77                13855 	.db #0x77
   2F3A 17                13856 	.db #0x17
   2F3B 72                13857 	.db #0x72
   2F3C 26                13858 	.db #0x26
   2F3D C0                13859 	.db #0xC0
   2F3E 2D                13860 	.db #0x2D
   2F3F 47                13861 	.db #0x47
   2F40 42                13862 	.db #0x42
   2F41 A6                13863 	.db #0xA6
   2F42 06                13864 	.db #0x06
   2F43 C0                13865 	.db #0xC0
   2F44 FE                13866 	.db #0xFE
   2F45 3C                13867 	.db #0x3C
   2F46 EC                13868 	.db #0xEC
   2F47 CE                13869 	.db #0xCE
   2F48 06                13870 	.db #0x06
   2F49 81                13871 	.db #0x81
   2F4A E2                13872 	.db #0xE2
   2F4B C5                13873 	.db #0xC5
   2F4C 9C                13874 	.db #0x9C
   2F4D DC                13875 	.db #0xDC
   2F4E 12                13876 	.db #0x12
   2F4F 46                13877 	.db #0x46
   2F50 3E                13878 	.db #0x3E
   2F51 E5                13879 	.db #0xE5
   2F52 EF                13880 	.db #0xEF
   2F53 2D                13881 	.db #0x2D
   2F54 F5                13882 	.db #0xF5
   2F55 46                13883 	.db #0x46
   2F56 4C                13884 	.db #0x4C
   2F57 95                13885 	.db #0x95
   2F58 A3                13886 	.db #0xA3
   2F59 82                13887 	.db #0x82
   2F5A 93                13888 	.db #0x93
   2F5B 1A                13889 	.db #0x1A
   2F5C 76                13890 	.db #0x76
   2F5D A0                13891 	.db #0xA0
   2F5E CA                13892 	.db #0xCA
   2F5F 42                13893 	.db #0x42
   2F60 EA                13894 	.db #0xEA
   2F61 7C                13895 	.db #0x7C
   2F62 82                13896 	.db #0x82
   2F63 E1                13897 	.db #0xE1
   2F64 8F                13898 	.db #0x8F
   2F65 4A                13899 	.db #0x4A
   2F66 53                13900 	.db #0x53
   2F67 91                13901 	.db #0x91
   2F68 E8                13902 	.db #0xE8
   2F69 53                13903 	.db #0x53
   2F6A 59                13904 	.db #0x59
   2F6B 16                13905 	.db #0x16
   2F6C 6B                13906 	.db #0x6B
   2F6D 49                13907 	.db #0x49
   2F6E BF                13908 	.db #0xBF
   2F6F D5                13909 	.db #0xD5
   2F70 57                13910 	.db #0x57
   2F71 11                13911 	.db #0x11
   2F72 14                13912 	.db #0x14
   2F73 53                13913 	.db #0x53
   2F74 88                13914 	.db #0x88
   2F75 61                13915 	.db #0x61
   2F76 0B                13916 	.db #0x0B
   2F77 E7                13917 	.db #0xE7
   2F78 D3                13918 	.db #0xD3
   2F79 3E                13919 	.db #0x3E
   2F7A 10                13920 	.db #0x10
   2F7B FF                13921 	.db #0xFF
   2F7C                   13922 _stage1_5_hash:
   2F7C 98                13923 	.db #0x98
   2F7D 98                13924 	.db #0x98
   2F7E 98                13925 	.db #0x98
   2F7F 98                13926 	.db #0x98
   2F80 98                13927 	.db #0x98
   2F81 98                13928 	.db #0x98
   2F82 98                13929 	.db #0x98
   2F83 98                13930 	.db #0x98
   2F84                   13931 _stage1_5_hash_key:
   2F84 8E                13932 	.db #0x8E
   2F85 67                13933 	.db #0x67
   2F86 2F                13934 	.db #0x2F
   2F87 7B                13935 	.db #0x7B
   2F88 50                13936 	.db #0x50
   2F89 71                13937 	.db #0x71
   2F8A 6D                13938 	.db #0x6D
   2F8B 83                13939 	.db #0x83
   2F8C                   13940 _xtea_keys:
   2F8C 62                13941 	.db #0x62
   2F8D 3B                13942 	.db #0x3B
   2F8E D5                13943 	.db #0xD5
   2F8F F8                13944 	.db #0xF8
   2F90 E6                13945 	.db #0xE6
   2F91 CC                13946 	.db #0xCC
   2F92 A4                13947 	.db #0xA4
   2F93 84                13948 	.db #0x84
   2F94 44                13949 	.db #0x44
   2F95 A1                13950 	.db #0xA1
   2F96 76                13951 	.db #0x76
   2F97 D4                13952 	.db #0xD4
   2F98 80                13953 	.db #0x80
   2F99 5A                13954 	.db #0x5A
   2F9A 48                13955 	.db #0x48
   2F9B C4                13956 	.db #0xC4
   2F9C 24                13957 	.db #0x24
                          13958 	.area XINIT   (CODE)
                          13959 	.area CABS    (ABS,CODE)
